
2way_HID_Button_Buzzer.elf:     file format elf32-littlearm

Sections:
Idx Name          Size      VMA       LMA       File off  Algn
  0 .isr_vector   000000c0  08000000  08000000  00001000  2**0
                  CONTENTS, ALLOC, LOAD, READONLY, DATA
  1 .text         00005330  080000c0  080000c0  000010c0  2**2
                  CONTENTS, ALLOC, LOAD, READONLY, CODE
  2 .rodata       0000028c  080053f0  080053f0  000063f0  2**2
                  CONTENTS, ALLOC, LOAD, READONLY, DATA
  3 .ARM.extab    00000000  0800567c  0800567c  00007234  2**0
                  CONTENTS, READONLY
  4 .ARM          00000000  0800567c  0800567c  00007234  2**0
                  CONTENTS, READONLY
  5 .preinit_array 00000000  0800567c  0800567c  00007234  2**0
                  CONTENTS, ALLOC, LOAD, DATA
  6 .init_array   00000004  0800567c  0800567c  0000667c  2**2
                  CONTENTS, ALLOC, LOAD, READONLY, DATA
  7 .fini_array   00000004  08005680  08005680  00006680  2**2
                  CONTENTS, ALLOC, LOAD, READONLY, DATA
  8 .data         00000234  20000000  08005684  00007000  2**2
                  CONTENTS, ALLOC, LOAD, DATA
  9 .bss          00000a84  20000234  080058b8  00007234  2**2
                  ALLOC
 10 ._user_heap_stack 00000600  20000cb8  080058b8  00007cb8  2**0
                  ALLOC
 11 .ARM.attributes 00000028  00000000  00000000  00007234  2**0
                  CONTENTS, READONLY
 12 .comment      00000043  00000000  00000000  0000725c  2**0
                  CONTENTS, READONLY
 13 .debug_frame  00000908  00000000  00000000  000072a0  2**2
                  CONTENTS, READONLY, DEBUGGING, OCTETS

Disassembly of section .text:

080000c0 <__do_global_dtors_aux>:
 80000c0:	b510      	push	{r4, lr}
 80000c2:	4c06      	ldr	r4, [pc, #24]	@ (80000dc <__do_global_dtors_aux+0x1c>)
 80000c4:	7823      	ldrb	r3, [r4, #0]
 80000c6:	2b00      	cmp	r3, #0
 80000c8:	d107      	bne.n	80000da <__do_global_dtors_aux+0x1a>
 80000ca:	4b05      	ldr	r3, [pc, #20]	@ (80000e0 <__do_global_dtors_aux+0x20>)
 80000cc:	2b00      	cmp	r3, #0
 80000ce:	d002      	beq.n	80000d6 <__do_global_dtors_aux+0x16>
 80000d0:	4804      	ldr	r0, [pc, #16]	@ (80000e4 <__do_global_dtors_aux+0x24>)
 80000d2:	e000      	b.n	80000d6 <__do_global_dtors_aux+0x16>
 80000d4:	bf00      	nop
 80000d6:	2301      	movs	r3, #1
 80000d8:	7023      	strb	r3, [r4, #0]
 80000da:	bd10      	pop	{r4, pc}
 80000dc:	20000234 	.word	0x20000234
 80000e0:	00000000 	.word	0x00000000
 80000e4:	080053d8 	.word	0x080053d8

080000e8 <frame_dummy>:
 80000e8:	4b04      	ldr	r3, [pc, #16]	@ (80000fc <frame_dummy+0x14>)
 80000ea:	b510      	push	{r4, lr}
 80000ec:	2b00      	cmp	r3, #0
 80000ee:	d003      	beq.n	80000f8 <frame_dummy+0x10>
 80000f0:	4903      	ldr	r1, [pc, #12]	@ (8000100 <frame_dummy+0x18>)
 80000f2:	4804      	ldr	r0, [pc, #16]	@ (8000104 <frame_dummy+0x1c>)
 80000f4:	e000      	b.n	80000f8 <frame_dummy+0x10>
 80000f6:	bf00      	nop
 80000f8:	bd10      	pop	{r4, pc}
 80000fa:	46c0      	nop			@ (mov r8, r8)
 80000fc:	00000000 	.word	0x00000000
 8000100:	20000238 	.word	0x20000238
 8000104:	080053d8 	.word	0x080053d8

08000108 <strcmp>:
 8000108:	7802      	ldrb	r2, [r0, #0]
 800010a:	780b      	ldrb	r3, [r1, #0]
 800010c:	2a00      	cmp	r2, #0
 800010e:	d003      	beq.n	8000118 <strcmp+0x10>
 8000110:	3001      	adds	r0, #1
 8000112:	3101      	adds	r1, #1
 8000114:	429a      	cmp	r2, r3
 8000116:	d0f7      	beq.n	8000108 <strcmp>
 8000118:	1ad0      	subs	r0, r2, r3
 800011a:	4770      	bx	lr

0800011c <strlen>:
 800011c:	2300      	movs	r3, #0
 800011e:	5cc2      	ldrb	r2, [r0, r3]
 8000120:	3301      	adds	r3, #1
 8000122:	2a00      	cmp	r2, #0
 8000124:	d1fb      	bne.n	800011e <strlen+0x2>
 8000126:	1e58      	subs	r0, r3, #1
 8000128:	4770      	bx	lr
	...

0800012c <__gnu_thumb1_case_sqi>:
 800012c:	b402      	push	{r1}
 800012e:	4671      	mov	r1, lr
 8000130:	0849      	lsrs	r1, r1, #1
 8000132:	0049      	lsls	r1, r1, #1
 8000134:	5609      	ldrsb	r1, [r1, r0]
 8000136:	0049      	lsls	r1, r1, #1
 8000138:	448e      	add	lr, r1
 800013a:	bc02      	pop	{r1}
 800013c:	4770      	bx	lr
 800013e:	46c0      	nop			@ (mov r8, r8)

08000140 <__gnu_thumb1_case_uqi>:
 8000140:	b402      	push	{r1}
 8000142:	4671      	mov	r1, lr
 8000144:	0849      	lsrs	r1, r1, #1
 8000146:	0049      	lsls	r1, r1, #1
 8000148:	5c09      	ldrb	r1, [r1, r0]
 800014a:	0049      	lsls	r1, r1, #1
 800014c:	448e      	add	lr, r1
 800014e:	bc02      	pop	{r1}
 8000150:	4770      	bx	lr
 8000152:	46c0      	nop			@ (mov r8, r8)

08000154 <__gnu_thumb1_case_shi>:
 8000154:	b403      	push	{r0, r1}
 8000156:	4671      	mov	r1, lr
 8000158:	0849      	lsrs	r1, r1, #1
 800015a:	0040      	lsls	r0, r0, #1
 800015c:	0049      	lsls	r1, r1, #1
 800015e:	5e09      	ldrsh	r1, [r1, r0]
 8000160:	0049      	lsls	r1, r1, #1
 8000162:	448e      	add	lr, r1
 8000164:	bc03      	pop	{r0, r1}
 8000166:	4770      	bx	lr

08000168 <__udivsi3>:
 8000168:	2200      	movs	r2, #0
 800016a:	0843      	lsrs	r3, r0, #1
 800016c:	428b      	cmp	r3, r1
 800016e:	d374      	bcc.n	800025a <__udivsi3+0xf2>
 8000170:	0903      	lsrs	r3, r0, #4
 8000172:	428b      	cmp	r3, r1
 8000174:	d35f      	bcc.n	8000236 <__udivsi3+0xce>
 8000176:	0a03      	lsrs	r3, r0, #8
 8000178:	428b      	cmp	r3, r1
 800017a:	d344      	bcc.n	8000206 <__udivsi3+0x9e>
 800017c:	0b03      	lsrs	r3, r0, #12
 800017e:	428b      	cmp	r3, r1
 8000180:	d328      	bcc.n	80001d4 <__udivsi3+0x6c>
 8000182:	0c03      	lsrs	r3, r0, #16
 8000184:	428b      	cmp	r3, r1
 8000186:	d30d      	bcc.n	80001a4 <__udivsi3+0x3c>
 8000188:	22ff      	movs	r2, #255	@ 0xff
 800018a:	0209      	lsls	r1, r1, #8
 800018c:	ba12      	rev	r2, r2
 800018e:	0c03      	lsrs	r3, r0, #16
 8000190:	428b      	cmp	r3, r1
 8000192:	d302      	bcc.n	800019a <__udivsi3+0x32>
 8000194:	1212      	asrs	r2, r2, #8
 8000196:	0209      	lsls	r1, r1, #8
 8000198:	d065      	beq.n	8000266 <__udivsi3+0xfe>
 800019a:	0b03      	lsrs	r3, r0, #12
 800019c:	428b      	cmp	r3, r1
 800019e:	d319      	bcc.n	80001d4 <__udivsi3+0x6c>
 80001a0:	e000      	b.n	80001a4 <__udivsi3+0x3c>
 80001a2:	0a09      	lsrs	r1, r1, #8
 80001a4:	0bc3      	lsrs	r3, r0, #15
 80001a6:	428b      	cmp	r3, r1
 80001a8:	d301      	bcc.n	80001ae <__udivsi3+0x46>
 80001aa:	03cb      	lsls	r3, r1, #15
 80001ac:	1ac0      	subs	r0, r0, r3
 80001ae:	4152      	adcs	r2, r2
 80001b0:	0b83      	lsrs	r3, r0, #14
 80001b2:	428b      	cmp	r3, r1
 80001b4:	d301      	bcc.n	80001ba <__udivsi3+0x52>
 80001b6:	038b      	lsls	r3, r1, #14
 80001b8:	1ac0      	subs	r0, r0, r3
 80001ba:	4152      	adcs	r2, r2
 80001bc:	0b43      	lsrs	r3, r0, #13
 80001be:	428b      	cmp	r3, r1
 80001c0:	d301      	bcc.n	80001c6 <__udivsi3+0x5e>
 80001c2:	034b      	lsls	r3, r1, #13
 80001c4:	1ac0      	subs	r0, r0, r3
 80001c6:	4152      	adcs	r2, r2
 80001c8:	0b03      	lsrs	r3, r0, #12
 80001ca:	428b      	cmp	r3, r1
 80001cc:	d301      	bcc.n	80001d2 <__udivsi3+0x6a>
 80001ce:	030b      	lsls	r3, r1, #12
 80001d0:	1ac0      	subs	r0, r0, r3
 80001d2:	4152      	adcs	r2, r2
 80001d4:	0ac3      	lsrs	r3, r0, #11
 80001d6:	428b      	cmp	r3, r1
 80001d8:	d301      	bcc.n	80001de <__udivsi3+0x76>
 80001da:	02cb      	lsls	r3, r1, #11
 80001dc:	1ac0      	subs	r0, r0, r3
 80001de:	4152      	adcs	r2, r2
 80001e0:	0a83      	lsrs	r3, r0, #10
 80001e2:	428b      	cmp	r3, r1
 80001e4:	d301      	bcc.n	80001ea <__udivsi3+0x82>
 80001e6:	028b      	lsls	r3, r1, #10
 80001e8:	1ac0      	subs	r0, r0, r3
 80001ea:	4152      	adcs	r2, r2
 80001ec:	0a43      	lsrs	r3, r0, #9
 80001ee:	428b      	cmp	r3, r1
 80001f0:	d301      	bcc.n	80001f6 <__udivsi3+0x8e>
 80001f2:	024b      	lsls	r3, r1, #9
 80001f4:	1ac0      	subs	r0, r0, r3
 80001f6:	4152      	adcs	r2, r2
 80001f8:	0a03      	lsrs	r3, r0, #8
 80001fa:	428b      	cmp	r3, r1
 80001fc:	d301      	bcc.n	8000202 <__udivsi3+0x9a>
 80001fe:	020b      	lsls	r3, r1, #8
 8000200:	1ac0      	subs	r0, r0, r3
 8000202:	4152      	adcs	r2, r2
 8000204:	d2cd      	bcs.n	80001a2 <__udivsi3+0x3a>
 8000206:	09c3      	lsrs	r3, r0, #7
 8000208:	428b      	cmp	r3, r1
 800020a:	d301      	bcc.n	8000210 <__udivsi3+0xa8>
 800020c:	01cb      	lsls	r3, r1, #7
 800020e:	1ac0      	subs	r0, r0, r3
 8000210:	4152      	adcs	r2, r2
 8000212:	0983      	lsrs	r3, r0, #6
 8000214:	428b      	cmp	r3, r1
 8000216:	d301      	bcc.n	800021c <__udivsi3+0xb4>
 8000218:	018b      	lsls	r3, r1, #6
 800021a:	1ac0      	subs	r0, r0, r3
 800021c:	4152      	adcs	r2, r2
 800021e:	0943      	lsrs	r3, r0, #5
 8000220:	428b      	cmp	r3, r1
 8000222:	d301      	bcc.n	8000228 <__udivsi3+0xc0>
 8000224:	014b      	lsls	r3, r1, #5
 8000226:	1ac0      	subs	r0, r0, r3
 8000228:	4152      	adcs	r2, r2
 800022a:	0903      	lsrs	r3, r0, #4
 800022c:	428b      	cmp	r3, r1
 800022e:	d301      	bcc.n	8000234 <__udivsi3+0xcc>
 8000230:	010b      	lsls	r3, r1, #4
 8000232:	1ac0      	subs	r0, r0, r3
 8000234:	4152      	adcs	r2, r2
 8000236:	08c3      	lsrs	r3, r0, #3
 8000238:	428b      	cmp	r3, r1
 800023a:	d301      	bcc.n	8000240 <__udivsi3+0xd8>
 800023c:	00cb      	lsls	r3, r1, #3
 800023e:	1ac0      	subs	r0, r0, r3
 8000240:	4152      	adcs	r2, r2
 8000242:	0883      	lsrs	r3, r0, #2
 8000244:	428b      	cmp	r3, r1
 8000246:	d301      	bcc.n	800024c <__udivsi3+0xe4>
 8000248:	008b      	lsls	r3, r1, #2
 800024a:	1ac0      	subs	r0, r0, r3
 800024c:	4152      	adcs	r2, r2
 800024e:	0843      	lsrs	r3, r0, #1
 8000250:	428b      	cmp	r3, r1
 8000252:	d301      	bcc.n	8000258 <__udivsi3+0xf0>
 8000254:	004b      	lsls	r3, r1, #1
 8000256:	1ac0      	subs	r0, r0, r3
 8000258:	4152      	adcs	r2, r2
 800025a:	1a41      	subs	r1, r0, r1
 800025c:	d200      	bcs.n	8000260 <__udivsi3+0xf8>
 800025e:	4601      	mov	r1, r0
 8000260:	4152      	adcs	r2, r2
 8000262:	4610      	mov	r0, r2
 8000264:	4770      	bx	lr
 8000266:	e7ff      	b.n	8000268 <__udivsi3+0x100>
 8000268:	b501      	push	{r0, lr}
 800026a:	2000      	movs	r0, #0
 800026c:	f000 f806 	bl	800027c <__aeabi_idiv0>
 8000270:	bd02      	pop	{r1, pc}
 8000272:	46c0      	nop			@ (mov r8, r8)

08000274 <__aeabi_uidivmod>:
 8000274:	2900      	cmp	r1, #0
 8000276:	d0f7      	beq.n	8000268 <__udivsi3+0x100>
 8000278:	e776      	b.n	8000168 <__udivsi3>
 800027a:	4770      	bx	lr

0800027c <__aeabi_idiv0>:
 800027c:	4770      	bx	lr
 800027e:	46c0      	nop			@ (mov r8, r8)

08000280 <sendAck>:
 8000280:	b537      	push	{r0, r1, r2, r4, r5, lr}
 8000282:	0005      	movs	r5, r0
 8000284:	2206      	movs	r2, #6
 8000286:	2100      	movs	r1, #0
 8000288:	4668      	mov	r0, sp
 800028a:	f003 ff57 	bl	800413c <memset>
 800028e:	0028      	movs	r0, r5
 8000290:	f7ff ff44 	bl	800011c <strlen>
 8000294:	0004      	movs	r4, r0
 8000296:	283f      	cmp	r0, #63	@ 0x3f
 8000298:	d900      	bls.n	800029c <sendAck+0x1c>
 800029a:	243f      	movs	r4, #63	@ 0x3f
 800029c:	0029      	movs	r1, r5
 800029e:	0022      	movs	r2, r4
 80002a0:	4668      	mov	r0, sp
 80002a2:	f003 ffa5 	bl	80041f0 <memcpy>
 80002a6:	4668      	mov	r0, sp
 80002a8:	b2a1      	uxth	r1, r4
 80002aa:	f003 fd11 	bl	8003cd0 <HID_SendData>
 80002ae:	bd37      	pop	{r0, r1, r2, r4, r5, pc}

080002b0 <getButtonIndexByName>:
 80002b0:	b570      	push	{r4, r5, r6, lr}
 80002b2:	0005      	movs	r5, r0
 80002b4:	2400      	movs	r4, #0
 80002b6:	4e07      	ldr	r6, [pc, #28]	@ (80002d4 <getButtonIndexByName+0x24>)
 80002b8:	00e3      	lsls	r3, r4, #3
 80002ba:	0028      	movs	r0, r5
 80002bc:	58f1      	ldr	r1, [r6, r3]
 80002be:	f7ff ff23 	bl	8000108 <strcmp>
 80002c2:	2800      	cmp	r0, #0
 80002c4:	d003      	beq.n	80002ce <getButtonIndexByName+0x1e>
 80002c6:	3401      	adds	r4, #1
 80002c8:	2c0d      	cmp	r4, #13
 80002ca:	d1f5      	bne.n	80002b8 <getButtonIndexByName+0x8>
 80002cc:	3c0e      	subs	r4, #14
 80002ce:	0020      	movs	r0, r4
 80002d0:	bd70      	pop	{r4, r5, r6, pc}
 80002d2:	46c0      	nop			@ (mov r8, r8)
 80002d4:	20000018 	.word	0x20000018

080002d8 <reverseBits>:
 80002d8:	0003      	movs	r3, r0
 80002da:	2233      	movs	r2, #51	@ 0x33
 80002dc:	011b      	lsls	r3, r3, #4
 80002de:	0900      	lsrs	r0, r0, #4
 80002e0:	4318      	orrs	r0, r3
 80002e2:	b243      	sxtb	r3, r0
 80002e4:	009b      	lsls	r3, r3, #2
 80002e6:	0880      	lsrs	r0, r0, #2
 80002e8:	4393      	bics	r3, r2
 80002ea:	4010      	ands	r0, r2
 80002ec:	4318      	orrs	r0, r3
 80002ee:	b243      	sxtb	r3, r0
 80002f0:	3222      	adds	r2, #34	@ 0x22
 80002f2:	0840      	lsrs	r0, r0, #1
 80002f4:	005b      	lsls	r3, r3, #1
 80002f6:	4010      	ands	r0, r2
 80002f8:	4393      	bics	r3, r2
 80002fa:	4318      	orrs	r0, r3
 80002fc:	b2c0      	uxtb	r0, r0
 80002fe:	4770      	bx	lr

08000300 <read165_LSBFIRST_phase>:
 8000300:	b570      	push	{r4, r5, r6, lr}
 8000302:	2400      	movs	r4, #0
 8000304:	2501      	movs	r5, #1
 8000306:	0026      	movs	r6, r4
 8000308:	0029      	movs	r1, r5
 800030a:	2200      	movs	r2, #0
 800030c:	480e      	ldr	r0, [pc, #56]	@ (8000348 <read165_LSBFIRST_phase+0x48>)
 800030e:	f000 fd85 	bl	8000e1c <HAL_GPIO_WritePin>
 8000312:	0028      	movs	r0, r5
 8000314:	f000 fc68 	bl	8000be8 <HAL_Delay>
 8000318:	2180      	movs	r1, #128	@ 0x80
 800031a:	2090      	movs	r0, #144	@ 0x90
 800031c:	00c9      	lsls	r1, r1, #3
 800031e:	05c0      	lsls	r0, r0, #23
 8000320:	f000 fd76 	bl	8000e10 <HAL_GPIO_ReadPin>
 8000324:	2801      	cmp	r0, #1
 8000326:	d102      	bne.n	800032e <read165_LSBFIRST_phase+0x2e>
 8000328:	40a0      	lsls	r0, r4
 800032a:	4306      	orrs	r6, r0
 800032c:	b2f6      	uxtb	r6, r6
 800032e:	002a      	movs	r2, r5
 8000330:	0029      	movs	r1, r5
 8000332:	4805      	ldr	r0, [pc, #20]	@ (8000348 <read165_LSBFIRST_phase+0x48>)
 8000334:	f000 fd72 	bl	8000e1c <HAL_GPIO_WritePin>
 8000338:	3401      	adds	r4, #1
 800033a:	0028      	movs	r0, r5
 800033c:	f000 fc54 	bl	8000be8 <HAL_Delay>
 8000340:	2c08      	cmp	r4, #8
 8000342:	d1e1      	bne.n	8000308 <read165_LSBFIRST_phase+0x8>
 8000344:	0030      	movs	r0, r6
 8000346:	bd70      	pop	{r4, r5, r6, pc}
 8000348:	48000400 	.word	0x48000400

0800034c <sendCmd>:
 800034c:	b5f8      	push	{r3, r4, r5, r6, r7, lr}
 800034e:	273e      	movs	r7, #62	@ 0x3e
 8000350:	4d0a      	ldr	r5, [pc, #40]	@ (800037c <sendCmd+0x30>)
 8000352:	0006      	movs	r6, r0
 8000354:	003a      	movs	r2, r7
 8000356:	0028      	movs	r0, r5
 8000358:	2100      	movs	r1, #0
 800035a:	f003 feef 	bl	800413c <memset>
 800035e:	2330      	movs	r3, #48	@ 0x30
 8000360:	4c07      	ldr	r4, [pc, #28]	@ (8000380 <sendCmd+0x34>)
 8000362:	003a      	movs	r2, r7
 8000364:	0031      	movs	r1, r6
 8000366:	0028      	movs	r0, r5
 8000368:	7023      	strb	r3, [r4, #0]
 800036a:	3348      	adds	r3, #72	@ 0x48
 800036c:	7063      	strb	r3, [r4, #1]
 800036e:	f003 fefe 	bl	800416e <strncpy>
 8000372:	2140      	movs	r1, #64	@ 0x40
 8000374:	0020      	movs	r0, r4
 8000376:	f003 fcab 	bl	8003cd0 <HID_SendData>
 800037a:	bdf8      	pop	{r3, r4, r5, r6, r7, pc}
 800037c:	20000262 	.word	0x20000262
 8000380:	20000260 	.word	0x20000260

08000384 <startTone>:
 8000384:	b570      	push	{r4, r5, r6, lr}
 8000386:	000d      	movs	r5, r1
 8000388:	4c12      	ldr	r4, [pc, #72]	@ (80003d4 <startTone+0x50>)
 800038a:	2800      	cmp	r0, #0
 800038c:	d104      	bne.n	8000398 <startTone+0x14>
 800038e:	0001      	movs	r1, r0
 8000390:	0020      	movs	r0, r4
 8000392:	f002 fa85 	bl	80028a0 <HAL_TIM_PWM_Stop>
 8000396:	bd70      	pop	{r4, r5, r6, pc}
 8000398:	21fa      	movs	r1, #250	@ 0xfa
 800039a:	0089      	lsls	r1, r1, #2
 800039c:	4341      	muls	r1, r0
 800039e:	480e      	ldr	r0, [pc, #56]	@ (80003d8 <startTone+0x54>)
 80003a0:	f7ff fee2 	bl	8000168 <__udivsi3>
 80003a4:	6823      	ldr	r3, [r4, #0]
 80003a6:	4a0d      	ldr	r2, [pc, #52]	@ (80003dc <startTone+0x58>)
 80003a8:	3801      	subs	r0, #1
 80003aa:	6298      	str	r0, [r3, #40]	@ 0x28
 80003ac:	60e2      	str	r2, [r4, #12]
 80003ae:	62da      	str	r2, [r3, #44]	@ 0x2c
 80003b0:	3af4      	subs	r2, #244	@ 0xf4
 80003b2:	3aff      	subs	r2, #255	@ 0xff
 80003b4:	635a      	str	r2, [r3, #52]	@ 0x34
 80003b6:	2100      	movs	r1, #0
 80003b8:	0020      	movs	r0, r4
 80003ba:	f002 fa27 	bl	800280c <HAL_TIM_PWM_Start>
 80003be:	f000 fc0d 	bl	8000bdc <HAL_GetTick>
 80003c2:	2201      	movs	r2, #1
 80003c4:	4b06      	ldr	r3, [pc, #24]	@ (80003e0 <startTone+0x5c>)
 80003c6:	6018      	str	r0, [r3, #0]
 80003c8:	4b06      	ldr	r3, [pc, #24]	@ (80003e4 <startTone+0x60>)
 80003ca:	601d      	str	r5, [r3, #0]
 80003cc:	4b06      	ldr	r3, [pc, #24]	@ (80003e8 <startTone+0x64>)
 80003ce:	701a      	strb	r2, [r3, #0]
 80003d0:	e7e1      	b.n	8000396 <startTone+0x12>
 80003d2:	46c0      	nop			@ (mov r8, r8)
 80003d4:	200002a0 	.word	0x200002a0
 80003d8:	02dc6c00 	.word	0x02dc6c00
 80003dc:	000003e7 	.word	0x000003e7
 80003e0:	20000258 	.word	0x20000258
 80003e4:	20000254 	.word	0x20000254
 80003e8:	20000250 	.word	0x20000250

080003ec <stopTone>:
 80003ec:	b510      	push	{r4, lr}
 80003ee:	2100      	movs	r1, #0
 80003f0:	4803      	ldr	r0, [pc, #12]	@ (8000400 <stopTone+0x14>)
 80003f2:	f002 fa55 	bl	80028a0 <HAL_TIM_PWM_Stop>
 80003f6:	2200      	movs	r2, #0
 80003f8:	4b02      	ldr	r3, [pc, #8]	@ (8000404 <stopTone+0x18>)
 80003fa:	701a      	strb	r2, [r3, #0]
 80003fc:	bd10      	pop	{r4, pc}
 80003fe:	46c0      	nop			@ (mov r8, r8)
 8000400:	200002a0 	.word	0x200002a0
 8000404:	20000250 	.word	0x20000250

08000408 <startBeep>:
 8000408:	0001      	movs	r1, r0
 800040a:	20fa      	movs	r0, #250	@ 0xfa
 800040c:	b510      	push	{r4, lr}
 800040e:	0100      	lsls	r0, r0, #4
 8000410:	f7ff ffb8 	bl	8000384 <startTone>
 8000414:	bd10      	pop	{r4, pc}
	...

08000418 <handleBeep>:
 8000418:	b510      	push	{r4, lr}
 800041a:	4b08      	ldr	r3, [pc, #32]	@ (800043c <handleBeep+0x24>)
 800041c:	781b      	ldrb	r3, [r3, #0]
 800041e:	2b00      	cmp	r3, #0
 8000420:	d00a      	beq.n	8000438 <handleBeep+0x20>
 8000422:	f000 fbdb 	bl	8000bdc <HAL_GetTick>
 8000426:	4b06      	ldr	r3, [pc, #24]	@ (8000440 <handleBeep+0x28>)
 8000428:	681b      	ldr	r3, [r3, #0]
 800042a:	1ac0      	subs	r0, r0, r3
 800042c:	4b05      	ldr	r3, [pc, #20]	@ (8000444 <handleBeep+0x2c>)
 800042e:	681b      	ldr	r3, [r3, #0]
 8000430:	4298      	cmp	r0, r3
 8000432:	d301      	bcc.n	8000438 <handleBeep+0x20>
 8000434:	f7ff ffda 	bl	80003ec <stopTone>
 8000438:	bd10      	pop	{r4, pc}
 800043a:	46c0      	nop			@ (mov r8, r8)
 800043c:	20000250 	.word	0x20000250
 8000440:	20000258 	.word	0x20000258
 8000444:	20000254 	.word	0x20000254

08000448 <processButton>:
 8000448:	b5f0      	push	{r4, r5, r6, r7, lr}
 800044a:	4d1a      	ldr	r5, [pc, #104]	@ (80004b4 <processButton+0x6c>)
 800044c:	00c6      	lsls	r6, r0, #3
 800044e:	19af      	adds	r7, r5, r6
 8000450:	793a      	ldrb	r2, [r7, #4]
 8000452:	000c      	movs	r4, r1
 8000454:	797b      	ldrb	r3, [r7, #5]
 8000456:	b085      	sub	sp, #20
 8000458:	2a00      	cmp	r2, #0
 800045a:	d111      	bne.n	8000480 <processButton+0x38>
 800045c:	428b      	cmp	r3, r1
 800045e:	d00d      	beq.n	800047c <processButton+0x34>
 8000460:	000b      	movs	r3, r1
 8000462:	1e59      	subs	r1, r3, #1
 8000464:	418b      	sbcs	r3, r1
 8000466:	9300      	str	r3, [sp, #0]
 8000468:	2108      	movs	r1, #8
 800046a:	4a13      	ldr	r2, [pc, #76]	@ (80004b8 <processButton+0x70>)
 800046c:	5973      	ldr	r3, [r6, r5]
 800046e:	a802      	add	r0, sp, #8
 8000470:	f003 fe02 	bl	8004078 <sniprintf>
 8000474:	a802      	add	r0, sp, #8
 8000476:	f7ff ff69 	bl	800034c <sendCmd>
 800047a:	717c      	strb	r4, [r7, #5]
 800047c:	b005      	add	sp, #20
 800047e:	bdf0      	pop	{r4, r5, r6, r7, pc}
 8000480:	2b00      	cmp	r3, #0
 8000482:	d113      	bne.n	80004ac <processButton+0x64>
 8000484:	2900      	cmp	r1, #0
 8000486:	d011      	beq.n	80004ac <processButton+0x64>
 8000488:	79bb      	ldrb	r3, [r7, #6]
 800048a:	2108      	movs	r1, #8
 800048c:	425a      	negs	r2, r3
 800048e:	4153      	adcs	r3, r2
 8000490:	b2db      	uxtb	r3, r3
 8000492:	71bb      	strb	r3, [r7, #6]
 8000494:	9300      	str	r3, [sp, #0]
 8000496:	4a08      	ldr	r2, [pc, #32]	@ (80004b8 <processButton+0x70>)
 8000498:	5973      	ldr	r3, [r6, r5]
 800049a:	a802      	add	r0, sp, #8
 800049c:	f003 fdec 	bl	8004078 <sniprintf>
 80004a0:	a802      	add	r0, sp, #8
 80004a2:	f7ff ff53 	bl	800034c <sendCmd>
 80004a6:	2064      	movs	r0, #100	@ 0x64
 80004a8:	f7ff ffae 	bl	8000408 <startBeep>
 80004ac:	19ad      	adds	r5, r5, r6
 80004ae:	716c      	strb	r4, [r5, #5]
 80004b0:	e7e4      	b.n	800047c <processButton+0x34>
 80004b2:	46c0      	nop			@ (mov r8, r8)
 80004b4:	20000018 	.word	0x20000018
 80004b8:	080053fc 	.word	0x080053fc

080004bc <processCombo>:
 80004bc:	b530      	push	{r4, r5, lr}
 80004be:	4d1b      	ldr	r5, [pc, #108]	@ (800052c <processCombo+0x70>)
 80004c0:	0004      	movs	r4, r0
 80004c2:	7c2a      	ldrb	r2, [r5, #16]
 80004c4:	7c6b      	ldrb	r3, [r5, #17]
 80004c6:	b085      	sub	sp, #20
 80004c8:	2a00      	cmp	r2, #0
 80004ca:	d11c      	bne.n	8000506 <processCombo+0x4a>
 80004cc:	4298      	cmp	r0, r3
 80004ce:	d018      	beq.n	8000502 <processCombo+0x46>
 80004d0:	2bff      	cmp	r3, #255	@ 0xff
 80004d2:	d009      	beq.n	80004e8 <processCombo+0x2c>
 80004d4:	009b      	lsls	r3, r3, #2
 80004d6:	2108      	movs	r1, #8
 80004d8:	4a15      	ldr	r2, [pc, #84]	@ (8000530 <processCombo+0x74>)
 80004da:	595b      	ldr	r3, [r3, r5]
 80004dc:	a802      	add	r0, sp, #8
 80004de:	f003 fdcb 	bl	8004078 <sniprintf>
 80004e2:	a802      	add	r0, sp, #8
 80004e4:	f7ff ff32 	bl	800034c <sendCmd>
 80004e8:	2cff      	cmp	r4, #255	@ 0xff
 80004ea:	d009      	beq.n	8000500 <processCombo+0x44>
 80004ec:	00a3      	lsls	r3, r4, #2
 80004ee:	2108      	movs	r1, #8
 80004f0:	4a10      	ldr	r2, [pc, #64]	@ (8000534 <processCombo+0x78>)
 80004f2:	58eb      	ldr	r3, [r5, r3]
 80004f4:	a802      	add	r0, sp, #8
 80004f6:	f003 fdbf 	bl	8004078 <sniprintf>
 80004fa:	a802      	add	r0, sp, #8
 80004fc:	f7ff ff26 	bl	800034c <sendCmd>
 8000500:	746c      	strb	r4, [r5, #17]
 8000502:	b005      	add	sp, #20
 8000504:	bd30      	pop	{r4, r5, pc}
 8000506:	4298      	cmp	r0, r3
 8000508:	d0fb      	beq.n	8000502 <processCombo+0x46>
 800050a:	28ff      	cmp	r0, #255	@ 0xff
 800050c:	d0f9      	beq.n	8000502 <processCombo+0x46>
 800050e:	182a      	adds	r2, r5, r0
 8000510:	7c93      	ldrb	r3, [r2, #18]
 8000512:	4259      	negs	r1, r3
 8000514:	414b      	adcs	r3, r1
 8000516:	b2db      	uxtb	r3, r3
 8000518:	7493      	strb	r3, [r2, #18]
 800051a:	0081      	lsls	r1, r0, #2
 800051c:	9300      	str	r3, [sp, #0]
 800051e:	594b      	ldr	r3, [r1, r5]
 8000520:	4a05      	ldr	r2, [pc, #20]	@ (8000538 <processCombo+0x7c>)
 8000522:	2108      	movs	r1, #8
 8000524:	a802      	add	r0, sp, #8
 8000526:	f003 fda7 	bl	8004078 <sniprintf>
 800052a:	e7e6      	b.n	80004fa <processCombo+0x3e>
 800052c:	20000000 	.word	0x20000000
 8000530:	08005401 	.word	0x08005401
 8000534:	08005405 	.word	0x08005405
 8000538:	080053fc 	.word	0x080053fc

0800053c <SystemClock_Config>:
 800053c:	b510      	push	{r4, lr}
 800053e:	b098      	sub	sp, #96	@ 0x60
 8000540:	2230      	movs	r2, #48	@ 0x30
 8000542:	2100      	movs	r1, #0
 8000544:	a80c      	add	r0, sp, #48	@ 0x30
 8000546:	f003 fdf9 	bl	800413c <memset>
 800054a:	2210      	movs	r2, #16
 800054c:	2100      	movs	r1, #0
 800054e:	a801      	add	r0, sp, #4
 8000550:	f003 fdf4 	bl	800413c <memset>
 8000554:	2218      	movs	r2, #24
 8000556:	2100      	movs	r1, #0
 8000558:	a805      	add	r0, sp, #20
 800055a:	f003 fdef 	bl	800413c <memset>
 800055e:	2401      	movs	r4, #1
 8000560:	2320      	movs	r3, #32
 8000562:	a80b      	add	r0, sp, #44	@ 0x2c
 8000564:	930b      	str	r3, [sp, #44]	@ 0x2c
 8000566:	9413      	str	r4, [sp, #76]	@ 0x4c
 8000568:	f001 fac2 	bl	8001af0 <HAL_RCC_OscConfig>
 800056c:	2800      	cmp	r0, #0
 800056e:	d001      	beq.n	8000574 <SystemClock_Config+0x38>
 8000570:	b672      	cpsid	i
 8000572:	e7fe      	b.n	8000572 <SystemClock_Config+0x36>
 8000574:	2307      	movs	r3, #7
 8000576:	9003      	str	r0, [sp, #12]
 8000578:	9301      	str	r3, [sp, #4]
 800057a:	9004      	str	r0, [sp, #16]
 800057c:	3b04      	subs	r3, #4
 800057e:	0021      	movs	r1, r4
 8000580:	a801      	add	r0, sp, #4
 8000582:	9302      	str	r3, [sp, #8]
 8000584:	f001 fd3a 	bl	8001ffc <HAL_RCC_ClockConfig>
 8000588:	2800      	cmp	r0, #0
 800058a:	d001      	beq.n	8000590 <SystemClock_Config+0x54>
 800058c:	b672      	cpsid	i
 800058e:	e7fe      	b.n	800058e <SystemClock_Config+0x52>
 8000590:	2380      	movs	r3, #128	@ 0x80
 8000592:	900a      	str	r0, [sp, #40]	@ 0x28
 8000594:	029b      	lsls	r3, r3, #10
 8000596:	a805      	add	r0, sp, #20
 8000598:	9305      	str	r3, [sp, #20]
 800059a:	f001 fdb9 	bl	8002110 <HAL_RCCEx_PeriphCLKConfig>
 800059e:	2800      	cmp	r0, #0
 80005a0:	d001      	beq.n	80005a6 <SystemClock_Config+0x6a>
 80005a2:	b672      	cpsid	i
 80005a4:	e7fe      	b.n	80005a4 <SystemClock_Config+0x68>
 80005a6:	b018      	add	sp, #96	@ 0x60
 80005a8:	bd10      	pop	{r4, pc}
	...

080005ac <main>:
 80005ac:	b5f0      	push	{r4, r5, r6, r7, lr}
 80005ae:	b09b      	sub	sp, #108	@ 0x6c
 80005b0:	f000 faf8 	bl	8000ba4 <HAL_Init>
 80005b4:	f7ff ffc2 	bl	800053c <SystemClock_Config>
 80005b8:	2214      	movs	r2, #20
 80005ba:	2100      	movs	r1, #0
 80005bc:	a813      	add	r0, sp, #76	@ 0x4c
 80005be:	f003 fdbd 	bl	800413c <memset>
 80005c2:	2180      	movs	r1, #128	@ 0x80
 80005c4:	4bda      	ldr	r3, [pc, #872]	@ (8000930 <main+0x384>)
 80005c6:	0289      	lsls	r1, r1, #10
 80005c8:	695a      	ldr	r2, [r3, #20]
 80005ca:	48da      	ldr	r0, [pc, #872]	@ (8000934 <main+0x388>)
 80005cc:	430a      	orrs	r2, r1
 80005ce:	615a      	str	r2, [r3, #20]
 80005d0:	695a      	ldr	r2, [r3, #20]
 80005d2:	2500      	movs	r5, #0
 80005d4:	400a      	ands	r2, r1
 80005d6:	2180      	movs	r1, #128	@ 0x80
 80005d8:	9205      	str	r2, [sp, #20]
 80005da:	9a05      	ldr	r2, [sp, #20]
 80005dc:	695a      	ldr	r2, [r3, #20]
 80005de:	02c9      	lsls	r1, r1, #11
 80005e0:	430a      	orrs	r2, r1
 80005e2:	615a      	str	r2, [r3, #20]
 80005e4:	695b      	ldr	r3, [r3, #20]
 80005e6:	2200      	movs	r2, #0
 80005e8:	400b      	ands	r3, r1
 80005ea:	9306      	str	r3, [sp, #24]
 80005ec:	210b      	movs	r1, #11
 80005ee:	9b06      	ldr	r3, [sp, #24]
 80005f0:	f000 fc14 	bl	8000e1c <HAL_GPIO_WritePin>
 80005f4:	230b      	movs	r3, #11
 80005f6:	48cf      	ldr	r0, [pc, #828]	@ (8000934 <main+0x388>)
 80005f8:	9313      	str	r3, [sp, #76]	@ 0x4c
 80005fa:	a913      	add	r1, sp, #76	@ 0x4c
 80005fc:	3b0a      	subs	r3, #10
 80005fe:	9314      	str	r3, [sp, #80]	@ 0x50
 8000600:	9515      	str	r5, [sp, #84]	@ 0x54
 8000602:	9516      	str	r5, [sp, #88]	@ 0x58
 8000604:	f000 fb52 	bl	8000cac <HAL_GPIO_Init>
 8000608:	2380      	movs	r3, #128	@ 0x80
 800060a:	2090      	movs	r0, #144	@ 0x90
 800060c:	00db      	lsls	r3, r3, #3
 800060e:	a913      	add	r1, sp, #76	@ 0x4c
 8000610:	05c0      	lsls	r0, r0, #23
 8000612:	9313      	str	r3, [sp, #76]	@ 0x4c
 8000614:	9514      	str	r5, [sp, #80]	@ 0x50
 8000616:	9515      	str	r5, [sp, #84]	@ 0x54
 8000618:	f000 fb48 	bl	8000cac <HAL_GPIO_Init>
 800061c:	2210      	movs	r2, #16
 800061e:	0029      	movs	r1, r5
 8000620:	a80f      	add	r0, sp, #60	@ 0x3c
 8000622:	f003 fd8b 	bl	800413c <memset>
 8000626:	2208      	movs	r2, #8
 8000628:	0029      	movs	r1, r5
 800062a:	a80d      	add	r0, sp, #52	@ 0x34
 800062c:	f003 fd86 	bl	800413c <memset>
 8000630:	221c      	movs	r2, #28
 8000632:	0029      	movs	r1, r5
 8000634:	a813      	add	r0, sp, #76	@ 0x4c
 8000636:	f003 fd81 	bl	800413c <memset>
 800063a:	2380      	movs	r3, #128	@ 0x80
 800063c:	4cbe      	ldr	r4, [pc, #760]	@ (8000938 <main+0x38c>)
 800063e:	05db      	lsls	r3, r3, #23
 8000640:	6023      	str	r3, [r4, #0]
 8000642:	2301      	movs	r3, #1
 8000644:	0020      	movs	r0, r4
 8000646:	425b      	negs	r3, r3
 8000648:	6065      	str	r5, [r4, #4]
 800064a:	60a5      	str	r5, [r4, #8]
 800064c:	60e3      	str	r3, [r4, #12]
 800064e:	6125      	str	r5, [r4, #16]
 8000650:	61a5      	str	r5, [r4, #24]
 8000652:	f001 fee5 	bl	8002420 <HAL_TIM_Base_Init>
 8000656:	42a8      	cmp	r0, r5
 8000658:	d001      	beq.n	800065e <main+0xb2>
 800065a:	b672      	cpsid	i
 800065c:	e7fe      	b.n	800065c <main+0xb0>
 800065e:	2380      	movs	r3, #128	@ 0x80
 8000660:	0020      	movs	r0, r4
 8000662:	015b      	lsls	r3, r3, #5
 8000664:	a90f      	add	r1, sp, #60	@ 0x3c
 8000666:	930f      	str	r3, [sp, #60]	@ 0x3c
 8000668:	f001 ffd2 	bl	8002610 <HAL_TIM_ConfigClockSource>
 800066c:	2800      	cmp	r0, #0
 800066e:	d001      	beq.n	8000674 <main+0xc8>
 8000670:	b672      	cpsid	i
 8000672:	e7fe      	b.n	8000672 <main+0xc6>
 8000674:	0020      	movs	r0, r4
 8000676:	f001 fefb 	bl	8002470 <HAL_TIM_PWM_Init>
 800067a:	2800      	cmp	r0, #0
 800067c:	d001      	beq.n	8000682 <main+0xd6>
 800067e:	b672      	cpsid	i
 8000680:	e7fe      	b.n	8000680 <main+0xd4>
 8000682:	900d      	str	r0, [sp, #52]	@ 0x34
 8000684:	900e      	str	r0, [sp, #56]	@ 0x38
 8000686:	a90d      	add	r1, sp, #52	@ 0x34
 8000688:	0020      	movs	r0, r4
 800068a:	f002 f90d 	bl	80028a8 <HAL_TIMEx_MasterConfigSynchronization>
 800068e:	1e02      	subs	r2, r0, #0
 8000690:	d001      	beq.n	8000696 <main+0xea>
 8000692:	b672      	cpsid	i
 8000694:	e7fe      	b.n	8000694 <main+0xe8>
 8000696:	2360      	movs	r3, #96	@ 0x60
 8000698:	9014      	str	r0, [sp, #80]	@ 0x50
 800069a:	9015      	str	r0, [sp, #84]	@ 0x54
 800069c:	9017      	str	r0, [sp, #92]	@ 0x5c
 800069e:	a913      	add	r1, sp, #76	@ 0x4c
 80006a0:	0020      	movs	r0, r4
 80006a2:	9313      	str	r3, [sp, #76]	@ 0x4c
 80006a4:	f001 ff48 	bl	8002538 <HAL_TIM_PWM_ConfigChannel>
 80006a8:	1e05      	subs	r5, r0, #0
 80006aa:	d001      	beq.n	80006b0 <main+0x104>
 80006ac:	b672      	cpsid	i
 80006ae:	e7fe      	b.n	80006ae <main+0x102>
 80006b0:	0020      	movs	r0, r4
 80006b2:	f000 f9b9 	bl	8000a28 <HAL_TIM_MspPostInit>
 80006b6:	f003 fac7 	bl	8003c48 <MX_USB_DEVICE_Init>
 80006ba:	2217      	movs	r2, #23
 80006bc:	499f      	ldr	r1, [pc, #636]	@ (800093c <main+0x390>)
 80006be:	a813      	add	r0, sp, #76	@ 0x4c
 80006c0:	f003 fd96 	bl	80041f0 <memcpy>
 80006c4:	20fa      	movs	r0, #250	@ 0xfa
 80006c6:	0080      	lsls	r0, r0, #2
 80006c8:	f000 fa8e 	bl	8000be8 <HAL_Delay>
 80006cc:	a813      	add	r0, sp, #76	@ 0x4c
 80006ce:	f7ff fd25 	bl	800011c <strlen>
 80006d2:	b281      	uxth	r1, r0
 80006d4:	a813      	add	r0, sp, #76	@ 0x4c
 80006d6:	f003 fafb 	bl	8003cd0 <HID_SendData>
 80006da:	4b99      	ldr	r3, [pc, #612]	@ (8000940 <main+0x394>)
 80006dc:	555d      	strb	r5, [r3, r5]
 80006de:	3501      	adds	r5, #1
 80006e0:	2d40      	cmp	r5, #64	@ 0x40
 80006e2:	d1fb      	bne.n	80006dc <main+0x130>
 80006e4:	2201      	movs	r2, #1
 80006e6:	2102      	movs	r1, #2
 80006e8:	4892      	ldr	r0, [pc, #584]	@ (8000934 <main+0x388>)
 80006ea:	f000 fb97 	bl	8000e1c <HAL_GPIO_WritePin>
 80006ee:	2200      	movs	r2, #0
 80006f0:	2101      	movs	r1, #1
 80006f2:	4890      	ldr	r0, [pc, #576]	@ (8000934 <main+0x388>)
 80006f4:	f000 fb92 	bl	8000e1c <HAL_GPIO_WritePin>
 80006f8:	2201      	movs	r2, #1
 80006fa:	2108      	movs	r1, #8
 80006fc:	488d      	ldr	r0, [pc, #564]	@ (8000934 <main+0x388>)
 80006fe:	f000 fb8d 	bl	8000e1c <HAL_GPIO_WritePin>
 8000702:	2401      	movs	r4, #1
 8000704:	f003 fb1a 	bl	8003d3c <HID_IsDataReceived>
 8000708:	2800      	cmp	r0, #0
 800070a:	d065      	beq.n	80007d8 <main+0x22c>
 800070c:	2206      	movs	r2, #6
 800070e:	2100      	movs	r1, #0
 8000710:	a807      	add	r0, sp, #28
 8000712:	f003 fd13 	bl	800413c <memset>
 8000716:	2300      	movs	r3, #0
 8000718:	466a      	mov	r2, sp
 800071a:	81d3      	strh	r3, [r2, #14]
 800071c:	330e      	adds	r3, #14
 800071e:	446b      	add	r3, sp
 8000720:	0019      	movs	r1, r3
 8000722:	a807      	add	r0, sp, #28
 8000724:	f003 faf4 	bl	8003d10 <HID_ReceiveData>
 8000728:	2800      	cmp	r0, #0
 800072a:	d055      	beq.n	80007d8 <main+0x22c>
 800072c:	466b      	mov	r3, sp
 800072e:	89db      	ldrh	r3, [r3, #14]
 8000730:	1c1f      	adds	r7, r3, #0
 8000732:	2b3f      	cmp	r3, #63	@ 0x3f
 8000734:	d900      	bls.n	8000738 <main+0x18c>
 8000736:	273f      	movs	r7, #63	@ 0x3f
 8000738:	2600      	movs	r6, #0
 800073a:	ad09      	add	r5, sp, #36	@ 0x24
 800073c:	b2bf      	uxth	r7, r7
 800073e:	a907      	add	r1, sp, #28
 8000740:	003a      	movs	r2, r7
 8000742:	0028      	movs	r0, r5
 8000744:	f003 fd54 	bl	80041f0 <memcpy>
 8000748:	0028      	movs	r0, r5
 800074a:	55ee      	strb	r6, [r5, r7]
 800074c:	f7ff fce6 	bl	800011c <strlen>
 8000750:	497c      	ldr	r1, [pc, #496]	@ (8000944 <main+0x398>)
 8000752:	3801      	subs	r0, #1
 8000754:	182b      	adds	r3, r5, r0
 8000756:	1c42      	adds	r2, r0, #1
 8000758:	d000      	beq.n	800075c <main+0x1b0>
 800075a:	e0b3      	b.n	80008c4 <main+0x318>
 800075c:	2207      	movs	r2, #7
 800075e:	2100      	movs	r1, #0
 8000760:	a80b      	add	r0, sp, #44	@ 0x2c
 8000762:	f003 fceb 	bl	800413c <memset>
 8000766:	2207      	movs	r2, #7
 8000768:	2100      	movs	r1, #0
 800076a:	a80d      	add	r0, sp, #52	@ 0x34
 800076c:	f003 fce6 	bl	800413c <memset>
 8000770:	2301      	movs	r3, #1
 8000772:	ae04      	add	r6, sp, #16
 8000774:	425b      	negs	r3, r3
 8000776:	9304      	str	r3, [sp, #16]
 8000778:	0028      	movs	r0, r5
 800077a:	4973      	ldr	r1, [pc, #460]	@ (8000948 <main+0x39c>)
 800077c:	9600      	str	r6, [sp, #0]
 800077e:	ab0d      	add	r3, sp, #52	@ 0x34
 8000780:	aa0b      	add	r2, sp, #44	@ 0x2c
 8000782:	f003 fcaf 	bl	80040e4 <siscanf>
 8000786:	2803      	cmp	r0, #3
 8000788:	d000      	beq.n	800078c <main+0x1e0>
 800078a:	e0ac      	b.n	80008e6 <main+0x33a>
 800078c:	496f      	ldr	r1, [pc, #444]	@ (800094c <main+0x3a0>)
 800078e:	a80b      	add	r0, sp, #44	@ 0x2c
 8000790:	f7ff fcba 	bl	8000108 <strcmp>
 8000794:	2800      	cmp	r0, #0
 8000796:	d000      	beq.n	800079a <main+0x1ee>
 8000798:	e0a5      	b.n	80008e6 <main+0x33a>
 800079a:	a80d      	add	r0, sp, #52	@ 0x34
 800079c:	f7ff fd88 	bl	80002b0 <getButtonIndexByName>
 80007a0:	280c      	cmp	r0, #12
 80007a2:	d900      	bls.n	80007a6 <main+0x1fa>
 80007a4:	e09b      	b.n	80008de <main+0x332>
 80007a6:	9a04      	ldr	r2, [sp, #16]
 80007a8:	2a01      	cmp	r2, #1
 80007aa:	d900      	bls.n	80007ae <main+0x202>
 80007ac:	e097      	b.n	80008de <main+0x332>
 80007ae:	4b68      	ldr	r3, [pc, #416]	@ (8000950 <main+0x3a4>)
 80007b0:	00c0      	lsls	r0, r0, #3
 80007b2:	181b      	adds	r3, r3, r0
 80007b4:	711a      	strb	r2, [r3, #4]
 80007b6:	4b67      	ldr	r3, [pc, #412]	@ (8000954 <main+0x3a8>)
 80007b8:	2a00      	cmp	r2, #0
 80007ba:	d100      	bne.n	80007be <main+0x212>
 80007bc:	4b66      	ldr	r3, [pc, #408]	@ (8000958 <main+0x3ac>)
 80007be:	2106      	movs	r1, #6
 80007c0:	4a66      	ldr	r2, [pc, #408]	@ (800095c <main+0x3b0>)
 80007c2:	9300      	str	r3, [sp, #0]
 80007c4:	a80f      	add	r0, sp, #60	@ 0x3c
 80007c6:	ab0d      	add	r3, sp, #52	@ 0x34
 80007c8:	f003 fc56 	bl	8004078 <sniprintf>
 80007cc:	a80f      	add	r0, sp, #60	@ 0x3c
 80007ce:	f7ff fd57 	bl	8000280 <sendAck>
 80007d2:	2078      	movs	r0, #120	@ 0x78
 80007d4:	f7ff fe18 	bl	8000408 <startBeep>
 80007d8:	f000 fa00 	bl	8000bdc <HAL_GetTick>
 80007dc:	4d60      	ldr	r5, [pc, #384]	@ (8000960 <main+0x3b4>)
 80007de:	682b      	ldr	r3, [r5, #0]
 80007e0:	1ac0      	subs	r0, r0, r3
 80007e2:	4b60      	ldr	r3, [pc, #384]	@ (8000964 <main+0x3b8>)
 80007e4:	4298      	cmp	r0, r3
 80007e6:	d90e      	bls.n	8000806 <main+0x25a>
 80007e8:	220a      	movs	r2, #10
 80007ea:	495f      	ldr	r1, [pc, #380]	@ (8000968 <main+0x3bc>)
 80007ec:	a80f      	add	r0, sp, #60	@ 0x3c
 80007ee:	f003 fcff 	bl	80041f0 <memcpy>
 80007f2:	a80f      	add	r0, sp, #60	@ 0x3c
 80007f4:	f7ff fc92 	bl	800011c <strlen>
 80007f8:	b281      	uxth	r1, r0
 80007fa:	a80f      	add	r0, sp, #60	@ 0x3c
 80007fc:	f003 fa68 	bl	8003cd0 <HID_SendData>
 8000800:	f000 f9ec 	bl	8000bdc <HAL_GetTick>
 8000804:	6028      	str	r0, [r5, #0]
 8000806:	0022      	movs	r2, r4
 8000808:	2108      	movs	r1, #8
 800080a:	484a      	ldr	r0, [pc, #296]	@ (8000934 <main+0x388>)
 800080c:	f000 fb06 	bl	8000e1c <HAL_GPIO_WritePin>
 8000810:	2200      	movs	r2, #0
 8000812:	2102      	movs	r1, #2
 8000814:	4847      	ldr	r0, [pc, #284]	@ (8000934 <main+0x388>)
 8000816:	f000 fb01 	bl	8000e1c <HAL_GPIO_WritePin>
 800081a:	0020      	movs	r0, r4
 800081c:	f000 f9e4 	bl	8000be8 <HAL_Delay>
 8000820:	0022      	movs	r2, r4
 8000822:	2102      	movs	r1, #2
 8000824:	4843      	ldr	r0, [pc, #268]	@ (8000934 <main+0x388>)
 8000826:	f000 faf9 	bl	8000e1c <HAL_GPIO_WritePin>
 800082a:	0020      	movs	r0, r4
 800082c:	f000 f9dc 	bl	8000be8 <HAL_Delay>
 8000830:	0022      	movs	r2, r4
 8000832:	0021      	movs	r1, r4
 8000834:	483f      	ldr	r0, [pc, #252]	@ (8000934 <main+0x388>)
 8000836:	f000 faf1 	bl	8000e1c <HAL_GPIO_WritePin>
 800083a:	2200      	movs	r2, #0
 800083c:	2108      	movs	r1, #8
 800083e:	483d      	ldr	r0, [pc, #244]	@ (8000934 <main+0x388>)
 8000840:	f000 faec 	bl	8000e1c <HAL_GPIO_WritePin>
 8000844:	f7ff fd5c 	bl	8000300 <read165_LSBFIRST_phase>
 8000848:	f7ff fd46 	bl	80002d8 <reverseBits>
 800084c:	267f      	movs	r6, #127	@ 0x7f
 800084e:	4006      	ands	r6, r0
 8000850:	f7ff fd56 	bl	8000300 <read165_LSBFIRST_phase>
 8000854:	f7ff fd40 	bl	80002d8 <reverseBits>
 8000858:	0022      	movs	r2, r4
 800085a:	2108      	movs	r1, #8
 800085c:	0007      	movs	r7, r0
 800085e:	4835      	ldr	r0, [pc, #212]	@ (8000934 <main+0x388>)
 8000860:	f000 fadc 	bl	8000e1c <HAL_GPIO_WritePin>
 8000864:	2200      	movs	r2, #0
 8000866:	0021      	movs	r1, r4
 8000868:	4832      	ldr	r0, [pc, #200]	@ (8000934 <main+0x388>)
 800086a:	f000 fad7 	bl	8000e1c <HAL_GPIO_WritePin>
 800086e:	2500      	movs	r5, #0
 8000870:	0039      	movs	r1, r7
 8000872:	4129      	asrs	r1, r5
 8000874:	0028      	movs	r0, r5
 8000876:	4021      	ands	r1, r4
 8000878:	3501      	adds	r5, #1
 800087a:	f7ff fde5 	bl	8000448 <processButton>
 800087e:	2d04      	cmp	r5, #4
 8000880:	d1f6      	bne.n	8000870 <main+0x2c4>
 8000882:	0039      	movs	r1, r7
 8000884:	4129      	asrs	r1, r5
 8000886:	0028      	movs	r0, r5
 8000888:	4021      	ands	r1, r4
 800088a:	3501      	adds	r5, #1
 800088c:	f7ff fddc 	bl	8000448 <processButton>
 8000890:	2d08      	cmp	r5, #8
 8000892:	d1f6      	bne.n	8000882 <main+0x2d6>
 8000894:	2500      	movs	r5, #0
 8000896:	0031      	movs	r1, r6
 8000898:	0028      	movs	r0, r5
 800089a:	4129      	asrs	r1, r5
 800089c:	3008      	adds	r0, #8
 800089e:	4021      	ands	r1, r4
 80008a0:	3501      	adds	r5, #1
 80008a2:	f7ff fdd1 	bl	8000448 <processButton>
 80008a6:	2d05      	cmp	r5, #5
 80008a8:	d1f5      	bne.n	8000896 <main+0x2ea>
 80008aa:	0970      	lsrs	r0, r6, #5
 80008ac:	09b6      	lsrs	r6, r6, #6
 80008ae:	4020      	ands	r0, r4
 80008b0:	0076      	lsls	r6, r6, #1
 80008b2:	4330      	orrs	r0, r6
 80008b4:	f7ff fe02 	bl	80004bc <processCombo>
 80008b8:	f7ff fdae 	bl	8000418 <handleBeep>
 80008bc:	2032      	movs	r0, #50	@ 0x32
 80008be:	f000 f993 	bl	8000be8 <HAL_Delay>
 80008c2:	e71f      	b.n	8000704 <main+0x158>
 80008c4:	781a      	ldrb	r2, [r3, #0]
 80008c6:	2a0d      	cmp	r2, #13
 80008c8:	d900      	bls.n	80008cc <main+0x320>
 80008ca:	e747      	b.n	800075c <main+0x1b0>
 80008cc:	000f      	movs	r7, r1
 80008ce:	40d7      	lsrs	r7, r2
 80008d0:	4227      	tst	r7, r4
 80008d2:	d100      	bne.n	80008d6 <main+0x32a>
 80008d4:	e742      	b.n	800075c <main+0x1b0>
 80008d6:	701e      	strb	r6, [r3, #0]
 80008d8:	3801      	subs	r0, #1
 80008da:	3b01      	subs	r3, #1
 80008dc:	e73b      	b.n	8000756 <main+0x1aa>
 80008de:	4823      	ldr	r0, [pc, #140]	@ (800096c <main+0x3c0>)
 80008e0:	f7ff fcce 	bl	8000280 <sendAck>
 80008e4:	e778      	b.n	80007d8 <main+0x22c>
 80008e6:	0033      	movs	r3, r6
 80008e8:	0028      	movs	r0, r5
 80008ea:	4921      	ldr	r1, [pc, #132]	@ (8000970 <main+0x3c4>)
 80008ec:	aa0d      	add	r2, sp, #52	@ 0x34
 80008ee:	f003 fbf9 	bl	80040e4 <siscanf>
 80008f2:	2802      	cmp	r0, #2
 80008f4:	d13e      	bne.n	8000974 <main+0x3c8>
 80008f6:	a80d      	add	r0, sp, #52	@ 0x34
 80008f8:	f7ff fcda 	bl	80002b0 <getButtonIndexByName>
 80008fc:	280c      	cmp	r0, #12
 80008fe:	d8ee      	bhi.n	80008de <main+0x332>
 8000900:	9a04      	ldr	r2, [sp, #16]
 8000902:	2a01      	cmp	r2, #1
 8000904:	d8eb      	bhi.n	80008de <main+0x332>
 8000906:	4b12      	ldr	r3, [pc, #72]	@ (8000950 <main+0x3a4>)
 8000908:	00c0      	lsls	r0, r0, #3
 800090a:	181b      	adds	r3, r3, r0
 800090c:	711a      	strb	r2, [r3, #4]
 800090e:	4b11      	ldr	r3, [pc, #68]	@ (8000954 <main+0x3a8>)
 8000910:	2a00      	cmp	r2, #0
 8000912:	d100      	bne.n	8000916 <main+0x36a>
 8000914:	4b10      	ldr	r3, [pc, #64]	@ (8000958 <main+0x3ac>)
 8000916:	2106      	movs	r1, #6
 8000918:	4a10      	ldr	r2, [pc, #64]	@ (800095c <main+0x3b0>)
 800091a:	9300      	str	r3, [sp, #0]
 800091c:	a80f      	add	r0, sp, #60	@ 0x3c
 800091e:	ab0d      	add	r3, sp, #52	@ 0x34
 8000920:	f003 fbaa 	bl	8004078 <sniprintf>
 8000924:	a80f      	add	r0, sp, #60	@ 0x3c
 8000926:	f7ff fcab 	bl	8000280 <sendAck>
 800092a:	2064      	movs	r0, #100	@ 0x64
 800092c:	e752      	b.n	80007d4 <main+0x228>
 800092e:	46c0      	nop			@ (mov r8, r8)
 8000930:	40021000 	.word	0x40021000
 8000934:	48000400 	.word	0x48000400
 8000938:	200002a0 	.word	0x200002a0
 800093c:	08005462 	.word	0x08005462
 8000940:	20000260 	.word	0x20000260
 8000944:	00002401 	.word	0x00002401
 8000948:	0800540f 	.word	0x0800540f
 800094c:	0800541c 	.word	0x0800541c
 8000950:	20000018 	.word	0x20000018
 8000954:	0800540c 	.word	0x0800540c
 8000958:	08005409 	.word	0x08005409
 800095c:	08005425 	.word	0x08005425
 8000960:	2000025c 	.word	0x2000025c
 8000964:	00001388 	.word	0x00001388
 8000968:	08005479 	.word	0x08005479
 800096c:	0800542e 	.word	0x0800542e
 8000970:	08005414 	.word	0x08005414
 8000974:	2204      	movs	r2, #4
 8000976:	0028      	movs	r0, r5
 8000978:	4910      	ldr	r1, [pc, #64]	@ (80009bc <main+0x410>)
 800097a:	f003 fbe7 	bl	800414c <strncmp>
 800097e:	2800      	cmp	r0, #0
 8000980:	d114      	bne.n	80009ac <main+0x400>
 8000982:	2396      	movs	r3, #150	@ 0x96
 8000984:	aa0f      	add	r2, sp, #60	@ 0x3c
 8000986:	0028      	movs	r0, r5
 8000988:	490d      	ldr	r1, [pc, #52]	@ (80009c0 <main+0x414>)
 800098a:	930f      	str	r3, [sp, #60]	@ 0x3c
 800098c:	f003 fbaa 	bl	80040e4 <siscanf>
 8000990:	9a0f      	ldr	r2, [sp, #60]	@ 0x3c
 8000992:	2314      	movs	r3, #20
 8000994:	2a13      	cmp	r2, #19
 8000996:	dd03      	ble.n	80009a0 <main+0x3f4>
 8000998:	23fa      	movs	r3, #250	@ 0xfa
 800099a:	00db      	lsls	r3, r3, #3
 800099c:	429a      	cmp	r2, r3
 800099e:	dd00      	ble.n	80009a2 <main+0x3f6>
 80009a0:	930f      	str	r3, [sp, #60]	@ 0x3c
 80009a2:	980f      	ldr	r0, [sp, #60]	@ 0x3c
 80009a4:	f7ff fd30 	bl	8000408 <startBeep>
 80009a8:	4806      	ldr	r0, [pc, #24]	@ (80009c4 <main+0x418>)
 80009aa:	e799      	b.n	80008e0 <main+0x334>
 80009ac:	002b      	movs	r3, r5
 80009ae:	210d      	movs	r1, #13
 80009b0:	4a05      	ldr	r2, [pc, #20]	@ (80009c8 <main+0x41c>)
 80009b2:	a80f      	add	r0, sp, #60	@ 0x3c
 80009b4:	f003 fb60 	bl	8004078 <sniprintf>
 80009b8:	a80f      	add	r0, sp, #60	@ 0x3c
 80009ba:	e791      	b.n	80008e0 <main+0x334>
 80009bc:	08005451 	.word	0x08005451
 80009c0:	08005446 	.word	0x08005446
 80009c4:	0800544e 	.word	0x0800544e
 80009c8:	08005456 	.word	0x08005456

080009cc <Error_Handler>:
 80009cc:	b672      	cpsid	i
 80009ce:	e7fe      	b.n	80009ce <Error_Handler+0x2>

080009d0 <HAL_MspInit>:
 80009d0:	2101      	movs	r1, #1
 80009d2:	4b0a      	ldr	r3, [pc, #40]	@ (80009fc <HAL_MspInit+0x2c>)
 80009d4:	b082      	sub	sp, #8
 80009d6:	699a      	ldr	r2, [r3, #24]
 80009d8:	430a      	orrs	r2, r1
 80009da:	619a      	str	r2, [r3, #24]
 80009dc:	699a      	ldr	r2, [r3, #24]
 80009de:	400a      	ands	r2, r1
 80009e0:	2180      	movs	r1, #128	@ 0x80
 80009e2:	9200      	str	r2, [sp, #0]
 80009e4:	9a00      	ldr	r2, [sp, #0]
 80009e6:	69da      	ldr	r2, [r3, #28]
 80009e8:	0549      	lsls	r1, r1, #21
 80009ea:	430a      	orrs	r2, r1
 80009ec:	61da      	str	r2, [r3, #28]
 80009ee:	69db      	ldr	r3, [r3, #28]
 80009f0:	400b      	ands	r3, r1
 80009f2:	9301      	str	r3, [sp, #4]
 80009f4:	9b01      	ldr	r3, [sp, #4]
 80009f6:	b002      	add	sp, #8
 80009f8:	4770      	bx	lr
 80009fa:	46c0      	nop			@ (mov r8, r8)
 80009fc:	40021000 	.word	0x40021000

08000a00 <HAL_TIM_Base_MspInit>:
 8000a00:	2380      	movs	r3, #128	@ 0x80
 8000a02:	6802      	ldr	r2, [r0, #0]
 8000a04:	b082      	sub	sp, #8
 8000a06:	05db      	lsls	r3, r3, #23
 8000a08:	429a      	cmp	r2, r3
 8000a0a:	d108      	bne.n	8000a1e <HAL_TIM_Base_MspInit+0x1e>
 8000a0c:	2101      	movs	r1, #1
 8000a0e:	4b05      	ldr	r3, [pc, #20]	@ (8000a24 <HAL_TIM_Base_MspInit+0x24>)
 8000a10:	69da      	ldr	r2, [r3, #28]
 8000a12:	430a      	orrs	r2, r1
 8000a14:	61da      	str	r2, [r3, #28]
 8000a16:	69db      	ldr	r3, [r3, #28]
 8000a18:	400b      	ands	r3, r1
 8000a1a:	9301      	str	r3, [sp, #4]
 8000a1c:	9b01      	ldr	r3, [sp, #4]
 8000a1e:	b002      	add	sp, #8
 8000a20:	4770      	bx	lr
 8000a22:	46c0      	nop			@ (mov r8, r8)
 8000a24:	40021000 	.word	0x40021000

08000a28 <HAL_TIM_MspPostInit>:
 8000a28:	b510      	push	{r4, lr}
 8000a2a:	0004      	movs	r4, r0
 8000a2c:	b086      	sub	sp, #24
 8000a2e:	2214      	movs	r2, #20
 8000a30:	2100      	movs	r1, #0
 8000a32:	a801      	add	r0, sp, #4
 8000a34:	f003 fb82 	bl	800413c <memset>
 8000a38:	2380      	movs	r3, #128	@ 0x80
 8000a3a:	6822      	ldr	r2, [r4, #0]
 8000a3c:	05db      	lsls	r3, r3, #23
 8000a3e:	429a      	cmp	r2, r3
 8000a40:	d113      	bne.n	8000a6a <HAL_TIM_MspPostInit+0x42>
 8000a42:	2180      	movs	r1, #128	@ 0x80
 8000a44:	4b0a      	ldr	r3, [pc, #40]	@ (8000a70 <HAL_TIM_MspPostInit+0x48>)
 8000a46:	0289      	lsls	r1, r1, #10
 8000a48:	695a      	ldr	r2, [r3, #20]
 8000a4a:	2090      	movs	r0, #144	@ 0x90
 8000a4c:	430a      	orrs	r2, r1
 8000a4e:	615a      	str	r2, [r3, #20]
 8000a50:	695b      	ldr	r3, [r3, #20]
 8000a52:	05c0      	lsls	r0, r0, #23
 8000a54:	400b      	ands	r3, r1
 8000a56:	9300      	str	r3, [sp, #0]
 8000a58:	9b00      	ldr	r3, [sp, #0]
 8000a5a:	2301      	movs	r3, #1
 8000a5c:	a901      	add	r1, sp, #4
 8000a5e:	9301      	str	r3, [sp, #4]
 8000a60:	18db      	adds	r3, r3, r3
 8000a62:	9302      	str	r3, [sp, #8]
 8000a64:	9305      	str	r3, [sp, #20]
 8000a66:	f000 f921 	bl	8000cac <HAL_GPIO_Init>
 8000a6a:	b006      	add	sp, #24
 8000a6c:	bd10      	pop	{r4, pc}
 8000a6e:	46c0      	nop			@ (mov r8, r8)
 8000a70:	40021000 	.word	0x40021000

08000a74 <NMI_Handler>:
 8000a74:	e7fe      	b.n	8000a74 <NMI_Handler>

08000a76 <HardFault_Handler>:
 8000a76:	e7fe      	b.n	8000a76 <HardFault_Handler>

08000a78 <SVC_Handler>:
 8000a78:	4770      	bx	lr

08000a7a <PendSV_Handler>:
 8000a7a:	4770      	bx	lr

08000a7c <SysTick_Handler>:
 8000a7c:	b510      	push	{r4, lr}
 8000a7e:	f000 f8a1 	bl	8000bc4 <HAL_IncTick>
 8000a82:	bd10      	pop	{r4, pc}

08000a84 <USB_IRQHandler>:
 8000a84:	b510      	push	{r4, lr}
 8000a86:	4802      	ldr	r0, [pc, #8]	@ (8000a90 <USB_IRQHandler+0xc>)
 8000a88:	f000 fa3e 	bl	8000f08 <HAL_PCD_IRQHandler>
 8000a8c:	bd10      	pop	{r4, pc}
 8000a8e:	46c0      	nop			@ (mov r8, r8)
 8000a90:	20000894 	.word	0x20000894

08000a94 <_sbrk>:
 8000a94:	490b      	ldr	r1, [pc, #44]	@ (8000ac4 <_sbrk+0x30>)
 8000a96:	4a0c      	ldr	r2, [pc, #48]	@ (8000ac8 <_sbrk+0x34>)
 8000a98:	0003      	movs	r3, r0
 8000a9a:	1a52      	subs	r2, r2, r1
 8000a9c:	490b      	ldr	r1, [pc, #44]	@ (8000acc <_sbrk+0x38>)
 8000a9e:	b510      	push	{r4, lr}
 8000aa0:	6808      	ldr	r0, [r1, #0]
 8000aa2:	2800      	cmp	r0, #0
 8000aa4:	d101      	bne.n	8000aaa <_sbrk+0x16>
 8000aa6:	480a      	ldr	r0, [pc, #40]	@ (8000ad0 <_sbrk+0x3c>)
 8000aa8:	6008      	str	r0, [r1, #0]
 8000aaa:	6808      	ldr	r0, [r1, #0]
 8000aac:	18c3      	adds	r3, r0, r3
 8000aae:	4293      	cmp	r3, r2
 8000ab0:	d906      	bls.n	8000ac0 <_sbrk+0x2c>
 8000ab2:	f003 fb71 	bl	8004198 <__errno>
 8000ab6:	230c      	movs	r3, #12
 8000ab8:	6003      	str	r3, [r0, #0]
 8000aba:	2001      	movs	r0, #1
 8000abc:	4240      	negs	r0, r0
 8000abe:	bd10      	pop	{r4, pc}
 8000ac0:	600b      	str	r3, [r1, #0]
 8000ac2:	e7fc      	b.n	8000abe <_sbrk+0x2a>
 8000ac4:	00000400 	.word	0x00000400
 8000ac8:	20001800 	.word	0x20001800
 8000acc:	200002e8 	.word	0x200002e8
 8000ad0:	20000cb8 	.word	0x20000cb8

08000ad4 <SystemInit>:
 8000ad4:	4770      	bx	lr
	...

08000ad8 <Reset_Handler>:
 8000ad8:	4813      	ldr	r0, [pc, #76]	@ (8000b28 <LoopForever+0x2>)
 8000ada:	4685      	mov	sp, r0
 8000adc:	f7ff fffa 	bl	8000ad4 <SystemInit>
 8000ae0:	4812      	ldr	r0, [pc, #72]	@ (8000b2c <LoopForever+0x6>)
 8000ae2:	6801      	ldr	r1, [r0, #0]
 8000ae4:	0e09      	lsrs	r1, r1, #24
 8000ae6:	4a12      	ldr	r2, [pc, #72]	@ (8000b30 <LoopForever+0xa>)
 8000ae8:	4291      	cmp	r1, r2
 8000aea:	d105      	bne.n	8000af8 <ApplicationStart>
 8000aec:	4811      	ldr	r0, [pc, #68]	@ (8000b34 <LoopForever+0xe>)
 8000aee:	4912      	ldr	r1, [pc, #72]	@ (8000b38 <LoopForever+0x12>)
 8000af0:	6001      	str	r1, [r0, #0]
 8000af2:	4812      	ldr	r0, [pc, #72]	@ (8000b3c <LoopForever+0x16>)
 8000af4:	4912      	ldr	r1, [pc, #72]	@ (8000b40 <LoopForever+0x1a>)
 8000af6:	6001      	str	r1, [r0, #0]

08000af8 <ApplicationStart>:
 8000af8:	4812      	ldr	r0, [pc, #72]	@ (8000b44 <LoopForever+0x1e>)
 8000afa:	4913      	ldr	r1, [pc, #76]	@ (8000b48 <LoopForever+0x22>)
 8000afc:	4a13      	ldr	r2, [pc, #76]	@ (8000b4c <LoopForever+0x26>)
 8000afe:	2300      	movs	r3, #0
 8000b00:	e002      	b.n	8000b08 <LoopCopyDataInit>

08000b02 <CopyDataInit>:
 8000b02:	58d4      	ldr	r4, [r2, r3]
 8000b04:	50c4      	str	r4, [r0, r3]
 8000b06:	3304      	adds	r3, #4

08000b08 <LoopCopyDataInit>:
 8000b08:	18c4      	adds	r4, r0, r3
 8000b0a:	428c      	cmp	r4, r1
 8000b0c:	d3f9      	bcc.n	8000b02 <CopyDataInit>
 8000b0e:	4a10      	ldr	r2, [pc, #64]	@ (8000b50 <LoopForever+0x2a>)
 8000b10:	4c10      	ldr	r4, [pc, #64]	@ (8000b54 <LoopForever+0x2e>)
 8000b12:	2300      	movs	r3, #0
 8000b14:	e001      	b.n	8000b1a <LoopFillZerobss>

08000b16 <FillZerobss>:
 8000b16:	6013      	str	r3, [r2, #0]
 8000b18:	3204      	adds	r2, #4

08000b1a <LoopFillZerobss>:
 8000b1a:	42a2      	cmp	r2, r4
 8000b1c:	d3fb      	bcc.n	8000b16 <FillZerobss>
 8000b1e:	f003 fb41 	bl	80041a4 <__libc_init_array>
 8000b22:	f7ff fd43 	bl	80005ac <main>

08000b26 <LoopForever>:
 8000b26:	e7fe      	b.n	8000b26 <LoopForever>
 8000b28:	20001800 	.word	0x20001800
 8000b2c:	00000004 	.word	0x00000004
 8000b30:	0000001f 	.word	0x0000001f
 8000b34:	40021018 	.word	0x40021018
 8000b38:	00000001 	.word	0x00000001
 8000b3c:	40010000 	.word	0x40010000
 8000b40:	00000000 	.word	0x00000000
 8000b44:	20000000 	.word	0x20000000
 8000b48:	20000234 	.word	0x20000234
 8000b4c:	08005684 	.word	0x08005684
 8000b50:	20000234 	.word	0x20000234
 8000b54:	20000cb8 	.word	0x20000cb8

08000b58 <ADC1_IRQHandler>:
 8000b58:	e7fe      	b.n	8000b58 <ADC1_IRQHandler>
	...

08000b5c <HAL_InitTick>:
 8000b5c:	b570      	push	{r4, r5, r6, lr}
 8000b5e:	0005      	movs	r5, r0
 8000b60:	20fa      	movs	r0, #250	@ 0xfa
 8000b62:	4b0d      	ldr	r3, [pc, #52]	@ (8000b98 <HAL_InitTick+0x3c>)
 8000b64:	0080      	lsls	r0, r0, #2
 8000b66:	7819      	ldrb	r1, [r3, #0]
 8000b68:	f7ff fafe 	bl	8000168 <__udivsi3>
 8000b6c:	4c0b      	ldr	r4, [pc, #44]	@ (8000b9c <HAL_InitTick+0x40>)
 8000b6e:	0001      	movs	r1, r0
 8000b70:	6820      	ldr	r0, [r4, #0]
 8000b72:	f7ff faf9 	bl	8000168 <__udivsi3>
 8000b76:	f000 f87f 	bl	8000c78 <HAL_SYSTICK_Config>
 8000b7a:	0004      	movs	r4, r0
 8000b7c:	2001      	movs	r0, #1
 8000b7e:	2c00      	cmp	r4, #0
 8000b80:	d109      	bne.n	8000b96 <HAL_InitTick+0x3a>
 8000b82:	2d03      	cmp	r5, #3
 8000b84:	d807      	bhi.n	8000b96 <HAL_InitTick+0x3a>
 8000b86:	3802      	subs	r0, #2
 8000b88:	0022      	movs	r2, r4
 8000b8a:	0029      	movs	r1, r5
 8000b8c:	f000 f83e 	bl	8000c0c <HAL_NVIC_SetPriority>
 8000b90:	0020      	movs	r0, r4
 8000b92:	4b03      	ldr	r3, [pc, #12]	@ (8000ba0 <HAL_InitTick+0x44>)
 8000b94:	601d      	str	r5, [r3, #0]
 8000b96:	bd70      	pop	{r4, r5, r6, pc}
 8000b98:	20000084 	.word	0x20000084
 8000b9c:	20000080 	.word	0x20000080
 8000ba0:	20000088 	.word	0x20000088

08000ba4 <HAL_Init>:
 8000ba4:	2310      	movs	r3, #16
 8000ba6:	4a06      	ldr	r2, [pc, #24]	@ (8000bc0 <HAL_Init+0x1c>)
 8000ba8:	b510      	push	{r4, lr}
 8000baa:	6811      	ldr	r1, [r2, #0]
 8000bac:	2003      	movs	r0, #3
 8000bae:	430b      	orrs	r3, r1
 8000bb0:	6013      	str	r3, [r2, #0]
 8000bb2:	f7ff ffd3 	bl	8000b5c <HAL_InitTick>
 8000bb6:	f7ff ff0b 	bl	80009d0 <HAL_MspInit>
 8000bba:	2000      	movs	r0, #0
 8000bbc:	bd10      	pop	{r4, pc}
 8000bbe:	46c0      	nop			@ (mov r8, r8)
 8000bc0:	40022000 	.word	0x40022000

08000bc4 <HAL_IncTick>:
 8000bc4:	4a03      	ldr	r2, [pc, #12]	@ (8000bd4 <HAL_IncTick+0x10>)
 8000bc6:	4b04      	ldr	r3, [pc, #16]	@ (8000bd8 <HAL_IncTick+0x14>)
 8000bc8:	6811      	ldr	r1, [r2, #0]
 8000bca:	781b      	ldrb	r3, [r3, #0]
 8000bcc:	185b      	adds	r3, r3, r1
 8000bce:	6013      	str	r3, [r2, #0]
 8000bd0:	4770      	bx	lr
 8000bd2:	46c0      	nop			@ (mov r8, r8)
 8000bd4:	200002ec 	.word	0x200002ec
 8000bd8:	20000084 	.word	0x20000084

08000bdc <HAL_GetTick>:
 8000bdc:	4b01      	ldr	r3, [pc, #4]	@ (8000be4 <HAL_GetTick+0x8>)
 8000bde:	6818      	ldr	r0, [r3, #0]
 8000be0:	4770      	bx	lr
 8000be2:	46c0      	nop			@ (mov r8, r8)
 8000be4:	200002ec 	.word	0x200002ec

08000be8 <HAL_Delay>:
 8000be8:	b570      	push	{r4, r5, r6, lr}
 8000bea:	0004      	movs	r4, r0
 8000bec:	f7ff fff6 	bl	8000bdc <HAL_GetTick>
 8000bf0:	0005      	movs	r5, r0
 8000bf2:	1c63      	adds	r3, r4, #1
 8000bf4:	d002      	beq.n	8000bfc <HAL_Delay+0x14>
 8000bf6:	4b04      	ldr	r3, [pc, #16]	@ (8000c08 <HAL_Delay+0x20>)
 8000bf8:	781b      	ldrb	r3, [r3, #0]
 8000bfa:	18e4      	adds	r4, r4, r3
 8000bfc:	f7ff ffee 	bl	8000bdc <HAL_GetTick>
 8000c00:	1b40      	subs	r0, r0, r5
 8000c02:	42a0      	cmp	r0, r4
 8000c04:	d3fa      	bcc.n	8000bfc <HAL_Delay+0x14>
 8000c06:	bd70      	pop	{r4, r5, r6, pc}
 8000c08:	20000084 	.word	0x20000084

08000c0c <HAL_NVIC_SetPriority>:
 8000c0c:	b510      	push	{r4, lr}
 8000c0e:	24ff      	movs	r4, #255	@ 0xff
 8000c10:	2203      	movs	r2, #3
 8000c12:	000b      	movs	r3, r1
 8000c14:	0021      	movs	r1, r4
 8000c16:	4002      	ands	r2, r0
 8000c18:	00d2      	lsls	r2, r2, #3
 8000c1a:	4091      	lsls	r1, r2
 8000c1c:	019b      	lsls	r3, r3, #6
 8000c1e:	4023      	ands	r3, r4
 8000c20:	43c9      	mvns	r1, r1
 8000c22:	4093      	lsls	r3, r2
 8000c24:	2800      	cmp	r0, #0
 8000c26:	db0a      	blt.n	8000c3e <HAL_NVIC_SetPriority+0x32>
 8000c28:	24c0      	movs	r4, #192	@ 0xc0
 8000c2a:	4a0b      	ldr	r2, [pc, #44]	@ (8000c58 <HAL_NVIC_SetPriority+0x4c>)
 8000c2c:	0880      	lsrs	r0, r0, #2
 8000c2e:	0080      	lsls	r0, r0, #2
 8000c30:	1880      	adds	r0, r0, r2
 8000c32:	00a4      	lsls	r4, r4, #2
 8000c34:	5902      	ldr	r2, [r0, r4]
 8000c36:	400a      	ands	r2, r1
 8000c38:	4313      	orrs	r3, r2
 8000c3a:	5103      	str	r3, [r0, r4]
 8000c3c:	bd10      	pop	{r4, pc}
 8000c3e:	220f      	movs	r2, #15
 8000c40:	4010      	ands	r0, r2
 8000c42:	3808      	subs	r0, #8
 8000c44:	4a05      	ldr	r2, [pc, #20]	@ (8000c5c <HAL_NVIC_SetPriority+0x50>)
 8000c46:	0880      	lsrs	r0, r0, #2
 8000c48:	0080      	lsls	r0, r0, #2
 8000c4a:	1880      	adds	r0, r0, r2
 8000c4c:	69c2      	ldr	r2, [r0, #28]
 8000c4e:	4011      	ands	r1, r2
 8000c50:	4319      	orrs	r1, r3
 8000c52:	61c1      	str	r1, [r0, #28]
 8000c54:	e7f2      	b.n	8000c3c <HAL_NVIC_SetPriority+0x30>
 8000c56:	46c0      	nop			@ (mov r8, r8)
 8000c58:	e000e100 	.word	0xe000e100
 8000c5c:	e000ed00 	.word	0xe000ed00

08000c60 <HAL_NVIC_EnableIRQ>:
 8000c60:	2800      	cmp	r0, #0
 8000c62:	db05      	blt.n	8000c70 <HAL_NVIC_EnableIRQ+0x10>
 8000c64:	231f      	movs	r3, #31
 8000c66:	4018      	ands	r0, r3
 8000c68:	3b1e      	subs	r3, #30
 8000c6a:	4083      	lsls	r3, r0
 8000c6c:	4a01      	ldr	r2, [pc, #4]	@ (8000c74 <HAL_NVIC_EnableIRQ+0x14>)
 8000c6e:	6013      	str	r3, [r2, #0]
 8000c70:	4770      	bx	lr
 8000c72:	46c0      	nop			@ (mov r8, r8)
 8000c74:	e000e100 	.word	0xe000e100

08000c78 <HAL_SYSTICK_Config>:
 8000c78:	2280      	movs	r2, #128	@ 0x80
 8000c7a:	1e43      	subs	r3, r0, #1
 8000c7c:	0452      	lsls	r2, r2, #17
 8000c7e:	2001      	movs	r0, #1
 8000c80:	4293      	cmp	r3, r2
 8000c82:	d20d      	bcs.n	8000ca0 <HAL_SYSTICK_Config+0x28>
 8000c84:	21c0      	movs	r1, #192	@ 0xc0
 8000c86:	4a07      	ldr	r2, [pc, #28]	@ (8000ca4 <HAL_SYSTICK_Config+0x2c>)
 8000c88:	4807      	ldr	r0, [pc, #28]	@ (8000ca8 <HAL_SYSTICK_Config+0x30>)
 8000c8a:	6053      	str	r3, [r2, #4]
 8000c8c:	6a03      	ldr	r3, [r0, #32]
 8000c8e:	0609      	lsls	r1, r1, #24
 8000c90:	021b      	lsls	r3, r3, #8
 8000c92:	0a1b      	lsrs	r3, r3, #8
 8000c94:	430b      	orrs	r3, r1
 8000c96:	6203      	str	r3, [r0, #32]
 8000c98:	2000      	movs	r0, #0
 8000c9a:	2307      	movs	r3, #7
 8000c9c:	6090      	str	r0, [r2, #8]
 8000c9e:	6013      	str	r3, [r2, #0]
 8000ca0:	4770      	bx	lr
 8000ca2:	46c0      	nop			@ (mov r8, r8)
 8000ca4:	e000e010 	.word	0xe000e010
 8000ca8:	e000ed00 	.word	0xe000ed00

08000cac <HAL_GPIO_Init>:
 8000cac:	2300      	movs	r3, #0
 8000cae:	b5f0      	push	{r4, r5, r6, r7, lr}
 8000cb0:	b087      	sub	sp, #28
 8000cb2:	680a      	ldr	r2, [r1, #0]
 8000cb4:	0014      	movs	r4, r2
 8000cb6:	40dc      	lsrs	r4, r3
 8000cb8:	d101      	bne.n	8000cbe <HAL_GPIO_Init+0x12>
 8000cba:	b007      	add	sp, #28
 8000cbc:	bdf0      	pop	{r4, r5, r6, r7, pc}
 8000cbe:	2501      	movs	r5, #1
 8000cc0:	0014      	movs	r4, r2
 8000cc2:	409d      	lsls	r5, r3
 8000cc4:	402c      	ands	r4, r5
 8000cc6:	9400      	str	r4, [sp, #0]
 8000cc8:	422a      	tst	r2, r5
 8000cca:	d100      	bne.n	8000cce <HAL_GPIO_Init+0x22>
 8000ccc:	e094      	b.n	8000df8 <HAL_GPIO_Init+0x14c>
 8000cce:	684a      	ldr	r2, [r1, #4]
 8000cd0:	005f      	lsls	r7, r3, #1
 8000cd2:	4694      	mov	ip, r2
 8000cd4:	2203      	movs	r2, #3
 8000cd6:	4664      	mov	r4, ip
 8000cd8:	4022      	ands	r2, r4
 8000cda:	2403      	movs	r4, #3
 8000cdc:	40bc      	lsls	r4, r7
 8000cde:	43e4      	mvns	r4, r4
 8000ce0:	9401      	str	r4, [sp, #4]
 8000ce2:	1e54      	subs	r4, r2, #1
 8000ce4:	2c01      	cmp	r4, #1
 8000ce6:	d82e      	bhi.n	8000d46 <HAL_GPIO_Init+0x9a>
 8000ce8:	6886      	ldr	r6, [r0, #8]
 8000cea:	9c01      	ldr	r4, [sp, #4]
 8000cec:	4026      	ands	r6, r4
 8000cee:	68cc      	ldr	r4, [r1, #12]
 8000cf0:	40bc      	lsls	r4, r7
 8000cf2:	4334      	orrs	r4, r6
 8000cf4:	6084      	str	r4, [r0, #8]
 8000cf6:	6844      	ldr	r4, [r0, #4]
 8000cf8:	2601      	movs	r6, #1
 8000cfa:	43ac      	bics	r4, r5
 8000cfc:	0025      	movs	r5, r4
 8000cfe:	4664      	mov	r4, ip
 8000d00:	0924      	lsrs	r4, r4, #4
 8000d02:	4034      	ands	r4, r6
 8000d04:	409c      	lsls	r4, r3
 8000d06:	432c      	orrs	r4, r5
 8000d08:	6044      	str	r4, [r0, #4]
 8000d0a:	68c5      	ldr	r5, [r0, #12]
 8000d0c:	9c01      	ldr	r4, [sp, #4]
 8000d0e:	4025      	ands	r5, r4
 8000d10:	688c      	ldr	r4, [r1, #8]
 8000d12:	40bc      	lsls	r4, r7
 8000d14:	432c      	orrs	r4, r5
 8000d16:	60c4      	str	r4, [r0, #12]
 8000d18:	2a02      	cmp	r2, #2
 8000d1a:	d116      	bne.n	8000d4a <HAL_GPIO_Init+0x9e>
 8000d1c:	2507      	movs	r5, #7
 8000d1e:	260f      	movs	r6, #15
 8000d20:	401d      	ands	r5, r3
 8000d22:	00ad      	lsls	r5, r5, #2
 8000d24:	40ae      	lsls	r6, r5
 8000d26:	08dc      	lsrs	r4, r3, #3
 8000d28:	00a4      	lsls	r4, r4, #2
 8000d2a:	1904      	adds	r4, r0, r4
 8000d2c:	9402      	str	r4, [sp, #8]
 8000d2e:	6a24      	ldr	r4, [r4, #32]
 8000d30:	9603      	str	r6, [sp, #12]
 8000d32:	0026      	movs	r6, r4
 8000d34:	9c03      	ldr	r4, [sp, #12]
 8000d36:	43a6      	bics	r6, r4
 8000d38:	0034      	movs	r4, r6
 8000d3a:	690e      	ldr	r6, [r1, #16]
 8000d3c:	40ae      	lsls	r6, r5
 8000d3e:	4326      	orrs	r6, r4
 8000d40:	9c02      	ldr	r4, [sp, #8]
 8000d42:	6226      	str	r6, [r4, #32]
 8000d44:	e001      	b.n	8000d4a <HAL_GPIO_Init+0x9e>
 8000d46:	2a03      	cmp	r2, #3
 8000d48:	d1df      	bne.n	8000d0a <HAL_GPIO_Init+0x5e>
 8000d4a:	40ba      	lsls	r2, r7
 8000d4c:	6804      	ldr	r4, [r0, #0]
 8000d4e:	9d01      	ldr	r5, [sp, #4]
 8000d50:	4025      	ands	r5, r4
 8000d52:	432a      	orrs	r2, r5
 8000d54:	24c0      	movs	r4, #192	@ 0xc0
 8000d56:	6002      	str	r2, [r0, #0]
 8000d58:	4662      	mov	r2, ip
 8000d5a:	02a4      	lsls	r4, r4, #10
 8000d5c:	4222      	tst	r2, r4
 8000d5e:	d04b      	beq.n	8000df8 <HAL_GPIO_Init+0x14c>
 8000d60:	2501      	movs	r5, #1
 8000d62:	4a26      	ldr	r2, [pc, #152]	@ (8000dfc <HAL_GPIO_Init+0x150>)
 8000d64:	2790      	movs	r7, #144	@ 0x90
 8000d66:	6994      	ldr	r4, [r2, #24]
 8000d68:	05ff      	lsls	r7, r7, #23
 8000d6a:	432c      	orrs	r4, r5
 8000d6c:	6194      	str	r4, [r2, #24]
 8000d6e:	6992      	ldr	r2, [r2, #24]
 8000d70:	089c      	lsrs	r4, r3, #2
 8000d72:	402a      	ands	r2, r5
 8000d74:	9205      	str	r2, [sp, #20]
 8000d76:	9a05      	ldr	r2, [sp, #20]
 8000d78:	4a21      	ldr	r2, [pc, #132]	@ (8000e00 <HAL_GPIO_Init+0x154>)
 8000d7a:	00a4      	lsls	r4, r4, #2
 8000d7c:	18a4      	adds	r4, r4, r2
 8000d7e:	220f      	movs	r2, #15
 8000d80:	3502      	adds	r5, #2
 8000d82:	401d      	ands	r5, r3
 8000d84:	00ad      	lsls	r5, r5, #2
 8000d86:	40aa      	lsls	r2, r5
 8000d88:	68a6      	ldr	r6, [r4, #8]
 8000d8a:	4396      	bics	r6, r2
 8000d8c:	2200      	movs	r2, #0
 8000d8e:	42b8      	cmp	r0, r7
 8000d90:	d008      	beq.n	8000da4 <HAL_GPIO_Init+0xf8>
 8000d92:	4f1c      	ldr	r7, [pc, #112]	@ (8000e04 <HAL_GPIO_Init+0x158>)
 8000d94:	3201      	adds	r2, #1
 8000d96:	42b8      	cmp	r0, r7
 8000d98:	d004      	beq.n	8000da4 <HAL_GPIO_Init+0xf8>
 8000d9a:	4f1b      	ldr	r7, [pc, #108]	@ (8000e08 <HAL_GPIO_Init+0x15c>)
 8000d9c:	3204      	adds	r2, #4
 8000d9e:	42b8      	cmp	r0, r7
 8000da0:	d100      	bne.n	8000da4 <HAL_GPIO_Init+0xf8>
 8000da2:	3a03      	subs	r2, #3
 8000da4:	40aa      	lsls	r2, r5
 8000da6:	4667      	mov	r7, ip
 8000da8:	4332      	orrs	r2, r6
 8000daa:	60a2      	str	r2, [r4, #8]
 8000dac:	4a17      	ldr	r2, [pc, #92]	@ (8000e0c <HAL_GPIO_Init+0x160>)
 8000dae:	9c00      	ldr	r4, [sp, #0]
 8000db0:	6896      	ldr	r6, [r2, #8]
 8000db2:	9d00      	ldr	r5, [sp, #0]
 8000db4:	43e4      	mvns	r4, r4
 8000db6:	4335      	orrs	r5, r6
 8000db8:	02ff      	lsls	r7, r7, #11
 8000dba:	d401      	bmi.n	8000dc0 <HAL_GPIO_Init+0x114>
 8000dbc:	0035      	movs	r5, r6
 8000dbe:	4025      	ands	r5, r4
 8000dc0:	4667      	mov	r7, ip
 8000dc2:	6095      	str	r5, [r2, #8]
 8000dc4:	68d6      	ldr	r6, [r2, #12]
 8000dc6:	9d00      	ldr	r5, [sp, #0]
 8000dc8:	4335      	orrs	r5, r6
 8000dca:	02bf      	lsls	r7, r7, #10
 8000dcc:	d401      	bmi.n	8000dd2 <HAL_GPIO_Init+0x126>
 8000dce:	0035      	movs	r5, r6
 8000dd0:	4025      	ands	r5, r4
 8000dd2:	4667      	mov	r7, ip
 8000dd4:	60d5      	str	r5, [r2, #12]
 8000dd6:	6856      	ldr	r6, [r2, #4]
 8000dd8:	9d00      	ldr	r5, [sp, #0]
 8000dda:	4335      	orrs	r5, r6
 8000ddc:	03bf      	lsls	r7, r7, #14
 8000dde:	d401      	bmi.n	8000de4 <HAL_GPIO_Init+0x138>
 8000de0:	0035      	movs	r5, r6
 8000de2:	4025      	ands	r5, r4
 8000de4:	4667      	mov	r7, ip
 8000de6:	6055      	str	r5, [r2, #4]
 8000de8:	6815      	ldr	r5, [r2, #0]
 8000dea:	9e00      	ldr	r6, [sp, #0]
 8000dec:	432e      	orrs	r6, r5
 8000dee:	03ff      	lsls	r7, r7, #15
 8000df0:	d401      	bmi.n	8000df6 <HAL_GPIO_Init+0x14a>
 8000df2:	4025      	ands	r5, r4
 8000df4:	002e      	movs	r6, r5
 8000df6:	6016      	str	r6, [r2, #0]
 8000df8:	3301      	adds	r3, #1
 8000dfa:	e75a      	b.n	8000cb2 <HAL_GPIO_Init+0x6>
 8000dfc:	40021000 	.word	0x40021000
 8000e00:	40010000 	.word	0x40010000
 8000e04:	48000400 	.word	0x48000400
 8000e08:	48000800 	.word	0x48000800
 8000e0c:	40010400 	.word	0x40010400

08000e10 <HAL_GPIO_ReadPin>:
 8000e10:	6900      	ldr	r0, [r0, #16]
 8000e12:	4008      	ands	r0, r1
 8000e14:	1e43      	subs	r3, r0, #1
 8000e16:	4198      	sbcs	r0, r3
 8000e18:	b2c0      	uxtb	r0, r0
 8000e1a:	4770      	bx	lr

08000e1c <HAL_GPIO_WritePin>:
 8000e1c:	2a00      	cmp	r2, #0
 8000e1e:	d001      	beq.n	8000e24 <HAL_GPIO_WritePin+0x8>
 8000e20:	6181      	str	r1, [r0, #24]
 8000e22:	4770      	bx	lr
 8000e24:	6281      	str	r1, [r0, #40]	@ 0x28
 8000e26:	e7fc      	b.n	8000e22 <HAL_GPIO_WritePin+0x6>

08000e28 <HAL_PCD_Init>:
 8000e28:	b570      	push	{r4, r5, r6, lr}
 8000e2a:	0004      	movs	r4, r0
 8000e2c:	2001      	movs	r0, #1
 8000e2e:	2c00      	cmp	r4, #0
 8000e30:	d02b      	beq.n	8000e8a <HAL_PCD_Init+0x62>
 8000e32:	4d22      	ldr	r5, [pc, #136]	@ (8000ebc <HAL_PCD_Init+0x94>)
 8000e34:	5d63      	ldrb	r3, [r4, r5]
 8000e36:	b2da      	uxtb	r2, r3
 8000e38:	2b00      	cmp	r3, #0
 8000e3a:	d105      	bne.n	8000e48 <HAL_PCD_Init+0x20>
 8000e3c:	23a4      	movs	r3, #164	@ 0xa4
 8000e3e:	009b      	lsls	r3, r3, #2
 8000e40:	0020      	movs	r0, r4
 8000e42:	54e2      	strb	r2, [r4, r3]
 8000e44:	f003 f802 	bl	8003e4c <HAL_PCD_MspInit>
 8000e48:	2303      	movs	r3, #3
 8000e4a:	5563      	strb	r3, [r4, r5]
 8000e4c:	6820      	ldr	r0, [r4, #0]
 8000e4e:	f001 fd61 	bl	8002914 <USB_DisableGlobalInt>
 8000e52:	2300      	movs	r3, #0
 8000e54:	0022      	movs	r2, r4
 8000e56:	0019      	movs	r1, r3
 8000e58:	2601      	movs	r6, #1
 8000e5a:	7920      	ldrb	r0, [r4, #4]
 8000e5c:	3210      	adds	r2, #16
 8000e5e:	4298      	cmp	r0, r3
 8000e60:	d114      	bne.n	8000e8c <HAL_PCD_Init+0x64>
 8000e62:	2100      	movs	r1, #0
 8000e64:	0022      	movs	r2, r4
 8000e66:	0008      	movs	r0, r1
 8000e68:	3251      	adds	r2, #81	@ 0x51
 8000e6a:	32ff      	adds	r2, #255	@ 0xff
 8000e6c:	428b      	cmp	r3, r1
 8000e6e:	d117      	bne.n	8000ea0 <HAL_PCD_Init+0x78>
 8000e70:	6861      	ldr	r1, [r4, #4]
 8000e72:	68a2      	ldr	r2, [r4, #8]
 8000e74:	6820      	ldr	r0, [r4, #0]
 8000e76:	f001 fd57 	bl	8002928 <USB_DevInit>
 8000e7a:	2300      	movs	r3, #0
 8000e7c:	7323      	strb	r3, [r4, #12]
 8000e7e:	3301      	adds	r3, #1
 8000e80:	5563      	strb	r3, [r4, r5]
 8000e82:	7aa3      	ldrb	r3, [r4, #10]
 8000e84:	2b01      	cmp	r3, #1
 8000e86:	d015      	beq.n	8000eb4 <HAL_PCD_Init+0x8c>
 8000e88:	2000      	movs	r0, #0
 8000e8a:	bd70      	pop	{r4, r5, r6, pc}
 8000e8c:	7013      	strb	r3, [r2, #0]
 8000e8e:	3301      	adds	r3, #1
 8000e90:	7056      	strb	r6, [r2, #1]
 8000e92:	70d1      	strb	r1, [r2, #3]
 8000e94:	6111      	str	r1, [r2, #16]
 8000e96:	6151      	str	r1, [r2, #20]
 8000e98:	6191      	str	r1, [r2, #24]
 8000e9a:	b2db      	uxtb	r3, r3
 8000e9c:	3228      	adds	r2, #40	@ 0x28
 8000e9e:	e7de      	b.n	8000e5e <HAL_PCD_Init+0x36>
 8000ea0:	7011      	strb	r1, [r2, #0]
 8000ea2:	3101      	adds	r1, #1
 8000ea4:	7050      	strb	r0, [r2, #1]
 8000ea6:	70d0      	strb	r0, [r2, #3]
 8000ea8:	6110      	str	r0, [r2, #16]
 8000eaa:	6150      	str	r0, [r2, #20]
 8000eac:	6190      	str	r0, [r2, #24]
 8000eae:	b2c9      	uxtb	r1, r1
 8000eb0:	3228      	adds	r2, #40	@ 0x28
 8000eb2:	e7db      	b.n	8000e6c <HAL_PCD_Init+0x44>
 8000eb4:	0020      	movs	r0, r4
 8000eb6:	f000 fe06 	bl	8001ac6 <HAL_PCDEx_ActivateLPM>
 8000eba:	e7e5      	b.n	8000e88 <HAL_PCD_Init+0x60>
 8000ebc:	00000291 	.word	0x00000291

08000ec0 <HAL_PCD_Start>:
 8000ec0:	b570      	push	{r4, r5, r6, lr}
 8000ec2:	25a4      	movs	r5, #164	@ 0xa4
 8000ec4:	00ad      	lsls	r5, r5, #2
 8000ec6:	5d43      	ldrb	r3, [r0, r5]
 8000ec8:	0004      	movs	r4, r0
 8000eca:	2002      	movs	r0, #2
 8000ecc:	2b01      	cmp	r3, #1
 8000ece:	d009      	beq.n	8000ee4 <HAL_PCD_Start+0x24>
 8000ed0:	2301      	movs	r3, #1
 8000ed2:	5563      	strb	r3, [r4, r5]
 8000ed4:	6820      	ldr	r0, [r4, #0]
 8000ed6:	f001 fd13 	bl	8002900 <USB_EnableGlobalInt>
 8000eda:	6820      	ldr	r0, [r4, #0]
 8000edc:	f001 ff1f 	bl	8002d1e <USB_DevConnect>
 8000ee0:	2000      	movs	r0, #0
 8000ee2:	5560      	strb	r0, [r4, r5]
 8000ee4:	bd70      	pop	{r4, r5, r6, pc}

08000ee6 <HAL_PCD_SetAddress>:
 8000ee6:	b570      	push	{r4, r5, r6, lr}
 8000ee8:	25a4      	movs	r5, #164	@ 0xa4
 8000eea:	00ad      	lsls	r5, r5, #2
 8000eec:	5d43      	ldrb	r3, [r0, r5]
 8000eee:	0004      	movs	r4, r0
 8000ef0:	2002      	movs	r0, #2
 8000ef2:	2b01      	cmp	r3, #1
 8000ef4:	d007      	beq.n	8000f06 <HAL_PCD_SetAddress+0x20>
 8000ef6:	2301      	movs	r3, #1
 8000ef8:	5563      	strb	r3, [r4, r5]
 8000efa:	6820      	ldr	r0, [r4, #0]
 8000efc:	7321      	strb	r1, [r4, #12]
 8000efe:	f001 ff07 	bl	8002d10 <USB_SetDevAddress>
 8000f02:	2000      	movs	r0, #0
 8000f04:	5560      	strb	r0, [r4, r5]
 8000f06:	bd70      	pop	{r4, r5, r6, pc}

08000f08 <HAL_PCD_IRQHandler>:
 8000f08:	b5f0      	push	{r4, r5, r6, r7, lr}
 8000f0a:	0004      	movs	r4, r0
 8000f0c:	b085      	sub	sp, #20
 8000f0e:	6800      	ldr	r0, [r0, #0]
 8000f10:	f001 ff0d 	bl	8002d2e <USB_ReadInterrupts>
 8000f14:	2380      	movs	r3, #128	@ 0x80
 8000f16:	0005      	movs	r5, r0
 8000f18:	021b      	lsls	r3, r3, #8
 8000f1a:	401d      	ands	r5, r3
 8000f1c:	4218      	tst	r0, r3
 8000f1e:	d101      	bne.n	8000f24 <HAL_PCD_IRQHandler+0x1c>
 8000f20:	f000 fc27 	bl	8001772 <HAL_PCD_IRQHandler+0x86a>
 8000f24:	6820      	ldr	r0, [r4, #0]
 8000f26:	1d82      	adds	r2, r0, #6
 8000f28:	8fd3      	ldrh	r3, [r2, #62]	@ 0x3e
 8000f2a:	b21b      	sxth	r3, r3
 8000f2c:	2b00      	cmp	r3, #0
 8000f2e:	db01      	blt.n	8000f34 <HAL_PCD_IRQHandler+0x2c>
 8000f30:	b005      	add	sp, #20
 8000f32:	bdf0      	pop	{r4, r5, r6, r7, pc}
 8000f34:	210f      	movs	r1, #15
 8000f36:	8fd3      	ldrh	r3, [r2, #62]	@ 0x3e
 8000f38:	4019      	ands	r1, r3
 8000f3a:	9100      	str	r1, [sp, #0]
 8000f3c:	210f      	movs	r1, #15
 8000f3e:	b29a      	uxth	r2, r3
 8000f40:	420b      	tst	r3, r1
 8000f42:	d000      	beq.n	8000f46 <HAL_PCD_IRQHandler+0x3e>
 8000f44:	e0c0      	b.n	80010c8 <HAL_PCD_IRQHandler+0x1c0>
 8000f46:	2310      	movs	r3, #16
 8000f48:	0011      	movs	r1, r2
 8000f4a:	4019      	ands	r1, r3
 8000f4c:	421a      	tst	r2, r3
 8000f4e:	d127      	bne.n	8000fa0 <HAL_PCD_IRQHandler+0x98>
 8000f50:	8803      	ldrh	r3, [r0, #0]
 8000f52:	4aca      	ldr	r2, [pc, #808]	@ (800127c <HAL_PCD_IRQHandler+0x374>)
 8000f54:	4013      	ands	r3, r2
 8000f56:	2280      	movs	r2, #128	@ 0x80
 8000f58:	0212      	lsls	r2, r2, #8
 8000f5a:	4313      	orrs	r3, r2
 8000f5c:	8003      	strh	r3, [r0, #0]
 8000f5e:	0003      	movs	r3, r0
 8000f60:	3350      	adds	r3, #80	@ 0x50
 8000f62:	881a      	ldrh	r2, [r3, #0]
 8000f64:	7c23      	ldrb	r3, [r4, #16]
 8000f66:	00db      	lsls	r3, r3, #3
 8000f68:	18c3      	adds	r3, r0, r3
 8000f6a:	189b      	adds	r3, r3, r2
 8000f6c:	4ac4      	ldr	r2, [pc, #784]	@ (8001280 <HAL_PCD_IRQHandler+0x378>)
 8000f6e:	0020      	movs	r0, r4
 8000f70:	189b      	adds	r3, r3, r2
 8000f72:	881b      	ldrh	r3, [r3, #0]
 8000f74:	6a62      	ldr	r2, [r4, #36]	@ 0x24
 8000f76:	059b      	lsls	r3, r3, #22
 8000f78:	0d9b      	lsrs	r3, r3, #22
 8000f7a:	62e3      	str	r3, [r4, #44]	@ 0x2c
 8000f7c:	18d3      	adds	r3, r2, r3
 8000f7e:	6263      	str	r3, [r4, #36]	@ 0x24
 8000f80:	f002 ff95 	bl	8003eae <HAL_PCD_DataInStageCallback>
 8000f84:	7b23      	ldrb	r3, [r4, #12]
 8000f86:	2b00      	cmp	r3, #0
 8000f88:	d0cc      	beq.n	8000f24 <HAL_PCD_IRQHandler+0x1c>
 8000f8a:	6aa1      	ldr	r1, [r4, #40]	@ 0x28
 8000f8c:	6823      	ldr	r3, [r4, #0]
 8000f8e:	2900      	cmp	r1, #0
 8000f90:	d1c8      	bne.n	8000f24 <HAL_PCD_IRQHandler+0x1c>
 8000f92:	2080      	movs	r0, #128	@ 0x80
 8000f94:	7b22      	ldrb	r2, [r4, #12]
 8000f96:	334c      	adds	r3, #76	@ 0x4c
 8000f98:	4302      	orrs	r2, r0
 8000f9a:	801a      	strh	r2, [r3, #0]
 8000f9c:	7321      	strb	r1, [r4, #12]
 8000f9e:	e7c1      	b.n	8000f24 <HAL_PCD_IRQHandler+0x1c>
 8000fa0:	8802      	ldrh	r2, [r0, #0]
 8000fa2:	2180      	movs	r1, #128	@ 0x80
 8000fa4:	0016      	movs	r6, r2
 8000fa6:	0109      	lsls	r1, r1, #4
 8000fa8:	b293      	uxth	r3, r2
 8000faa:	400e      	ands	r6, r1
 8000fac:	420a      	tst	r2, r1
 8000fae:	d022      	beq.n	8000ff6 <HAL_PCD_IRQHandler+0xee>
 8000fb0:	0003      	movs	r3, r0
 8000fb2:	3350      	adds	r3, #80	@ 0x50
 8000fb4:	881a      	ldrh	r2, [r3, #0]
 8000fb6:	23a8      	movs	r3, #168	@ 0xa8
 8000fb8:	005b      	lsls	r3, r3, #1
 8000fba:	5ce3      	ldrb	r3, [r4, r3]
 8000fbc:	21a6      	movs	r1, #166	@ 0xa6
 8000fbe:	00db      	lsls	r3, r3, #3
 8000fc0:	18c3      	adds	r3, r0, r3
 8000fc2:	189b      	adds	r3, r3, r2
 8000fc4:	4aaf      	ldr	r2, [pc, #700]	@ (8001284 <HAL_PCD_IRQHandler+0x37c>)
 8000fc6:	0089      	lsls	r1, r1, #2
 8000fc8:	189b      	adds	r3, r3, r2
 8000fca:	0022      	movs	r2, r4
 8000fcc:	881b      	ldrh	r3, [r3, #0]
 8000fce:	3251      	adds	r2, #81	@ 0x51
 8000fd0:	059b      	lsls	r3, r3, #22
 8000fd2:	0d9b      	lsrs	r3, r3, #22
 8000fd4:	32ff      	adds	r2, #255	@ 0xff
 8000fd6:	61d3      	str	r3, [r2, #28]
 8000fd8:	1861      	adds	r1, r4, r1
 8000fda:	88d2      	ldrh	r2, [r2, #6]
 8000fdc:	f002 f8f2 	bl	80031c4 <USB_ReadPMA>
 8000fe0:	6821      	ldr	r1, [r4, #0]
 8000fe2:	4ba9      	ldr	r3, [pc, #676]	@ (8001288 <HAL_PCD_IRQHandler+0x380>)
 8000fe4:	880a      	ldrh	r2, [r1, #0]
 8000fe6:	0020      	movs	r0, r4
 8000fe8:	401a      	ands	r2, r3
 8000fea:	2380      	movs	r3, #128	@ 0x80
 8000fec:	4313      	orrs	r3, r2
 8000fee:	800b      	strh	r3, [r1, #0]
 8000ff0:	f002 ff48 	bl	8003e84 <HAL_PCD_SetupStageCallback>
 8000ff4:	e796      	b.n	8000f24 <HAL_PCD_IRQHandler+0x1c>
 8000ff6:	b21b      	sxth	r3, r3
 8000ff8:	2b00      	cmp	r3, #0
 8000ffa:	db00      	blt.n	8000ffe <HAL_PCD_IRQHandler+0xf6>
 8000ffc:	e792      	b.n	8000f24 <HAL_PCD_IRQHandler+0x1c>
 8000ffe:	8802      	ldrh	r2, [r0, #0]
 8001000:	4ba1      	ldr	r3, [pc, #644]	@ (8001288 <HAL_PCD_IRQHandler+0x380>)
 8001002:	0025      	movs	r5, r4
 8001004:	401a      	ands	r2, r3
 8001006:	2380      	movs	r3, #128	@ 0x80
 8001008:	4313      	orrs	r3, r2
 800100a:	8003      	strh	r3, [r0, #0]
 800100c:	0003      	movs	r3, r0
 800100e:	3350      	adds	r3, #80	@ 0x50
 8001010:	881a      	ldrh	r2, [r3, #0]
 8001012:	23a8      	movs	r3, #168	@ 0xa8
 8001014:	005b      	lsls	r3, r3, #1
 8001016:	5ce3      	ldrb	r3, [r4, r3]
 8001018:	3551      	adds	r5, #81	@ 0x51
 800101a:	00db      	lsls	r3, r3, #3
 800101c:	18c3      	adds	r3, r0, r3
 800101e:	189b      	adds	r3, r3, r2
 8001020:	4a98      	ldr	r2, [pc, #608]	@ (8001284 <HAL_PCD_IRQHandler+0x37c>)
 8001022:	35ff      	adds	r5, #255	@ 0xff
 8001024:	189b      	adds	r3, r3, r2
 8001026:	881b      	ldrh	r3, [r3, #0]
 8001028:	059b      	lsls	r3, r3, #22
 800102a:	0d9b      	lsrs	r3, r3, #22
 800102c:	61eb      	str	r3, [r5, #28]
 800102e:	d00d      	beq.n	800104c <HAL_PCD_IRQHandler+0x144>
 8001030:	6969      	ldr	r1, [r5, #20]
 8001032:	2900      	cmp	r1, #0
 8001034:	d00a      	beq.n	800104c <HAL_PCD_IRQHandler+0x144>
 8001036:	88ea      	ldrh	r2, [r5, #6]
 8001038:	f002 f8c4 	bl	80031c4 <USB_ReadPMA>
 800103c:	696b      	ldr	r3, [r5, #20]
 800103e:	69ea      	ldr	r2, [r5, #28]
 8001040:	0031      	movs	r1, r6
 8001042:	189b      	adds	r3, r3, r2
 8001044:	0020      	movs	r0, r4
 8001046:	616b      	str	r3, [r5, #20]
 8001048:	f002 ff25 	bl	8003e96 <HAL_PCD_DataOutStageCallback>
 800104c:	6821      	ldr	r1, [r4, #0]
 800104e:	880a      	ldrh	r2, [r1, #0]
 8001050:	b293      	uxth	r3, r2
 8001052:	0512      	lsls	r2, r2, #20
 8001054:	d500      	bpl.n	8001058 <HAL_PCD_IRQHandler+0x150>
 8001056:	e765      	b.n	8000f24 <HAL_PCD_IRQHandler+0x1c>
 8001058:	22c0      	movs	r2, #192	@ 0xc0
 800105a:	0192      	lsls	r2, r2, #6
 800105c:	4013      	ands	r3, r2
 800105e:	4293      	cmp	r3, r2
 8001060:	d100      	bne.n	8001064 <HAL_PCD_IRQHandler+0x15c>
 8001062:	e75f      	b.n	8000f24 <HAL_PCD_IRQHandler+0x1c>
 8001064:	000b      	movs	r3, r1
 8001066:	4a87      	ldr	r2, [pc, #540]	@ (8001284 <HAL_PCD_IRQHandler+0x37c>)
 8001068:	3350      	adds	r3, #80	@ 0x50
 800106a:	881b      	ldrh	r3, [r3, #0]
 800106c:	188a      	adds	r2, r1, r2
 800106e:	18d2      	adds	r2, r2, r3
 8001070:	8813      	ldrh	r3, [r2, #0]
 8001072:	059b      	lsls	r3, r3, #22
 8001074:	0d9b      	lsrs	r3, r3, #22
 8001076:	8013      	strh	r3, [r2, #0]
 8001078:	692b      	ldr	r3, [r5, #16]
 800107a:	2b00      	cmp	r3, #0
 800107c:	d10e      	bne.n	800109c <HAL_PCD_IRQHandler+0x194>
 800107e:	2080      	movs	r0, #128	@ 0x80
 8001080:	8813      	ldrh	r3, [r2, #0]
 8001082:	0200      	lsls	r0, r0, #8
 8001084:	4303      	orrs	r3, r0
 8001086:	8013      	strh	r3, [r2, #0]
 8001088:	880a      	ldrh	r2, [r1, #0]
 800108a:	4b80      	ldr	r3, [pc, #512]	@ (800128c <HAL_PCD_IRQHandler+0x384>)
 800108c:	401a      	ands	r2, r3
 800108e:	23c0      	movs	r3, #192	@ 0xc0
 8001090:	019b      	lsls	r3, r3, #6
 8001092:	4053      	eors	r3, r2
 8001094:	4a7e      	ldr	r2, [pc, #504]	@ (8001290 <HAL_PCD_IRQHandler+0x388>)
 8001096:	4313      	orrs	r3, r2
 8001098:	800b      	strh	r3, [r1, #0]
 800109a:	e743      	b.n	8000f24 <HAL_PCD_IRQHandler+0x1c>
 800109c:	2b3e      	cmp	r3, #62	@ 0x3e
 800109e:	d808      	bhi.n	80010b2 <HAL_PCD_IRQHandler+0x1aa>
 80010a0:	2501      	movs	r5, #1
 80010a2:	0858      	lsrs	r0, r3, #1
 80010a4:	402b      	ands	r3, r5
 80010a6:	18c0      	adds	r0, r0, r3
 80010a8:	8813      	ldrh	r3, [r2, #0]
 80010aa:	0280      	lsls	r0, r0, #10
 80010ac:	4303      	orrs	r3, r0
 80010ae:	b29b      	uxth	r3, r3
 80010b0:	e7e9      	b.n	8001086 <HAL_PCD_IRQHandler+0x17e>
 80010b2:	251f      	movs	r5, #31
 80010b4:	0958      	lsrs	r0, r3, #5
 80010b6:	402b      	ands	r3, r5
 80010b8:	425d      	negs	r5, r3
 80010ba:	416b      	adcs	r3, r5
 80010bc:	1ac0      	subs	r0, r0, r3
 80010be:	8813      	ldrh	r3, [r2, #0]
 80010c0:	0280      	lsls	r0, r0, #10
 80010c2:	4318      	orrs	r0, r3
 80010c4:	4b73      	ldr	r3, [pc, #460]	@ (8001294 <HAL_PCD_IRQHandler+0x38c>)
 80010c6:	e7f1      	b.n	80010ac <HAL_PCD_IRQHandler+0x1a4>
 80010c8:	9b00      	ldr	r3, [sp, #0]
 80010ca:	009f      	lsls	r7, r3, #2
 80010cc:	19c2      	adds	r2, r0, r7
 80010ce:	8813      	ldrh	r3, [r2, #0]
 80010d0:	b299      	uxth	r1, r3
 80010d2:	b21b      	sxth	r3, r3
 80010d4:	9101      	str	r1, [sp, #4]
 80010d6:	2b00      	cmp	r3, #0
 80010d8:	db00      	blt.n	80010dc <HAL_PCD_IRQHandler+0x1d4>
 80010da:	e092      	b.n	8001202 <HAL_PCD_IRQHandler+0x2fa>
 80010dc:	8813      	ldrh	r3, [r2, #0]
 80010de:	496a      	ldr	r1, [pc, #424]	@ (8001288 <HAL_PCD_IRQHandler+0x380>)
 80010e0:	400b      	ands	r3, r1
 80010e2:	2180      	movs	r1, #128	@ 0x80
 80010e4:	430b      	orrs	r3, r1
 80010e6:	8013      	strh	r3, [r2, #0]
 80010e8:	2328      	movs	r3, #40	@ 0x28
 80010ea:	9a00      	ldr	r2, [sp, #0]
 80010ec:	4353      	muls	r3, r2
 80010ee:	18e3      	adds	r3, r4, r3
 80010f0:	001a      	movs	r2, r3
 80010f2:	001d      	movs	r5, r3
 80010f4:	325d      	adds	r2, #93	@ 0x5d
 80010f6:	32ff      	adds	r2, #255	@ 0xff
 80010f8:	7812      	ldrb	r2, [r2, #0]
 80010fa:	3551      	adds	r5, #81	@ 0x51
 80010fc:	35ff      	adds	r5, #255	@ 0xff
 80010fe:	2a00      	cmp	r2, #0
 8001100:	d114      	bne.n	800112c <HAL_PCD_IRQHandler+0x224>
 8001102:	0002      	movs	r2, r0
 8001104:	3250      	adds	r2, #80	@ 0x50
 8001106:	8811      	ldrh	r1, [r2, #0]
 8001108:	782a      	ldrb	r2, [r5, #0]
 800110a:	00d2      	lsls	r2, r2, #3
 800110c:	1852      	adds	r2, r2, r1
 800110e:	495d      	ldr	r1, [pc, #372]	@ (8001284 <HAL_PCD_IRQHandler+0x37c>)
 8001110:	1812      	adds	r2, r2, r0
 8001112:	1852      	adds	r2, r2, r1
 8001114:	8812      	ldrh	r2, [r2, #0]
 8001116:	0592      	lsls	r2, r2, #22
 8001118:	0d95      	lsrs	r5, r2, #22
 800111a:	2a00      	cmp	r2, #0
 800111c:	d056      	beq.n	80011cc <HAL_PCD_IRQHandler+0x2c4>
 800111e:	001a      	movs	r2, r3
 8001120:	3257      	adds	r2, #87	@ 0x57
 8001122:	32ff      	adds	r2, #255	@ 0xff
 8001124:	33fc      	adds	r3, #252	@ 0xfc
 8001126:	0019      	movs	r1, r3
 8001128:	8812      	ldrh	r2, [r2, #0]
 800112a:	e04b      	b.n	80011c4 <HAL_PCD_IRQHandler+0x2bc>
 800112c:	0019      	movs	r1, r3
 800112e:	3154      	adds	r1, #84	@ 0x54
 8001130:	31ff      	adds	r1, #255	@ 0xff
 8001132:	7809      	ldrb	r1, [r1, #0]
 8001134:	782a      	ldrb	r2, [r5, #0]
 8001136:	2902      	cmp	r1, #2
 8001138:	d000      	beq.n	800113c <HAL_PCD_IRQHandler+0x234>
 800113a:	e0e3      	b.n	8001304 <HAL_PCD_IRQHandler+0x3fc>
 800113c:	2680      	movs	r6, #128	@ 0x80
 800113e:	01f6      	lsls	r6, r6, #7
 8001140:	46b4      	mov	ip, r6
 8001142:	4665      	mov	r5, ip
 8001144:	9e01      	ldr	r6, [sp, #4]
 8001146:	33fc      	adds	r3, #252	@ 0xfc
 8001148:	402e      	ands	r6, r5
 800114a:	9603      	str	r6, [sp, #12]
 800114c:	0006      	movs	r6, r0
 800114e:	3650      	adds	r6, #80	@ 0x50
 8001150:	9602      	str	r6, [sp, #8]
 8001152:	4666      	mov	r6, ip
 8001154:	9d01      	ldr	r5, [sp, #4]
 8001156:	6ed9      	ldr	r1, [r3, #108]	@ 0x6c
 8001158:	4235      	tst	r5, r6
 800115a:	d100      	bne.n	800115e <HAL_PCD_IRQHandler+0x256>
 800115c:	e0a0      	b.n	80012a0 <HAL_PCD_IRQHandler+0x398>
 800115e:	9d02      	ldr	r5, [sp, #8]
 8001160:	882e      	ldrh	r6, [r5, #0]
 8001162:	00d5      	lsls	r5, r2, #3
 8001164:	1976      	adds	r6, r6, r5
 8001166:	4d46      	ldr	r5, [pc, #280]	@ (8001280 <HAL_PCD_IRQHandler+0x378>)
 8001168:	1836      	adds	r6, r6, r0
 800116a:	1976      	adds	r6, r6, r5
 800116c:	8835      	ldrh	r5, [r6, #0]
 800116e:	05ad      	lsls	r5, r5, #22
 8001170:	0dad      	lsrs	r5, r5, #22
 8001172:	428d      	cmp	r5, r1
 8001174:	d90d      	bls.n	8001192 <HAL_PCD_IRQHandler+0x28a>
 8001176:	2100      	movs	r1, #0
 8001178:	66d9      	str	r1, [r3, #108]	@ 0x6c
 800117a:	0091      	lsls	r1, r2, #2
 800117c:	1841      	adds	r1, r0, r1
 800117e:	880e      	ldrh	r6, [r1, #0]
 8001180:	4b42      	ldr	r3, [pc, #264]	@ (800128c <HAL_PCD_IRQHandler+0x384>)
 8001182:	401e      	ands	r6, r3
 8001184:	2380      	movs	r3, #128	@ 0x80
 8001186:	019b      	lsls	r3, r3, #6
 8001188:	4073      	eors	r3, r6
 800118a:	4e41      	ldr	r6, [pc, #260]	@ (8001290 <HAL_PCD_IRQHandler+0x388>)
 800118c:	4333      	orrs	r3, r6
 800118e:	800b      	strh	r3, [r1, #0]
 8001190:	e002      	b.n	8001198 <HAL_PCD_IRQHandler+0x290>
 8001192:	1b49      	subs	r1, r1, r5
 8001194:	66d9      	str	r1, [r3, #108]	@ 0x6c
 8001196:	d0f0      	beq.n	800117a <HAL_PCD_IRQHandler+0x272>
 8001198:	9b01      	ldr	r3, [sp, #4]
 800119a:	065b      	lsls	r3, r3, #25
 800119c:	d507      	bpl.n	80011ae <HAL_PCD_IRQHandler+0x2a6>
 800119e:	0092      	lsls	r2, r2, #2
 80011a0:	1882      	adds	r2, r0, r2
 80011a2:	8813      	ldrh	r3, [r2, #0]
 80011a4:	493c      	ldr	r1, [pc, #240]	@ (8001298 <HAL_PCD_IRQHandler+0x390>)
 80011a6:	400b      	ands	r3, r1
 80011a8:	493c      	ldr	r1, [pc, #240]	@ (800129c <HAL_PCD_IRQHandler+0x394>)
 80011aa:	430b      	orrs	r3, r1
 80011ac:	8013      	strh	r3, [r2, #0]
 80011ae:	2d00      	cmp	r5, #0
 80011b0:	d00c      	beq.n	80011cc <HAL_PCD_IRQHandler+0x2c4>
 80011b2:	2328      	movs	r3, #40	@ 0x28
 80011b4:	9a00      	ldr	r2, [sp, #0]
 80011b6:	4353      	muls	r3, r2
 80011b8:	18e1      	adds	r1, r4, r3
 80011ba:	000a      	movs	r2, r1
 80011bc:	3259      	adds	r2, #89	@ 0x59
 80011be:	32ff      	adds	r2, #255	@ 0xff
 80011c0:	8812      	ldrh	r2, [r2, #0]
 80011c2:	31fc      	adds	r1, #252	@ 0xfc
 80011c4:	002b      	movs	r3, r5
 80011c6:	6e89      	ldr	r1, [r1, #104]	@ 0x68
 80011c8:	f001 fffc 	bl	80031c4 <USB_ReadPMA>
 80011cc:	2328      	movs	r3, #40	@ 0x28
 80011ce:	9900      	ldr	r1, [sp, #0]
 80011d0:	4359      	muls	r1, r3
 80011d2:	1862      	adds	r2, r4, r1
 80011d4:	32fc      	adds	r2, #252	@ 0xfc
 80011d6:	6f10      	ldr	r0, [r2, #112]	@ 0x70
 80011d8:	1940      	adds	r0, r0, r5
 80011da:	6710      	str	r0, [r2, #112]	@ 0x70
 80011dc:	6e90      	ldr	r0, [r2, #104]	@ 0x68
 80011de:	1940      	adds	r0, r0, r5
 80011e0:	6690      	str	r0, [r2, #104]	@ 0x68
 80011e2:	6ed0      	ldr	r0, [r2, #108]	@ 0x6c
 80011e4:	2800      	cmp	r0, #0
 80011e6:	d003      	beq.n	80011f0 <HAL_PCD_IRQHandler+0x2e8>
 80011e8:	6e52      	ldr	r2, [r2, #100]	@ 0x64
 80011ea:	4295      	cmp	r5, r2
 80011ec:	d300      	bcc.n	80011f0 <HAL_PCD_IRQHandler+0x2e8>
 80011ee:	e0b3      	b.n	8001358 <HAL_PCD_IRQHandler+0x450>
 80011f0:	9a00      	ldr	r2, [sp, #0]
 80011f2:	0020      	movs	r0, r4
 80011f4:	4353      	muls	r3, r2
 80011f6:	18e3      	adds	r3, r4, r3
 80011f8:	3351      	adds	r3, #81	@ 0x51
 80011fa:	33ff      	adds	r3, #255	@ 0xff
 80011fc:	7819      	ldrb	r1, [r3, #0]
 80011fe:	f002 fe4a 	bl	8003e96 <HAL_PCD_DataOutStageCallback>
 8001202:	2280      	movs	r2, #128	@ 0x80
 8001204:	9b01      	ldr	r3, [sp, #4]
 8001206:	6820      	ldr	r0, [r4, #0]
 8001208:	4213      	tst	r3, r2
 800120a:	d100      	bne.n	800120e <HAL_PCD_IRQHandler+0x306>
 800120c:	e68a      	b.n	8000f24 <HAL_PCD_IRQHandler+0x1c>
 800120e:	19c2      	adds	r2, r0, r7
 8001210:	8813      	ldrh	r3, [r2, #0]
 8001212:	491a      	ldr	r1, [pc, #104]	@ (800127c <HAL_PCD_IRQHandler+0x374>)
 8001214:	9e00      	ldr	r6, [sp, #0]
 8001216:	400b      	ands	r3, r1
 8001218:	491e      	ldr	r1, [pc, #120]	@ (8001294 <HAL_PCD_IRQHandler+0x38c>)
 800121a:	430b      	orrs	r3, r1
 800121c:	b29b      	uxth	r3, r3
 800121e:	8013      	strh	r3, [r2, #0]
 8001220:	2228      	movs	r2, #40	@ 0x28
 8001222:	4356      	muls	r6, r2
 8001224:	19a3      	adds	r3, r4, r6
 8001226:	7cd9      	ldrb	r1, [r3, #19]
 8001228:	2901      	cmp	r1, #1
 800122a:	d000      	beq.n	800122e <HAL_PCD_IRQHandler+0x326>
 800122c:	e0c7      	b.n	80013be <HAL_PCD_IRQHandler+0x4b6>
 800122e:	9900      	ldr	r1, [sp, #0]
 8001230:	3101      	adds	r1, #1
 8001232:	434a      	muls	r2, r1
 8001234:	2100      	movs	r1, #0
 8001236:	5111      	str	r1, [r2, r4]
 8001238:	7f1a      	ldrb	r2, [r3, #28]
 800123a:	428a      	cmp	r2, r1
 800123c:	d100      	bne.n	8001240 <HAL_PCD_IRQHandler+0x338>
 800123e:	e09e      	b.n	800137e <HAL_PCD_IRQHandler+0x476>
 8001240:	2240      	movs	r2, #64	@ 0x40
 8001242:	9d01      	ldr	r5, [sp, #4]
 8001244:	9e01      	ldr	r6, [sp, #4]
 8001246:	4015      	ands	r5, r2
 8001248:	4216      	tst	r6, r2
 800124a:	d100      	bne.n	800124e <HAL_PCD_IRQHandler+0x346>
 800124c:	e0a0      	b.n	8001390 <HAL_PCD_IRQHandler+0x488>
 800124e:	7c5a      	ldrb	r2, [r3, #17]
 8001250:	428a      	cmp	r2, r1
 8001252:	d000      	beq.n	8001256 <HAL_PCD_IRQHandler+0x34e>
 8001254:	e087      	b.n	8001366 <HAL_PCD_IRQHandler+0x45e>
 8001256:	0002      	movs	r2, r0
 8001258:	3250      	adds	r2, #80	@ 0x50
 800125a:	8811      	ldrh	r1, [r2, #0]
 800125c:	7c1a      	ldrb	r2, [r3, #16]
 800125e:	4b08      	ldr	r3, [pc, #32]	@ (8001280 <HAL_PCD_IRQHandler+0x378>)
 8001260:	00d2      	lsls	r2, r2, #3
 8001262:	18c0      	adds	r0, r0, r3
 8001264:	1841      	adds	r1, r0, r1
 8001266:	1852      	adds	r2, r2, r1
 8001268:	8813      	ldrh	r3, [r2, #0]
 800126a:	490a      	ldr	r1, [pc, #40]	@ (8001294 <HAL_PCD_IRQHandler+0x38c>)
 800126c:	059b      	lsls	r3, r3, #22
 800126e:	0d9b      	lsrs	r3, r3, #22
 8001270:	8013      	strh	r3, [r2, #0]
 8001272:	8813      	ldrh	r3, [r2, #0]
 8001274:	430b      	orrs	r3, r1
 8001276:	b29b      	uxth	r3, r3
 8001278:	8013      	strh	r3, [r2, #0]
 800127a:	e080      	b.n	800137e <HAL_PCD_IRQHandler+0x476>
 800127c:	ffff8f0f 	.word	0xffff8f0f
 8001280:	00000402 	.word	0x00000402
 8001284:	00000406 	.word	0x00000406
 8001288:	00000f8f 	.word	0x00000f8f
 800128c:	ffffbf8f 	.word	0xffffbf8f
 8001290:	00008080 	.word	0x00008080
 8001294:	ffff8000 	.word	0xffff8000
 8001298:	ffff8f8f 	.word	0xffff8f8f
 800129c:	000080c0 	.word	0x000080c0
 80012a0:	9d02      	ldr	r5, [sp, #8]
 80012a2:	882e      	ldrh	r6, [r5, #0]
 80012a4:	00d5      	lsls	r5, r2, #3
 80012a6:	1976      	adds	r6, r6, r5
 80012a8:	4dc7      	ldr	r5, [pc, #796]	@ (80015c8 <HAL_PCD_IRQHandler+0x6c0>)
 80012aa:	1836      	adds	r6, r6, r0
 80012ac:	1976      	adds	r6, r6, r5
 80012ae:	8835      	ldrh	r5, [r6, #0]
 80012b0:	05ad      	lsls	r5, r5, #22
 80012b2:	0dad      	lsrs	r5, r5, #22
 80012b4:	428d      	cmp	r5, r1
 80012b6:	d90d      	bls.n	80012d4 <HAL_PCD_IRQHandler+0x3cc>
 80012b8:	9903      	ldr	r1, [sp, #12]
 80012ba:	66d9      	str	r1, [r3, #108]	@ 0x6c
 80012bc:	0091      	lsls	r1, r2, #2
 80012be:	1841      	adds	r1, r0, r1
 80012c0:	880e      	ldrh	r6, [r1, #0]
 80012c2:	4bc2      	ldr	r3, [pc, #776]	@ (80015cc <HAL_PCD_IRQHandler+0x6c4>)
 80012c4:	401e      	ands	r6, r3
 80012c6:	2380      	movs	r3, #128	@ 0x80
 80012c8:	019b      	lsls	r3, r3, #6
 80012ca:	4073      	eors	r3, r6
 80012cc:	4ec0      	ldr	r6, [pc, #768]	@ (80015d0 <HAL_PCD_IRQHandler+0x6c8>)
 80012ce:	4333      	orrs	r3, r6
 80012d0:	800b      	strh	r3, [r1, #0]
 80012d2:	e002      	b.n	80012da <HAL_PCD_IRQHandler+0x3d2>
 80012d4:	1b49      	subs	r1, r1, r5
 80012d6:	66d9      	str	r1, [r3, #108]	@ 0x6c
 80012d8:	d0f0      	beq.n	80012bc <HAL_PCD_IRQHandler+0x3b4>
 80012da:	9b01      	ldr	r3, [sp, #4]
 80012dc:	065b      	lsls	r3, r3, #25
 80012de:	d407      	bmi.n	80012f0 <HAL_PCD_IRQHandler+0x3e8>
 80012e0:	0092      	lsls	r2, r2, #2
 80012e2:	1882      	adds	r2, r0, r2
 80012e4:	8813      	ldrh	r3, [r2, #0]
 80012e6:	49bb      	ldr	r1, [pc, #748]	@ (80015d4 <HAL_PCD_IRQHandler+0x6cc>)
 80012e8:	400b      	ands	r3, r1
 80012ea:	49bb      	ldr	r1, [pc, #748]	@ (80015d8 <HAL_PCD_IRQHandler+0x6d0>)
 80012ec:	430b      	orrs	r3, r1
 80012ee:	8013      	strh	r3, [r2, #0]
 80012f0:	2d00      	cmp	r5, #0
 80012f2:	d100      	bne.n	80012f6 <HAL_PCD_IRQHandler+0x3ee>
 80012f4:	e76a      	b.n	80011cc <HAL_PCD_IRQHandler+0x2c4>
 80012f6:	2328      	movs	r3, #40	@ 0x28
 80012f8:	9a00      	ldr	r2, [sp, #0]
 80012fa:	4353      	muls	r3, r2
 80012fc:	18e1      	adds	r1, r4, r3
 80012fe:	000a      	movs	r2, r1
 8001300:	325b      	adds	r2, #91	@ 0x5b
 8001302:	e75c      	b.n	80011be <HAL_PCD_IRQHandler+0x2b6>
 8001304:	0092      	lsls	r2, r2, #2
 8001306:	1882      	adds	r2, r0, r2
 8001308:	8816      	ldrh	r6, [r2, #0]
 800130a:	49b2      	ldr	r1, [pc, #712]	@ (80015d4 <HAL_PCD_IRQHandler+0x6cc>)
 800130c:	4031      	ands	r1, r6
 800130e:	4eb2      	ldr	r6, [pc, #712]	@ (80015d8 <HAL_PCD_IRQHandler+0x6d0>)
 8001310:	4331      	orrs	r1, r6
 8001312:	8011      	strh	r1, [r2, #0]
 8001314:	782a      	ldrb	r2, [r5, #0]
 8001316:	0091      	lsls	r1, r2, #2
 8001318:	1841      	adds	r1, r0, r1
 800131a:	880d      	ldrh	r5, [r1, #0]
 800131c:	0001      	movs	r1, r0
 800131e:	3150      	adds	r1, #80	@ 0x50
 8001320:	8809      	ldrh	r1, [r1, #0]
 8001322:	00d2      	lsls	r2, r2, #3
 8001324:	1852      	adds	r2, r2, r1
 8001326:	1812      	adds	r2, r2, r0
 8001328:	046d      	lsls	r5, r5, #17
 800132a:	d50a      	bpl.n	8001342 <HAL_PCD_IRQHandler+0x43a>
 800132c:	49ab      	ldr	r1, [pc, #684]	@ (80015dc <HAL_PCD_IRQHandler+0x6d4>)
 800132e:	1852      	adds	r2, r2, r1
 8001330:	8812      	ldrh	r2, [r2, #0]
 8001332:	0592      	lsls	r2, r2, #22
 8001334:	0d95      	lsrs	r5, r2, #22
 8001336:	2a00      	cmp	r2, #0
 8001338:	d100      	bne.n	800133c <HAL_PCD_IRQHandler+0x434>
 800133a:	e747      	b.n	80011cc <HAL_PCD_IRQHandler+0x2c4>
 800133c:	001a      	movs	r2, r3
 800133e:	3259      	adds	r2, #89	@ 0x59
 8001340:	e6ef      	b.n	8001122 <HAL_PCD_IRQHandler+0x21a>
 8001342:	49a1      	ldr	r1, [pc, #644]	@ (80015c8 <HAL_PCD_IRQHandler+0x6c0>)
 8001344:	1852      	adds	r2, r2, r1
 8001346:	8812      	ldrh	r2, [r2, #0]
 8001348:	0592      	lsls	r2, r2, #22
 800134a:	0d95      	lsrs	r5, r2, #22
 800134c:	2a00      	cmp	r2, #0
 800134e:	d100      	bne.n	8001352 <HAL_PCD_IRQHandler+0x44a>
 8001350:	e73c      	b.n	80011cc <HAL_PCD_IRQHandler+0x2c4>
 8001352:	001a      	movs	r2, r3
 8001354:	325b      	adds	r2, #91	@ 0x5b
 8001356:	e6e4      	b.n	8001122 <HAL_PCD_IRQHandler+0x21a>
 8001358:	3151      	adds	r1, #81	@ 0x51
 800135a:	31ff      	adds	r1, #255	@ 0xff
 800135c:	6820      	ldr	r0, [r4, #0]
 800135e:	1861      	adds	r1, r4, r1
 8001360:	f001 fcfe 	bl	8002d60 <USB_EPStartXfer>
 8001364:	e74d      	b.n	8001202 <HAL_PCD_IRQHandler+0x2fa>
 8001366:	2a01      	cmp	r2, #1
 8001368:	d109      	bne.n	800137e <HAL_PCD_IRQHandler+0x476>
 800136a:	0002      	movs	r2, r0
 800136c:	4d9b      	ldr	r5, [pc, #620]	@ (80015dc <HAL_PCD_IRQHandler+0x6d4>)
 800136e:	3250      	adds	r2, #80	@ 0x50
 8001370:	8812      	ldrh	r2, [r2, #0]
 8001372:	7c1b      	ldrb	r3, [r3, #16]
 8001374:	1940      	adds	r0, r0, r5
 8001376:	00db      	lsls	r3, r3, #3
 8001378:	1880      	adds	r0, r0, r2
 800137a:	181b      	adds	r3, r3, r0
 800137c:	8019      	strh	r1, [r3, #0]
 800137e:	2328      	movs	r3, #40	@ 0x28
 8001380:	9a00      	ldr	r2, [sp, #0]
 8001382:	4353      	muls	r3, r2
 8001384:	18e3      	adds	r3, r4, r3
 8001386:	7c19      	ldrb	r1, [r3, #16]
 8001388:	0020      	movs	r0, r4
 800138a:	f002 fd90 	bl	8003eae <HAL_PCD_DataInStageCallback>
 800138e:	e5c9      	b.n	8000f24 <HAL_PCD_IRQHandler+0x1c>
 8001390:	7c5a      	ldrb	r2, [r3, #17]
 8001392:	2a00      	cmp	r2, #0
 8001394:	d106      	bne.n	80013a4 <HAL_PCD_IRQHandler+0x49c>
 8001396:	0002      	movs	r2, r0
 8001398:	3250      	adds	r2, #80	@ 0x50
 800139a:	8811      	ldrh	r1, [r2, #0]
 800139c:	7c1a      	ldrb	r2, [r3, #16]
 800139e:	4b8a      	ldr	r3, [pc, #552]	@ (80015c8 <HAL_PCD_IRQHandler+0x6c0>)
 80013a0:	00d2      	lsls	r2, r2, #3
 80013a2:	e75e      	b.n	8001262 <HAL_PCD_IRQHandler+0x35a>
 80013a4:	2a01      	cmp	r2, #1
 80013a6:	d1ea      	bne.n	800137e <HAL_PCD_IRQHandler+0x476>
 80013a8:	0002      	movs	r2, r0
 80013aa:	4987      	ldr	r1, [pc, #540]	@ (80015c8 <HAL_PCD_IRQHandler+0x6c0>)
 80013ac:	3250      	adds	r2, #80	@ 0x50
 80013ae:	8812      	ldrh	r2, [r2, #0]
 80013b0:	7c1b      	ldrb	r3, [r3, #16]
 80013b2:	1840      	adds	r0, r0, r1
 80013b4:	00db      	lsls	r3, r3, #3
 80013b6:	1880      	adds	r0, r0, r2
 80013b8:	181b      	adds	r3, r3, r0
 80013ba:	801d      	strh	r5, [r3, #0]
 80013bc:	e7df      	b.n	800137e <HAL_PCD_IRQHandler+0x476>
 80013be:	2780      	movs	r7, #128	@ 0x80
 80013c0:	9901      	ldr	r1, [sp, #4]
 80013c2:	007f      	lsls	r7, r7, #1
 80013c4:	4039      	ands	r1, r7
 80013c6:	7c1a      	ldrb	r2, [r3, #16]
 80013c8:	468c      	mov	ip, r1
 80013ca:	9901      	ldr	r1, [sp, #4]
 80013cc:	9202      	str	r2, [sp, #8]
 80013ce:	6a9d      	ldr	r5, [r3, #40]	@ 0x28
 80013d0:	00d2      	lsls	r2, r2, #3
 80013d2:	4239      	tst	r1, r7
 80013d4:	d11c      	bne.n	8001410 <HAL_PCD_IRQHandler+0x508>
 80013d6:	0007      	movs	r7, r0
 80013d8:	3750      	adds	r7, #80	@ 0x50
 80013da:	883f      	ldrh	r7, [r7, #0]
 80013dc:	18bf      	adds	r7, r7, r2
 80013de:	4a7f      	ldr	r2, [pc, #508]	@ (80015dc <HAL_PCD_IRQHandler+0x6d4>)
 80013e0:	183f      	adds	r7, r7, r0
 80013e2:	18bf      	adds	r7, r7, r2
 80013e4:	883a      	ldrh	r2, [r7, #0]
 80013e6:	0592      	lsls	r2, r2, #22
 80013e8:	0d92      	lsrs	r2, r2, #22
 80013ea:	42aa      	cmp	r2, r5
 80013ec:	d303      	bcc.n	80013f6 <HAL_PCD_IRQHandler+0x4ee>
 80013ee:	4662      	mov	r2, ip
 80013f0:	9902      	ldr	r1, [sp, #8]
 80013f2:	629a      	str	r2, [r3, #40]	@ 0x28
 80013f4:	e7c8      	b.n	8001388 <HAL_PCD_IRQHandler+0x480>
 80013f6:	6a59      	ldr	r1, [r3, #36]	@ 0x24
 80013f8:	1aad      	subs	r5, r5, r2
 80013fa:	1889      	adds	r1, r1, r2
 80013fc:	6259      	str	r1, [r3, #36]	@ 0x24
 80013fe:	6ad9      	ldr	r1, [r3, #44]	@ 0x2c
 8001400:	3610      	adds	r6, #16
 8001402:	188a      	adds	r2, r1, r2
 8001404:	629d      	str	r5, [r3, #40]	@ 0x28
 8001406:	62da      	str	r2, [r3, #44]	@ 0x2c
 8001408:	19a1      	adds	r1, r4, r6
 800140a:	f001 fca9 	bl	8002d60 <USB_EPStartXfer>
 800140e:	e589      	b.n	8000f24 <HAL_PCD_IRQHandler+0x1c>
 8001410:	2140      	movs	r1, #64	@ 0x40
 8001412:	468c      	mov	ip, r1
 8001414:	9f01      	ldr	r7, [sp, #4]
 8001416:	0006      	movs	r6, r0
 8001418:	400f      	ands	r7, r1
 800141a:	9703      	str	r7, [sp, #12]
 800141c:	4667      	mov	r7, ip
 800141e:	9901      	ldr	r1, [sp, #4]
 8001420:	3650      	adds	r6, #80	@ 0x50
 8001422:	4239      	tst	r1, r7
 8001424:	d100      	bne.n	8001428 <HAL_PCD_IRQHandler+0x520>
 8001426:	e0df      	b.n	80015e8 <HAL_PCD_IRQHandler+0x6e0>
 8001428:	496c      	ldr	r1, [pc, #432]	@ (80015dc <HAL_PCD_IRQHandler+0x6d4>)
 800142a:	8837      	ldrh	r7, [r6, #0]
 800142c:	1846      	adds	r6, r0, r1
 800142e:	2100      	movs	r1, #0
 8001430:	19f7      	adds	r7, r6, r7
 8001432:	5abf      	ldrh	r7, [r7, r2]
 8001434:	468c      	mov	ip, r1
 8001436:	05bf      	lsls	r7, r7, #22
 8001438:	0dbf      	lsrs	r7, r7, #22
 800143a:	42af      	cmp	r7, r5
 800143c:	d201      	bcs.n	8001442 <HAL_PCD_IRQHandler+0x53a>
 800143e:	1be9      	subs	r1, r5, r7
 8001440:	468c      	mov	ip, r1
 8001442:	4661      	mov	r1, ip
 8001444:	2580      	movs	r5, #128	@ 0x80
 8001446:	6299      	str	r1, [r3, #40]	@ 0x28
 8001448:	9901      	ldr	r1, [sp, #4]
 800144a:	01ed      	lsls	r5, r5, #7
 800144c:	4029      	ands	r1, r5
 800144e:	000d      	movs	r5, r1
 8001450:	4661      	mov	r1, ip
 8001452:	2900      	cmp	r1, #0
 8001454:	d147      	bne.n	80014e6 <HAL_PCD_IRQHandler+0x5de>
 8001456:	2328      	movs	r3, #40	@ 0x28
 8001458:	9900      	ldr	r1, [sp, #0]
 800145a:	434b      	muls	r3, r1
 800145c:	18e3      	adds	r3, r4, r3
 800145e:	7c5b      	ldrb	r3, [r3, #17]
 8001460:	2b00      	cmp	r3, #0
 8001462:	d130      	bne.n	80014c6 <HAL_PCD_IRQHandler+0x5be>
 8001464:	0007      	movs	r7, r0
 8001466:	3750      	adds	r7, #80	@ 0x50
 8001468:	883b      	ldrh	r3, [r7, #0]
 800146a:	495d      	ldr	r1, [pc, #372]	@ (80015e0 <HAL_PCD_IRQHandler+0x6d8>)
 800146c:	18f3      	adds	r3, r6, r3
 800146e:	189b      	adds	r3, r3, r2
 8001470:	881e      	ldrh	r6, [r3, #0]
 8001472:	05b6      	lsls	r6, r6, #22
 8001474:	0db6      	lsrs	r6, r6, #22
 8001476:	801e      	strh	r6, [r3, #0]
 8001478:	881e      	ldrh	r6, [r3, #0]
 800147a:	430e      	orrs	r6, r1
 800147c:	b2b6      	uxth	r6, r6
 800147e:	801e      	strh	r6, [r3, #0]
 8001480:	4e51      	ldr	r6, [pc, #324]	@ (80015c8 <HAL_PCD_IRQHandler+0x6c0>)
 8001482:	883b      	ldrh	r3, [r7, #0]
 8001484:	1980      	adds	r0, r0, r6
 8001486:	18c0      	adds	r0, r0, r3
 8001488:	1880      	adds	r0, r0, r2
 800148a:	8803      	ldrh	r3, [r0, #0]
 800148c:	059b      	lsls	r3, r3, #22
 800148e:	0d9b      	lsrs	r3, r3, #22
 8001490:	8003      	strh	r3, [r0, #0]
 8001492:	8803      	ldrh	r3, [r0, #0]
 8001494:	430b      	orrs	r3, r1
 8001496:	b29b      	uxth	r3, r3
 8001498:	8003      	strh	r3, [r0, #0]
 800149a:	0020      	movs	r0, r4
 800149c:	9902      	ldr	r1, [sp, #8]
 800149e:	f002 fd06 	bl	8003eae <HAL_PCD_DataInStageCallback>
 80014a2:	2d00      	cmp	r5, #0
 80014a4:	d100      	bne.n	80014a8 <HAL_PCD_IRQHandler+0x5a0>
 80014a6:	e0dc      	b.n	8001662 <HAL_PCD_IRQHandler+0x75a>
 80014a8:	2328      	movs	r3, #40	@ 0x28
 80014aa:	9a00      	ldr	r2, [sp, #0]
 80014ac:	4949      	ldr	r1, [pc, #292]	@ (80015d4 <HAL_PCD_IRQHandler+0x6cc>)
 80014ae:	4353      	muls	r3, r2
 80014b0:	18e3      	adds	r3, r4, r3
 80014b2:	7c1b      	ldrb	r3, [r3, #16]
 80014b4:	6822      	ldr	r2, [r4, #0]
 80014b6:	009b      	lsls	r3, r3, #2
 80014b8:	18d2      	adds	r2, r2, r3
 80014ba:	8813      	ldrh	r3, [r2, #0]
 80014bc:	400b      	ands	r3, r1
 80014be:	4949      	ldr	r1, [pc, #292]	@ (80015e4 <HAL_PCD_IRQHandler+0x6dc>)
 80014c0:	430b      	orrs	r3, r1
 80014c2:	8013      	strh	r3, [r2, #0]
 80014c4:	e0cd      	b.n	8001662 <HAL_PCD_IRQHandler+0x75a>
 80014c6:	2b01      	cmp	r3, #1
 80014c8:	d1e7      	bne.n	800149a <HAL_PCD_IRQHandler+0x592>
 80014ca:	0007      	movs	r7, r0
 80014cc:	4661      	mov	r1, ip
 80014ce:	3750      	adds	r7, #80	@ 0x50
 80014d0:	883b      	ldrh	r3, [r7, #0]
 80014d2:	18f3      	adds	r3, r6, r3
 80014d4:	189b      	adds	r3, r3, r2
 80014d6:	8019      	strh	r1, [r3, #0]
 80014d8:	493b      	ldr	r1, [pc, #236]	@ (80015c8 <HAL_PCD_IRQHandler+0x6c0>)
 80014da:	883b      	ldrh	r3, [r7, #0]
 80014dc:	1840      	adds	r0, r0, r1
 80014de:	18c0      	adds	r0, r0, r3
 80014e0:	1880      	adds	r0, r0, r2
 80014e2:	4663      	mov	r3, ip
 80014e4:	e7d8      	b.n	8001498 <HAL_PCD_IRQHandler+0x590>
 80014e6:	2d00      	cmp	r5, #0
 80014e8:	d00c      	beq.n	8001504 <HAL_PCD_IRQHandler+0x5fc>
 80014ea:	9902      	ldr	r1, [sp, #8]
 80014ec:	0089      	lsls	r1, r1, #2
 80014ee:	1841      	adds	r1, r0, r1
 80014f0:	880d      	ldrh	r5, [r1, #0]
 80014f2:	9101      	str	r1, [sp, #4]
 80014f4:	46ac      	mov	ip, r5
 80014f6:	4661      	mov	r1, ip
 80014f8:	4d36      	ldr	r5, [pc, #216]	@ (80015d4 <HAL_PCD_IRQHandler+0x6cc>)
 80014fa:	400d      	ands	r5, r1
 80014fc:	4939      	ldr	r1, [pc, #228]	@ (80015e4 <HAL_PCD_IRQHandler+0x6dc>)
 80014fe:	430d      	orrs	r5, r1
 8001500:	9901      	ldr	r1, [sp, #4]
 8001502:	800d      	strh	r5, [r1, #0]
 8001504:	2528      	movs	r5, #40	@ 0x28
 8001506:	9900      	ldr	r1, [sp, #0]
 8001508:	434d      	muls	r5, r1
 800150a:	2134      	movs	r1, #52	@ 0x34
 800150c:	468c      	mov	ip, r1
 800150e:	1965      	adds	r5, r4, r5
 8001510:	44ac      	add	ip, r5
 8001512:	4661      	mov	r1, ip
 8001514:	7809      	ldrb	r1, [r1, #0]
 8001516:	2901      	cmp	r1, #1
 8001518:	d000      	beq.n	800151c <HAL_PCD_IRQHandler+0x614>
 800151a:	e0a2      	b.n	8001662 <HAL_PCD_IRQHandler+0x75a>
 800151c:	6a69      	ldr	r1, [r5, #36]	@ 0x24
 800151e:	19c9      	adds	r1, r1, r7
 8001520:	6269      	str	r1, [r5, #36]	@ 0x24
 8001522:	9101      	str	r1, [sp, #4]
 8001524:	6ad9      	ldr	r1, [r3, #44]	@ 0x2c
 8001526:	19c9      	adds	r1, r1, r7
 8001528:	62d9      	str	r1, [r3, #44]	@ 0x2c
 800152a:	6b2b      	ldr	r3, [r5, #48]	@ 0x30
 800152c:	6a29      	ldr	r1, [r5, #32]
 800152e:	428b      	cmp	r3, r1
 8001530:	d317      	bcc.n	8001562 <HAL_PCD_IRQHandler+0x65a>
 8001532:	1a5b      	subs	r3, r3, r1
 8001534:	632b      	str	r3, [r5, #48]	@ 0x30
 8001536:	2328      	movs	r3, #40	@ 0x28
 8001538:	9d00      	ldr	r5, [sp, #0]
 800153a:	436b      	muls	r3, r5
 800153c:	18e3      	adds	r3, r4, r3
 800153e:	7c5d      	ldrb	r5, [r3, #17]
 8001540:	b28b      	uxth	r3, r1
 8001542:	2d00      	cmp	r5, #0
 8001544:	d137      	bne.n	80015b6 <HAL_PCD_IRQHandler+0x6ae>
 8001546:	0005      	movs	r5, r0
 8001548:	3550      	adds	r5, #80	@ 0x50
 800154a:	882d      	ldrh	r5, [r5, #0]
 800154c:	1975      	adds	r5, r6, r5
 800154e:	18aa      	adds	r2, r5, r2
 8001550:	8815      	ldrh	r5, [r2, #0]
 8001552:	05ad      	lsls	r5, r5, #22
 8001554:	0dad      	lsrs	r5, r5, #22
 8001556:	8015      	strh	r5, [r2, #0]
 8001558:	2900      	cmp	r1, #0
 800155a:	d10e      	bne.n	800157a <HAL_PCD_IRQHandler+0x672>
 800155c:	8811      	ldrh	r1, [r2, #0]
 800155e:	4d20      	ldr	r5, [pc, #128]	@ (80015e0 <HAL_PCD_IRQHandler+0x6d8>)
 8001560:	e013      	b.n	800158a <HAL_PCD_IRQHandler+0x682>
 8001562:	2b00      	cmp	r3, #0
 8001564:	d103      	bne.n	800156e <HAL_PCD_IRQHandler+0x666>
 8001566:	4661      	mov	r1, ip
 8001568:	700b      	strb	r3, [r1, #0]
 800156a:	0039      	movs	r1, r7
 800156c:	e7e3      	b.n	8001536 <HAL_PCD_IRQHandler+0x62e>
 800156e:	2100      	movs	r1, #0
 8001570:	4667      	mov	r7, ip
 8001572:	7039      	strb	r1, [r7, #0]
 8001574:	6329      	str	r1, [r5, #48]	@ 0x30
 8001576:	0019      	movs	r1, r3
 8001578:	e7dd      	b.n	8001536 <HAL_PCD_IRQHandler+0x62e>
 800157a:	293e      	cmp	r1, #62	@ 0x3e
 800157c:	d811      	bhi.n	80015a2 <HAL_PCD_IRQHandler+0x69a>
 800157e:	2601      	movs	r6, #1
 8001580:	084d      	lsrs	r5, r1, #1
 8001582:	400e      	ands	r6, r1
 8001584:	19ad      	adds	r5, r5, r6
 8001586:	8811      	ldrh	r1, [r2, #0]
 8001588:	02ad      	lsls	r5, r5, #10
 800158a:	4329      	orrs	r1, r5
 800158c:	b289      	uxth	r1, r1
 800158e:	8011      	strh	r1, [r2, #0]
 8001590:	2228      	movs	r2, #40	@ 0x28
 8001592:	9900      	ldr	r1, [sp, #0]
 8001594:	434a      	muls	r2, r1
 8001596:	18a2      	adds	r2, r4, r2
 8001598:	8b12      	ldrh	r2, [r2, #24]
 800159a:	9901      	ldr	r1, [sp, #4]
 800159c:	f001 fbcb 	bl	8002d36 <USB_WritePMA>
 80015a0:	e05f      	b.n	8001662 <HAL_PCD_IRQHandler+0x75a>
 80015a2:	261f      	movs	r6, #31
 80015a4:	094d      	lsrs	r5, r1, #5
 80015a6:	4031      	ands	r1, r6
 80015a8:	424e      	negs	r6, r1
 80015aa:	4171      	adcs	r1, r6
 80015ac:	1a6d      	subs	r5, r5, r1
 80015ae:	8811      	ldrh	r1, [r2, #0]
 80015b0:	02ad      	lsls	r5, r5, #10
 80015b2:	4329      	orrs	r1, r5
 80015b4:	e7d3      	b.n	800155e <HAL_PCD_IRQHandler+0x656>
 80015b6:	2d01      	cmp	r5, #1
 80015b8:	d1ea      	bne.n	8001590 <HAL_PCD_IRQHandler+0x688>
 80015ba:	0001      	movs	r1, r0
 80015bc:	3150      	adds	r1, #80	@ 0x50
 80015be:	8809      	ldrh	r1, [r1, #0]
 80015c0:	1876      	adds	r6, r6, r1
 80015c2:	18b6      	adds	r6, r6, r2
 80015c4:	8033      	strh	r3, [r6, #0]
 80015c6:	e7e3      	b.n	8001590 <HAL_PCD_IRQHandler+0x688>
 80015c8:	00000406 	.word	0x00000406
 80015cc:	ffffbf8f 	.word	0xffffbf8f
 80015d0:	00008080 	.word	0x00008080
 80015d4:	ffff8f8f 	.word	0xffff8f8f
 80015d8:	000080c0 	.word	0x000080c0
 80015dc:	00000402 	.word	0x00000402
 80015e0:	ffff8000 	.word	0xffff8000
 80015e4:	0000c080 	.word	0x0000c080
 80015e8:	49ac      	ldr	r1, [pc, #688]	@ (800189c <HAL_PCD_IRQHandler+0x994>)
 80015ea:	8836      	ldrh	r6, [r6, #0]
 80015ec:	468c      	mov	ip, r1
 80015ee:	4484      	add	ip, r0
 80015f0:	4466      	add	r6, ip
 80015f2:	5ab6      	ldrh	r6, [r6, r2]
 80015f4:	9f03      	ldr	r7, [sp, #12]
 80015f6:	05b6      	lsls	r6, r6, #22
 80015f8:	0db6      	lsrs	r6, r6, #22
 80015fa:	42ae      	cmp	r6, r5
 80015fc:	d800      	bhi.n	8001600 <HAL_PCD_IRQHandler+0x6f8>
 80015fe:	1baf      	subs	r7, r5, r6
 8001600:	2580      	movs	r5, #128	@ 0x80
 8001602:	9901      	ldr	r1, [sp, #4]
 8001604:	01ed      	lsls	r5, r5, #7
 8001606:	4029      	ands	r1, r5
 8001608:	000d      	movs	r5, r1
 800160a:	629f      	str	r7, [r3, #40]	@ 0x28
 800160c:	2f00      	cmp	r7, #0
 800160e:	d149      	bne.n	80016a4 <HAL_PCD_IRQHandler+0x79c>
 8001610:	2328      	movs	r3, #40	@ 0x28
 8001612:	9900      	ldr	r1, [sp, #0]
 8001614:	434b      	muls	r3, r1
 8001616:	18e3      	adds	r3, r4, r3
 8001618:	7c5b      	ldrb	r3, [r3, #17]
 800161a:	2b00      	cmp	r3, #0
 800161c:	d133      	bne.n	8001686 <HAL_PCD_IRQHandler+0x77e>
 800161e:	0003      	movs	r3, r0
 8001620:	499f      	ldr	r1, [pc, #636]	@ (80018a0 <HAL_PCD_IRQHandler+0x998>)
 8001622:	3350      	adds	r3, #80	@ 0x50
 8001624:	881e      	ldrh	r6, [r3, #0]
 8001626:	1840      	adds	r0, r0, r1
 8001628:	1980      	adds	r0, r0, r6
 800162a:	1880      	adds	r0, r0, r2
 800162c:	8806      	ldrh	r6, [r0, #0]
 800162e:	499d      	ldr	r1, [pc, #628]	@ (80018a4 <HAL_PCD_IRQHandler+0x99c>)
 8001630:	05b6      	lsls	r6, r6, #22
 8001632:	0db6      	lsrs	r6, r6, #22
 8001634:	8006      	strh	r6, [r0, #0]
 8001636:	8806      	ldrh	r6, [r0, #0]
 8001638:	430e      	orrs	r6, r1
 800163a:	b2b6      	uxth	r6, r6
 800163c:	8006      	strh	r6, [r0, #0]
 800163e:	881b      	ldrh	r3, [r3, #0]
 8001640:	4463      	add	r3, ip
 8001642:	189b      	adds	r3, r3, r2
 8001644:	881a      	ldrh	r2, [r3, #0]
 8001646:	0592      	lsls	r2, r2, #22
 8001648:	0d92      	lsrs	r2, r2, #22
 800164a:	801a      	strh	r2, [r3, #0]
 800164c:	881a      	ldrh	r2, [r3, #0]
 800164e:	430a      	orrs	r2, r1
 8001650:	b292      	uxth	r2, r2
 8001652:	801a      	strh	r2, [r3, #0]
 8001654:	0020      	movs	r0, r4
 8001656:	9902      	ldr	r1, [sp, #8]
 8001658:	f002 fc29 	bl	8003eae <HAL_PCD_DataInStageCallback>
 800165c:	2d00      	cmp	r5, #0
 800165e:	d100      	bne.n	8001662 <HAL_PCD_IRQHandler+0x75a>
 8001660:	e722      	b.n	80014a8 <HAL_PCD_IRQHandler+0x5a0>
 8001662:	2328      	movs	r3, #40	@ 0x28
 8001664:	9a00      	ldr	r2, [sp, #0]
 8001666:	4353      	muls	r3, r2
 8001668:	18e3      	adds	r3, r4, r3
 800166a:	7c1b      	ldrb	r3, [r3, #16]
 800166c:	6822      	ldr	r2, [r4, #0]
 800166e:	009b      	lsls	r3, r3, #2
 8001670:	18d2      	adds	r2, r2, r3
 8001672:	8811      	ldrh	r1, [r2, #0]
 8001674:	4b8c      	ldr	r3, [pc, #560]	@ (80018a8 <HAL_PCD_IRQHandler+0x9a0>)
 8001676:	4019      	ands	r1, r3
 8001678:	2330      	movs	r3, #48	@ 0x30
 800167a:	404b      	eors	r3, r1
 800167c:	498b      	ldr	r1, [pc, #556]	@ (80018ac <HAL_PCD_IRQHandler+0x9a4>)
 800167e:	430b      	orrs	r3, r1
 8001680:	8013      	strh	r3, [r2, #0]
 8001682:	f7ff fc4f 	bl	8000f24 <HAL_PCD_IRQHandler+0x1c>
 8001686:	2b01      	cmp	r3, #1
 8001688:	d1e4      	bne.n	8001654 <HAL_PCD_IRQHandler+0x74c>
 800168a:	0003      	movs	r3, r0
 800168c:	4984      	ldr	r1, [pc, #528]	@ (80018a0 <HAL_PCD_IRQHandler+0x998>)
 800168e:	3350      	adds	r3, #80	@ 0x50
 8001690:	881e      	ldrh	r6, [r3, #0]
 8001692:	1840      	adds	r0, r0, r1
 8001694:	1980      	adds	r0, r0, r6
 8001696:	1880      	adds	r0, r0, r2
 8001698:	8007      	strh	r7, [r0, #0]
 800169a:	881b      	ldrh	r3, [r3, #0]
 800169c:	4463      	add	r3, ip
 800169e:	189b      	adds	r3, r3, r2
 80016a0:	801f      	strh	r7, [r3, #0]
 80016a2:	e7d7      	b.n	8001654 <HAL_PCD_IRQHandler+0x74c>
 80016a4:	2900      	cmp	r1, #0
 80016a6:	d108      	bne.n	80016ba <HAL_PCD_IRQHandler+0x7b2>
 80016a8:	9902      	ldr	r1, [sp, #8]
 80016aa:	4d81      	ldr	r5, [pc, #516]	@ (80018b0 <HAL_PCD_IRQHandler+0x9a8>)
 80016ac:	0089      	lsls	r1, r1, #2
 80016ae:	1841      	adds	r1, r0, r1
 80016b0:	880f      	ldrh	r7, [r1, #0]
 80016b2:	403d      	ands	r5, r7
 80016b4:	4f7f      	ldr	r7, [pc, #508]	@ (80018b4 <HAL_PCD_IRQHandler+0x9ac>)
 80016b6:	433d      	orrs	r5, r7
 80016b8:	800d      	strh	r5, [r1, #0]
 80016ba:	2728      	movs	r7, #40	@ 0x28
 80016bc:	9900      	ldr	r1, [sp, #0]
 80016be:	434f      	muls	r7, r1
 80016c0:	19e7      	adds	r7, r4, r7
 80016c2:	0039      	movs	r1, r7
 80016c4:	3134      	adds	r1, #52	@ 0x34
 80016c6:	9101      	str	r1, [sp, #4]
 80016c8:	7809      	ldrb	r1, [r1, #0]
 80016ca:	2901      	cmp	r1, #1
 80016cc:	d1c9      	bne.n	8001662 <HAL_PCD_IRQHandler+0x75a>
 80016ce:	6a79      	ldr	r1, [r7, #36]	@ 0x24
 80016d0:	1989      	adds	r1, r1, r6
 80016d2:	6279      	str	r1, [r7, #36]	@ 0x24
 80016d4:	6add      	ldr	r5, [r3, #44]	@ 0x2c
 80016d6:	19ad      	adds	r5, r5, r6
 80016d8:	62dd      	str	r5, [r3, #44]	@ 0x2c
 80016da:	6b3b      	ldr	r3, [r7, #48]	@ 0x30
 80016dc:	6a3d      	ldr	r5, [r7, #32]
 80016de:	42ab      	cmp	r3, r5
 80016e0:	d317      	bcc.n	8001712 <HAL_PCD_IRQHandler+0x80a>
 80016e2:	1b5b      	subs	r3, r3, r5
 80016e4:	633b      	str	r3, [r7, #48]	@ 0x30
 80016e6:	2328      	movs	r3, #40	@ 0x28
 80016e8:	9e00      	ldr	r6, [sp, #0]
 80016ea:	4373      	muls	r3, r6
 80016ec:	18e3      	adds	r3, r4, r3
 80016ee:	7c5e      	ldrb	r6, [r3, #17]
 80016f0:	b2ab      	uxth	r3, r5
 80016f2:	2e00      	cmp	r6, #0
 80016f4:	d134      	bne.n	8001760 <HAL_PCD_IRQHandler+0x858>
 80016f6:	0006      	movs	r6, r0
 80016f8:	3650      	adds	r6, #80	@ 0x50
 80016fa:	8836      	ldrh	r6, [r6, #0]
 80016fc:	4466      	add	r6, ip
 80016fe:	18b2      	adds	r2, r6, r2
 8001700:	8816      	ldrh	r6, [r2, #0]
 8001702:	05b6      	lsls	r6, r6, #22
 8001704:	0db6      	lsrs	r6, r6, #22
 8001706:	8016      	strh	r6, [r2, #0]
 8001708:	2d00      	cmp	r5, #0
 800170a:	d10e      	bne.n	800172a <HAL_PCD_IRQHandler+0x822>
 800170c:	8815      	ldrh	r5, [r2, #0]
 800170e:	4e65      	ldr	r6, [pc, #404]	@ (80018a4 <HAL_PCD_IRQHandler+0x99c>)
 8001710:	e013      	b.n	800173a <HAL_PCD_IRQHandler+0x832>
 8001712:	2b00      	cmp	r3, #0
 8001714:	d103      	bne.n	800171e <HAL_PCD_IRQHandler+0x816>
 8001716:	9d01      	ldr	r5, [sp, #4]
 8001718:	702b      	strb	r3, [r5, #0]
 800171a:	0035      	movs	r5, r6
 800171c:	e7e3      	b.n	80016e6 <HAL_PCD_IRQHandler+0x7de>
 800171e:	2500      	movs	r5, #0
 8001720:	9e01      	ldr	r6, [sp, #4]
 8001722:	633d      	str	r5, [r7, #48]	@ 0x30
 8001724:	7035      	strb	r5, [r6, #0]
 8001726:	001d      	movs	r5, r3
 8001728:	e7dd      	b.n	80016e6 <HAL_PCD_IRQHandler+0x7de>
 800172a:	2d3e      	cmp	r5, #62	@ 0x3e
 800172c:	d80e      	bhi.n	800174c <HAL_PCD_IRQHandler+0x844>
 800172e:	2701      	movs	r7, #1
 8001730:	086e      	lsrs	r6, r5, #1
 8001732:	402f      	ands	r7, r5
 8001734:	19f6      	adds	r6, r6, r7
 8001736:	8815      	ldrh	r5, [r2, #0]
 8001738:	02b6      	lsls	r6, r6, #10
 800173a:	4335      	orrs	r5, r6
 800173c:	b2ad      	uxth	r5, r5
 800173e:	8015      	strh	r5, [r2, #0]
 8001740:	2228      	movs	r2, #40	@ 0x28
 8001742:	9d00      	ldr	r5, [sp, #0]
 8001744:	436a      	muls	r2, r5
 8001746:	18a2      	adds	r2, r4, r2
 8001748:	8b52      	ldrh	r2, [r2, #26]
 800174a:	e727      	b.n	800159c <HAL_PCD_IRQHandler+0x694>
 800174c:	271f      	movs	r7, #31
 800174e:	096e      	lsrs	r6, r5, #5
 8001750:	403d      	ands	r5, r7
 8001752:	426f      	negs	r7, r5
 8001754:	417d      	adcs	r5, r7
 8001756:	1b76      	subs	r6, r6, r5
 8001758:	8815      	ldrh	r5, [r2, #0]
 800175a:	02b6      	lsls	r6, r6, #10
 800175c:	4335      	orrs	r5, r6
 800175e:	e7d6      	b.n	800170e <HAL_PCD_IRQHandler+0x806>
 8001760:	2e01      	cmp	r6, #1
 8001762:	d1ed      	bne.n	8001740 <HAL_PCD_IRQHandler+0x838>
 8001764:	0005      	movs	r5, r0
 8001766:	3550      	adds	r5, #80	@ 0x50
 8001768:	882d      	ldrh	r5, [r5, #0]
 800176a:	4465      	add	r5, ip
 800176c:	18aa      	adds	r2, r5, r2
 800176e:	8013      	strh	r3, [r2, #0]
 8001770:	e7e6      	b.n	8001740 <HAL_PCD_IRQHandler+0x838>
 8001772:	0543      	lsls	r3, r0, #21
 8001774:	d50e      	bpl.n	8001794 <HAL_PCD_IRQHandler+0x88c>
 8001776:	6823      	ldr	r3, [r4, #0]
 8001778:	494f      	ldr	r1, [pc, #316]	@ (80018b8 <HAL_PCD_IRQHandler+0x9b0>)
 800177a:	3306      	adds	r3, #6
 800177c:	8fda      	ldrh	r2, [r3, #62]	@ 0x3e
 800177e:	0020      	movs	r0, r4
 8001780:	400a      	ands	r2, r1
 8001782:	87da      	strh	r2, [r3, #62]	@ 0x3e
 8001784:	f002 fba5 	bl	8003ed2 <HAL_PCD_ResetCallback>
 8001788:	0029      	movs	r1, r5
 800178a:	0020      	movs	r0, r4
 800178c:	f7ff fbab 	bl	8000ee6 <HAL_PCD_SetAddress>
 8001790:	f7ff fbce 	bl	8000f30 <HAL_PCD_IRQHandler+0x28>
 8001794:	0443      	lsls	r3, r0, #17
 8001796:	d507      	bpl.n	80017a8 <HAL_PCD_IRQHandler+0x8a0>
 8001798:	6823      	ldr	r3, [r4, #0]
 800179a:	4948      	ldr	r1, [pc, #288]	@ (80018bc <HAL_PCD_IRQHandler+0x9b4>)
 800179c:	3306      	adds	r3, #6
 800179e:	8fda      	ldrh	r2, [r3, #62]	@ 0x3e
 80017a0:	400a      	ands	r2, r1
 80017a2:	87da      	strh	r2, [r3, #62]	@ 0x3e
 80017a4:	f7ff fbc4 	bl	8000f30 <HAL_PCD_IRQHandler+0x28>
 80017a8:	2380      	movs	r3, #128	@ 0x80
 80017aa:	0001      	movs	r1, r0
 80017ac:	019b      	lsls	r3, r3, #6
 80017ae:	4019      	ands	r1, r3
 80017b0:	4218      	tst	r0, r3
 80017b2:	d004      	beq.n	80017be <HAL_PCD_IRQHandler+0x8b6>
 80017b4:	6823      	ldr	r3, [r4, #0]
 80017b6:	4942      	ldr	r1, [pc, #264]	@ (80018c0 <HAL_PCD_IRQHandler+0x9b8>)
 80017b8:	3306      	adds	r3, #6
 80017ba:	8fda      	ldrh	r2, [r3, #62]	@ 0x3e
 80017bc:	e7f0      	b.n	80017a0 <HAL_PCD_IRQHandler+0x898>
 80017be:	04c3      	lsls	r3, r0, #19
 80017c0:	d51a      	bpl.n	80017f8 <HAL_PCD_IRQHandler+0x8f0>
 80017c2:	2004      	movs	r0, #4
 80017c4:	6823      	ldr	r3, [r4, #0]
 80017c6:	3302      	adds	r3, #2
 80017c8:	8fda      	ldrh	r2, [r3, #62]	@ 0x3e
 80017ca:	4382      	bics	r2, r0
 80017cc:	87da      	strh	r2, [r3, #62]	@ 0x3e
 80017ce:	8fda      	ldrh	r2, [r3, #62]	@ 0x3e
 80017d0:	1800      	adds	r0, r0, r0
 80017d2:	4382      	bics	r2, r0
 80017d4:	87da      	strh	r2, [r3, #62]	@ 0x3e
 80017d6:	23b2      	movs	r3, #178	@ 0xb2
 80017d8:	009b      	lsls	r3, r3, #2
 80017da:	5ce2      	ldrb	r2, [r4, r3]
 80017dc:	2a01      	cmp	r2, #1
 80017de:	d103      	bne.n	80017e8 <HAL_PCD_IRQHandler+0x8e0>
 80017e0:	0020      	movs	r0, r4
 80017e2:	54e1      	strb	r1, [r4, r3]
 80017e4:	f000 f983 	bl	8001aee <HAL_PCDEx_LPM_Callback>
 80017e8:	0020      	movs	r0, r4
 80017ea:	f002 fb95 	bl	8003f18 <HAL_PCD_ResumeCallback>
 80017ee:	6823      	ldr	r3, [r4, #0]
 80017f0:	4934      	ldr	r1, [pc, #208]	@ (80018c4 <HAL_PCD_IRQHandler+0x9bc>)
 80017f2:	3306      	adds	r3, #6
 80017f4:	8fda      	ldrh	r2, [r3, #62]	@ 0x3e
 80017f6:	e7d3      	b.n	80017a0 <HAL_PCD_IRQHandler+0x898>
 80017f8:	0503      	lsls	r3, r0, #20
 80017fa:	d513      	bpl.n	8001824 <HAL_PCD_IRQHandler+0x91c>
 80017fc:	2108      	movs	r1, #8
 80017fe:	6823      	ldr	r3, [r4, #0]
 8001800:	1c9a      	adds	r2, r3, #2
 8001802:	8fd0      	ldrh	r0, [r2, #62]	@ 0x3e
 8001804:	3306      	adds	r3, #6
 8001806:	4301      	orrs	r1, r0
 8001808:	87d1      	strh	r1, [r2, #62]	@ 0x3e
 800180a:	8fd9      	ldrh	r1, [r3, #62]	@ 0x3e
 800180c:	482e      	ldr	r0, [pc, #184]	@ (80018c8 <HAL_PCD_IRQHandler+0x9c0>)
 800180e:	4001      	ands	r1, r0
 8001810:	87d9      	strh	r1, [r3, #62]	@ 0x3e
 8001812:	2304      	movs	r3, #4
 8001814:	8fd1      	ldrh	r1, [r2, #62]	@ 0x3e
 8001816:	430b      	orrs	r3, r1
 8001818:	87d3      	strh	r3, [r2, #62]	@ 0x3e
 800181a:	0020      	movs	r0, r4
 800181c:	f002 fb6a 	bl	8003ef4 <HAL_PCD_SuspendCallback>
 8001820:	f7ff fb86 	bl	8000f30 <HAL_PCD_IRQHandler+0x28>
 8001824:	2580      	movs	r5, #128	@ 0x80
 8001826:	4228      	tst	r0, r5
 8001828:	d021      	beq.n	800186e <HAL_PCD_IRQHandler+0x966>
 800182a:	20b2      	movs	r0, #178	@ 0xb2
 800182c:	6823      	ldr	r3, [r4, #0]
 800182e:	0080      	lsls	r0, r0, #2
 8001830:	1d99      	adds	r1, r3, #6
 8001832:	8fca      	ldrh	r2, [r1, #62]	@ 0x3e
 8001834:	43aa      	bics	r2, r5
 8001836:	87ca      	strh	r2, [r1, #62]	@ 0x3e
 8001838:	5c22      	ldrb	r2, [r4, r0]
 800183a:	2a00      	cmp	r2, #0
 800183c:	d1ed      	bne.n	800181a <HAL_PCD_IRQHandler+0x912>
 800183e:	2104      	movs	r1, #4
 8001840:	1c9a      	adds	r2, r3, #2
 8001842:	8fd5      	ldrh	r5, [r2, #62]	@ 0x3e
 8001844:	3354      	adds	r3, #84	@ 0x54
 8001846:	4329      	orrs	r1, r5
 8001848:	87d1      	strh	r1, [r2, #62]	@ 0x3e
 800184a:	2108      	movs	r1, #8
 800184c:	8fd5      	ldrh	r5, [r2, #62]	@ 0x3e
 800184e:	4329      	orrs	r1, r5
 8001850:	87d1      	strh	r1, [r2, #62]	@ 0x3e
 8001852:	2101      	movs	r1, #1
 8001854:	223c      	movs	r2, #60	@ 0x3c
 8001856:	5421      	strb	r1, [r4, r0]
 8001858:	881b      	ldrh	r3, [r3, #0]
 800185a:	0020      	movs	r0, r4
 800185c:	089b      	lsrs	r3, r3, #2
 800185e:	4013      	ands	r3, r2
 8001860:	22b3      	movs	r2, #179	@ 0xb3
 8001862:	0092      	lsls	r2, r2, #2
 8001864:	50a3      	str	r3, [r4, r2]
 8001866:	f000 f942 	bl	8001aee <HAL_PCDEx_LPM_Callback>
 800186a:	f7ff fb61 	bl	8000f30 <HAL_PCD_IRQHandler+0x28>
 800186e:	0583      	lsls	r3, r0, #22
 8001870:	d50a      	bpl.n	8001888 <HAL_PCD_IRQHandler+0x980>
 8001872:	6823      	ldr	r3, [r4, #0]
 8001874:	4915      	ldr	r1, [pc, #84]	@ (80018cc <HAL_PCD_IRQHandler+0x9c4>)
 8001876:	3306      	adds	r3, #6
 8001878:	8fda      	ldrh	r2, [r3, #62]	@ 0x3e
 800187a:	0020      	movs	r0, r4
 800187c:	400a      	ands	r2, r1
 800187e:	87da      	strh	r2, [r3, #62]	@ 0x3e
 8001880:	f002 fb20 	bl	8003ec4 <HAL_PCD_SOFCallback>
 8001884:	f7ff fb54 	bl	8000f30 <HAL_PCD_IRQHandler+0x28>
 8001888:	05c0      	lsls	r0, r0, #23
 800188a:	d401      	bmi.n	8001890 <HAL_PCD_IRQHandler+0x988>
 800188c:	f7ff fb50 	bl	8000f30 <HAL_PCD_IRQHandler+0x28>
 8001890:	6823      	ldr	r3, [r4, #0]
 8001892:	490f      	ldr	r1, [pc, #60]	@ (80018d0 <HAL_PCD_IRQHandler+0x9c8>)
 8001894:	3306      	adds	r3, #6
 8001896:	8fda      	ldrh	r2, [r3, #62]	@ 0x3e
 8001898:	e782      	b.n	80017a0 <HAL_PCD_IRQHandler+0x898>
 800189a:	46c0      	nop			@ (mov r8, r8)
 800189c:	00000406 	.word	0x00000406
 80018a0:	00000402 	.word	0x00000402
 80018a4:	ffff8000 	.word	0xffff8000
 80018a8:	ffff8fbf 	.word	0xffff8fbf
 80018ac:	00008080 	.word	0x00008080
 80018b0:	ffff8f8f 	.word	0xffff8f8f
 80018b4:	0000c080 	.word	0x0000c080
 80018b8:	fffffbff 	.word	0xfffffbff
 80018bc:	ffffbfff 	.word	0xffffbfff
 80018c0:	ffffdfff 	.word	0xffffdfff
 80018c4:	ffffefff 	.word	0xffffefff
 80018c8:	fffff7ff 	.word	0xfffff7ff
 80018cc:	fffffdff 	.word	0xfffffdff
 80018d0:	fffffeff 	.word	0xfffffeff

080018d4 <HAL_PCD_EP_Open>:
 80018d4:	b570      	push	{r4, r5, r6, lr}
 80018d6:	0004      	movs	r4, r0
 80018d8:	2007      	movs	r0, #7
 80018da:	000d      	movs	r5, r1
 80018dc:	4008      	ands	r0, r1
 80018de:	2128      	movs	r1, #40	@ 0x28
 80018e0:	4341      	muls	r1, r0
 80018e2:	b26d      	sxtb	r5, r5
 80018e4:	1866      	adds	r6, r4, r1
 80018e6:	2d00      	cmp	r5, #0
 80018e8:	da18      	bge.n	800191c <HAL_PCD_EP_Open+0x48>
 80018ea:	2501      	movs	r5, #1
 80018ec:	3110      	adds	r1, #16
 80018ee:	1861      	adds	r1, r4, r1
 80018f0:	7475      	strb	r5, [r6, #17]
 80018f2:	7008      	strb	r0, [r1, #0]
 80018f4:	610a      	str	r2, [r1, #16]
 80018f6:	70cb      	strb	r3, [r1, #3]
 80018f8:	2b02      	cmp	r3, #2
 80018fa:	d101      	bne.n	8001900 <HAL_PCD_EP_Open+0x2c>
 80018fc:	2300      	movs	r3, #0
 80018fe:	710b      	strb	r3, [r1, #4]
 8001900:	25a4      	movs	r5, #164	@ 0xa4
 8001902:	00ad      	lsls	r5, r5, #2
 8001904:	5d63      	ldrb	r3, [r4, r5]
 8001906:	2002      	movs	r0, #2
 8001908:	2b01      	cmp	r3, #1
 800190a:	d006      	beq.n	800191a <HAL_PCD_EP_Open+0x46>
 800190c:	2301      	movs	r3, #1
 800190e:	5563      	strb	r3, [r4, r5]
 8001910:	6820      	ldr	r0, [r4, #0]
 8001912:	f001 f817 	bl	8002944 <USB_ActivateEndpoint>
 8001916:	2000      	movs	r0, #0
 8001918:	5560      	strb	r0, [r4, r5]
 800191a:	bd70      	pop	{r4, r5, r6, pc}
 800191c:	2500      	movs	r5, #0
 800191e:	3151      	adds	r1, #81	@ 0x51
 8001920:	3652      	adds	r6, #82	@ 0x52
 8001922:	31ff      	adds	r1, #255	@ 0xff
 8001924:	36ff      	adds	r6, #255	@ 0xff
 8001926:	1861      	adds	r1, r4, r1
 8001928:	7035      	strb	r5, [r6, #0]
 800192a:	e7e2      	b.n	80018f2 <HAL_PCD_EP_Open+0x1e>

0800192c <HAL_PCD_EP_Close>:
 800192c:	2207      	movs	r2, #7
 800192e:	000b      	movs	r3, r1
 8001930:	400a      	ands	r2, r1
 8001932:	2128      	movs	r1, #40	@ 0x28
 8001934:	4351      	muls	r1, r2
 8001936:	b25b      	sxtb	r3, r3
 8001938:	b570      	push	{r4, r5, r6, lr}
 800193a:	0004      	movs	r4, r0
 800193c:	1840      	adds	r0, r0, r1
 800193e:	2b00      	cmp	r3, #0
 8001940:	da12      	bge.n	8001968 <HAL_PCD_EP_Close+0x3c>
 8001942:	2301      	movs	r3, #1
 8001944:	3110      	adds	r1, #16
 8001946:	1861      	adds	r1, r4, r1
 8001948:	7443      	strb	r3, [r0, #17]
 800194a:	25a4      	movs	r5, #164	@ 0xa4
 800194c:	700a      	strb	r2, [r1, #0]
 800194e:	00ad      	lsls	r5, r5, #2
 8001950:	5d63      	ldrb	r3, [r4, r5]
 8001952:	2002      	movs	r0, #2
 8001954:	2b01      	cmp	r3, #1
 8001956:	d006      	beq.n	8001966 <HAL_PCD_EP_Close+0x3a>
 8001958:	2301      	movs	r3, #1
 800195a:	5563      	strb	r3, [r4, r5]
 800195c:	6820      	ldr	r0, [r4, #0]
 800195e:	f001 f901 	bl	8002b64 <USB_DeactivateEndpoint>
 8001962:	2000      	movs	r0, #0
 8001964:	5560      	strb	r0, [r4, r5]
 8001966:	bd70      	pop	{r4, r5, r6, pc}
 8001968:	2300      	movs	r3, #0
 800196a:	3151      	adds	r1, #81	@ 0x51
 800196c:	3052      	adds	r0, #82	@ 0x52
 800196e:	31ff      	adds	r1, #255	@ 0xff
 8001970:	30ff      	adds	r0, #255	@ 0xff
 8001972:	1861      	adds	r1, r4, r1
 8001974:	7003      	strb	r3, [r0, #0]
 8001976:	e7e8      	b.n	800194a <HAL_PCD_EP_Close+0x1e>

08001978 <HAL_PCD_EP_Receive>:
 8001978:	b5f8      	push	{r3, r4, r5, r6, r7, lr}
 800197a:	2407      	movs	r4, #7
 800197c:	4021      	ands	r1, r4
 800197e:	3421      	adds	r4, #33	@ 0x21
 8001980:	434c      	muls	r4, r1
 8001982:	1906      	adds	r6, r0, r4
 8001984:	0037      	movs	r7, r6
 8001986:	37fc      	adds	r7, #252	@ 0xfc
 8001988:	66fb      	str	r3, [r7, #108]	@ 0x6c
 800198a:	0033      	movs	r3, r6
 800198c:	2500      	movs	r5, #0
 800198e:	3352      	adds	r3, #82	@ 0x52
 8001990:	3651      	adds	r6, #81	@ 0x51
 8001992:	3451      	adds	r4, #81	@ 0x51
 8001994:	33ff      	adds	r3, #255	@ 0xff
 8001996:	36ff      	adds	r6, #255	@ 0xff
 8001998:	34ff      	adds	r4, #255	@ 0xff
 800199a:	673d      	str	r5, [r7, #112]	@ 0x70
 800199c:	66ba      	str	r2, [r7, #104]	@ 0x68
 800199e:	701d      	strb	r5, [r3, #0]
 80019a0:	7031      	strb	r1, [r6, #0]
 80019a2:	1901      	adds	r1, r0, r4
 80019a4:	6800      	ldr	r0, [r0, #0]
 80019a6:	f001 f9db 	bl	8002d60 <USB_EPStartXfer>
 80019aa:	0028      	movs	r0, r5
 80019ac:	bdf8      	pop	{r3, r4, r5, r6, r7, pc}

080019ae <HAL_PCD_EP_Transmit>:
 80019ae:	b570      	push	{r4, r5, r6, lr}
 80019b0:	2407      	movs	r4, #7
 80019b2:	4021      	ands	r1, r4
 80019b4:	3421      	adds	r4, #33	@ 0x21
 80019b6:	434c      	muls	r4, r1
 80019b8:	1906      	adds	r6, r0, r4
 80019ba:	0035      	movs	r5, r6
 80019bc:	6272      	str	r2, [r6, #36]	@ 0x24
 80019be:	2201      	movs	r2, #1
 80019c0:	3534      	adds	r5, #52	@ 0x34
 80019c2:	62b3      	str	r3, [r6, #40]	@ 0x28
 80019c4:	702a      	strb	r2, [r5, #0]
 80019c6:	2500      	movs	r5, #0
 80019c8:	3410      	adds	r4, #16
 80019ca:	62f5      	str	r5, [r6, #44]	@ 0x2c
 80019cc:	7431      	strb	r1, [r6, #16]
 80019ce:	6333      	str	r3, [r6, #48]	@ 0x30
 80019d0:	7472      	strb	r2, [r6, #17]
 80019d2:	1901      	adds	r1, r0, r4
 80019d4:	6800      	ldr	r0, [r0, #0]
 80019d6:	f001 f9c3 	bl	8002d60 <USB_EPStartXfer>
 80019da:	0028      	movs	r0, r5
 80019dc:	bd70      	pop	{r4, r5, r6, pc}

080019de <HAL_PCD_EP_SetStall>:
 80019de:	2207      	movs	r2, #7
 80019e0:	b570      	push	{r4, r5, r6, lr}
 80019e2:	7903      	ldrb	r3, [r0, #4]
 80019e4:	0004      	movs	r4, r0
 80019e6:	400a      	ands	r2, r1
 80019e8:	2001      	movs	r0, #1
 80019ea:	4293      	cmp	r3, r2
 80019ec:	d319      	bcc.n	8001a22 <HAL_PCD_EP_SetStall+0x44>
 80019ee:	b248      	sxtb	r0, r1
 80019f0:	2328      	movs	r3, #40	@ 0x28
 80019f2:	2800      	cmp	r0, #0
 80019f4:	da16      	bge.n	8001a24 <HAL_PCD_EP_SetStall+0x46>
 80019f6:	4353      	muls	r3, r2
 80019f8:	0019      	movs	r1, r3
 80019fa:	2001      	movs	r0, #1
 80019fc:	3110      	adds	r1, #16
 80019fe:	18e3      	adds	r3, r4, r3
 8001a00:	1861      	adds	r1, r4, r1
 8001a02:	7458      	strb	r0, [r3, #17]
 8001a04:	2301      	movs	r3, #1
 8001a06:	25a4      	movs	r5, #164	@ 0xa4
 8001a08:	708b      	strb	r3, [r1, #2]
 8001a0a:	700a      	strb	r2, [r1, #0]
 8001a0c:	00ad      	lsls	r5, r5, #2
 8001a0e:	5d62      	ldrb	r2, [r4, r5]
 8001a10:	2002      	movs	r0, #2
 8001a12:	429a      	cmp	r2, r3
 8001a14:	d005      	beq.n	8001a22 <HAL_PCD_EP_SetStall+0x44>
 8001a16:	5563      	strb	r3, [r4, r5]
 8001a18:	6820      	ldr	r0, [r4, #0]
 8001a1a:	f001 f91d 	bl	8002c58 <USB_EPSetStall>
 8001a1e:	2000      	movs	r0, #0
 8001a20:	5560      	strb	r0, [r4, r5]
 8001a22:	bd70      	pop	{r4, r5, r6, pc}
 8001a24:	434b      	muls	r3, r1
 8001a26:	0019      	movs	r1, r3
 8001a28:	2000      	movs	r0, #0
 8001a2a:	18e3      	adds	r3, r4, r3
 8001a2c:	3151      	adds	r1, #81	@ 0x51
 8001a2e:	3352      	adds	r3, #82	@ 0x52
 8001a30:	31ff      	adds	r1, #255	@ 0xff
 8001a32:	33ff      	adds	r3, #255	@ 0xff
 8001a34:	1861      	adds	r1, r4, r1
 8001a36:	7018      	strb	r0, [r3, #0]
 8001a38:	e7e4      	b.n	8001a04 <HAL_PCD_EP_SetStall+0x26>

08001a3a <HAL_PCD_EP_ClrStall>:
 8001a3a:	000b      	movs	r3, r1
 8001a3c:	220f      	movs	r2, #15
 8001a3e:	b570      	push	{r4, r5, r6, lr}
 8001a40:	7901      	ldrb	r1, [r0, #4]
 8001a42:	0004      	movs	r4, r0
 8001a44:	401a      	ands	r2, r3
 8001a46:	2001      	movs	r0, #1
 8001a48:	4291      	cmp	r1, r2
 8001a4a:	d31b      	bcc.n	8001a84 <HAL_PCD_EP_ClrStall+0x4a>
 8001a4c:	2207      	movs	r2, #7
 8001a4e:	2128      	movs	r1, #40	@ 0x28
 8001a50:	401a      	ands	r2, r3
 8001a52:	4351      	muls	r1, r2
 8001a54:	b25b      	sxtb	r3, r3
 8001a56:	1860      	adds	r0, r4, r1
 8001a58:	2b00      	cmp	r3, #0
 8001a5a:	da14      	bge.n	8001a86 <HAL_PCD_EP_ClrStall+0x4c>
 8001a5c:	2301      	movs	r3, #1
 8001a5e:	3110      	adds	r1, #16
 8001a60:	1861      	adds	r1, r4, r1
 8001a62:	7443      	strb	r3, [r0, #17]
 8001a64:	2500      	movs	r5, #0
 8001a66:	26a4      	movs	r6, #164	@ 0xa4
 8001a68:	708d      	strb	r5, [r1, #2]
 8001a6a:	700a      	strb	r2, [r1, #0]
 8001a6c:	00b6      	lsls	r6, r6, #2
 8001a6e:	5da3      	ldrb	r3, [r4, r6]
 8001a70:	2002      	movs	r0, #2
 8001a72:	2b01      	cmp	r3, #1
 8001a74:	d006      	beq.n	8001a84 <HAL_PCD_EP_ClrStall+0x4a>
 8001a76:	2301      	movs	r3, #1
 8001a78:	55a3      	strb	r3, [r4, r6]
 8001a7a:	6820      	ldr	r0, [r4, #0]
 8001a7c:	f001 f90e 	bl	8002c9c <USB_EPClearStall>
 8001a80:	0028      	movs	r0, r5
 8001a82:	55a5      	strb	r5, [r4, r6]
 8001a84:	bd70      	pop	{r4, r5, r6, pc}
 8001a86:	2300      	movs	r3, #0
 8001a88:	3151      	adds	r1, #81	@ 0x51
 8001a8a:	3052      	adds	r0, #82	@ 0x52
 8001a8c:	31ff      	adds	r1, #255	@ 0xff
 8001a8e:	30ff      	adds	r0, #255	@ 0xff
 8001a90:	1861      	adds	r1, r4, r1
 8001a92:	7003      	strb	r3, [r0, #0]
 8001a94:	e7e6      	b.n	8001a64 <HAL_PCD_EP_ClrStall+0x2a>

08001a96 <HAL_PCDEx_PMAConfig>:
 8001a96:	b530      	push	{r4, r5, lr}
 8001a98:	2428      	movs	r4, #40	@ 0x28
 8001a9a:	060d      	lsls	r5, r1, #24
 8001a9c:	d50b      	bpl.n	8001ab6 <HAL_PCDEx_PMAConfig+0x20>
 8001a9e:	2507      	movs	r5, #7
 8001aa0:	4029      	ands	r1, r5
 8001aa2:	434c      	muls	r4, r1
 8001aa4:	3410      	adds	r4, #16
 8001aa6:	1900      	adds	r0, r0, r4
 8001aa8:	b299      	uxth	r1, r3
 8001aaa:	2a00      	cmp	r2, #0
 8001aac:	d107      	bne.n	8001abe <HAL_PCDEx_PMAConfig+0x28>
 8001aae:	7302      	strb	r2, [r0, #12]
 8001ab0:	80c1      	strh	r1, [r0, #6]
 8001ab2:	2000      	movs	r0, #0
 8001ab4:	bd30      	pop	{r4, r5, pc}
 8001ab6:	434c      	muls	r4, r1
 8001ab8:	3451      	adds	r4, #81	@ 0x51
 8001aba:	34ff      	adds	r4, #255	@ 0xff
 8001abc:	e7f3      	b.n	8001aa6 <HAL_PCDEx_PMAConfig+0x10>
 8001abe:	2201      	movs	r2, #1
 8001ac0:	6083      	str	r3, [r0, #8]
 8001ac2:	7302      	strb	r2, [r0, #12]
 8001ac4:	e7f5      	b.n	8001ab2 <HAL_PCDEx_PMAConfig+0x1c>

08001ac6 <HAL_PCDEx_ActivateLPM>:
 8001ac6:	6803      	ldr	r3, [r0, #0]
 8001ac8:	0002      	movs	r2, r0
 8001aca:	20b4      	movs	r0, #180	@ 0xb4
 8001acc:	2101      	movs	r1, #1
 8001ace:	b510      	push	{r4, lr}
 8001ad0:	0080      	lsls	r0, r0, #2
 8001ad2:	24b2      	movs	r4, #178	@ 0xb2
 8001ad4:	5011      	str	r1, [r2, r0]
 8001ad6:	2000      	movs	r0, #0
 8001ad8:	00a4      	lsls	r4, r4, #2
 8001ada:	5510      	strb	r0, [r2, r4]
 8001adc:	3354      	adds	r3, #84	@ 0x54
 8001ade:	881a      	ldrh	r2, [r3, #0]
 8001ae0:	4311      	orrs	r1, r2
 8001ae2:	2202      	movs	r2, #2
 8001ae4:	8019      	strh	r1, [r3, #0]
 8001ae6:	8819      	ldrh	r1, [r3, #0]
 8001ae8:	430a      	orrs	r2, r1
 8001aea:	801a      	strh	r2, [r3, #0]
 8001aec:	bd10      	pop	{r4, pc}

08001aee <HAL_PCDEx_LPM_Callback>:
 8001aee:	4770      	bx	lr

08001af0 <HAL_RCC_OscConfig>:
 8001af0:	b5f0      	push	{r4, r5, r6, r7, lr}
 8001af2:	0004      	movs	r4, r0
 8001af4:	b085      	sub	sp, #20
 8001af6:	2800      	cmp	r0, #0
 8001af8:	d102      	bne.n	8001b00 <HAL_RCC_OscConfig+0x10>
 8001afa:	2001      	movs	r0, #1
 8001afc:	b005      	add	sp, #20
 8001afe:	bdf0      	pop	{r4, r5, r6, r7, pc}
 8001b00:	6803      	ldr	r3, [r0, #0]
 8001b02:	07db      	lsls	r3, r3, #31
 8001b04:	d433      	bmi.n	8001b6e <HAL_RCC_OscConfig+0x7e>
 8001b06:	6823      	ldr	r3, [r4, #0]
 8001b08:	079b      	lsls	r3, r3, #30
 8001b0a:	d500      	bpl.n	8001b0e <HAL_RCC_OscConfig+0x1e>
 8001b0c:	e087      	b.n	8001c1e <HAL_RCC_OscConfig+0x12e>
 8001b0e:	6823      	ldr	r3, [r4, #0]
 8001b10:	071b      	lsls	r3, r3, #28
 8001b12:	d500      	bpl.n	8001b16 <HAL_RCC_OscConfig+0x26>
 8001b14:	e0c8      	b.n	8001ca8 <HAL_RCC_OscConfig+0x1b8>
 8001b16:	6823      	ldr	r3, [r4, #0]
 8001b18:	075b      	lsls	r3, r3, #29
 8001b1a:	d500      	bpl.n	8001b1e <HAL_RCC_OscConfig+0x2e>
 8001b1c:	e0eb      	b.n	8001cf6 <HAL_RCC_OscConfig+0x206>
 8001b1e:	6823      	ldr	r3, [r4, #0]
 8001b20:	06db      	lsls	r3, r3, #27
 8001b22:	d51a      	bpl.n	8001b5a <HAL_RCC_OscConfig+0x6a>
 8001b24:	6962      	ldr	r2, [r4, #20]
 8001b26:	2304      	movs	r3, #4
 8001b28:	4db9      	ldr	r5, [pc, #740]	@ (8001e10 <HAL_RCC_OscConfig+0x320>)
 8001b2a:	2a01      	cmp	r2, #1
 8001b2c:	d000      	beq.n	8001b30 <HAL_RCC_OscConfig+0x40>
 8001b2e:	e154      	b.n	8001dda <HAL_RCC_OscConfig+0x2ea>
 8001b30:	6b69      	ldr	r1, [r5, #52]	@ 0x34
 8001b32:	2702      	movs	r7, #2
 8001b34:	430b      	orrs	r3, r1
 8001b36:	636b      	str	r3, [r5, #52]	@ 0x34
 8001b38:	6b6b      	ldr	r3, [r5, #52]	@ 0x34
 8001b3a:	431a      	orrs	r2, r3
 8001b3c:	636a      	str	r2, [r5, #52]	@ 0x34
 8001b3e:	f7ff f84d 	bl	8000bdc <HAL_GetTick>
 8001b42:	0006      	movs	r6, r0
 8001b44:	6b6b      	ldr	r3, [r5, #52]	@ 0x34
 8001b46:	423b      	tst	r3, r7
 8001b48:	d100      	bne.n	8001b4c <HAL_RCC_OscConfig+0x5c>
 8001b4a:	e13f      	b.n	8001dcc <HAL_RCC_OscConfig+0x2dc>
 8001b4c:	21f8      	movs	r1, #248	@ 0xf8
 8001b4e:	6b6a      	ldr	r2, [r5, #52]	@ 0x34
 8001b50:	69a3      	ldr	r3, [r4, #24]
 8001b52:	438a      	bics	r2, r1
 8001b54:	00db      	lsls	r3, r3, #3
 8001b56:	4313      	orrs	r3, r2
 8001b58:	636b      	str	r3, [r5, #52]	@ 0x34
 8001b5a:	6823      	ldr	r3, [r4, #0]
 8001b5c:	069b      	lsls	r3, r3, #26
 8001b5e:	d500      	bpl.n	8001b62 <HAL_RCC_OscConfig+0x72>
 8001b60:	e162      	b.n	8001e28 <HAL_RCC_OscConfig+0x338>
 8001b62:	6a63      	ldr	r3, [r4, #36]	@ 0x24
 8001b64:	2b00      	cmp	r3, #0
 8001b66:	d000      	beq.n	8001b6a <HAL_RCC_OscConfig+0x7a>
 8001b68:	e1a1      	b.n	8001eae <HAL_RCC_OscConfig+0x3be>
 8001b6a:	2000      	movs	r0, #0
 8001b6c:	e7c6      	b.n	8001afc <HAL_RCC_OscConfig+0xc>
 8001b6e:	220c      	movs	r2, #12
 8001b70:	4da7      	ldr	r5, [pc, #668]	@ (8001e10 <HAL_RCC_OscConfig+0x320>)
 8001b72:	686b      	ldr	r3, [r5, #4]
 8001b74:	4013      	ands	r3, r2
 8001b76:	2b04      	cmp	r3, #4
 8001b78:	d00b      	beq.n	8001b92 <HAL_RCC_OscConfig+0xa2>
 8001b7a:	686b      	ldr	r3, [r5, #4]
 8001b7c:	4013      	ands	r3, r2
 8001b7e:	2b08      	cmp	r3, #8
 8001b80:	d10e      	bne.n	8001ba0 <HAL_RCC_OscConfig+0xb0>
 8001b82:	22c0      	movs	r2, #192	@ 0xc0
 8001b84:	686b      	ldr	r3, [r5, #4]
 8001b86:	0252      	lsls	r2, r2, #9
 8001b88:	4013      	ands	r3, r2
 8001b8a:	2280      	movs	r2, #128	@ 0x80
 8001b8c:	0252      	lsls	r2, r2, #9
 8001b8e:	4293      	cmp	r3, r2
 8001b90:	d106      	bne.n	8001ba0 <HAL_RCC_OscConfig+0xb0>
 8001b92:	682b      	ldr	r3, [r5, #0]
 8001b94:	039b      	lsls	r3, r3, #14
 8001b96:	d5b6      	bpl.n	8001b06 <HAL_RCC_OscConfig+0x16>
 8001b98:	6863      	ldr	r3, [r4, #4]
 8001b9a:	2b00      	cmp	r3, #0
 8001b9c:	d1b3      	bne.n	8001b06 <HAL_RCC_OscConfig+0x16>
 8001b9e:	e7ac      	b.n	8001afa <HAL_RCC_OscConfig+0xa>
 8001ba0:	6863      	ldr	r3, [r4, #4]
 8001ba2:	2b01      	cmp	r3, #1
 8001ba4:	d113      	bne.n	8001bce <HAL_RCC_OscConfig+0xde>
 8001ba6:	2380      	movs	r3, #128	@ 0x80
 8001ba8:	682a      	ldr	r2, [r5, #0]
 8001baa:	025b      	lsls	r3, r3, #9
 8001bac:	4313      	orrs	r3, r2
 8001bae:	602b      	str	r3, [r5, #0]
 8001bb0:	f7ff f814 	bl	8000bdc <HAL_GetTick>
 8001bb4:	2780      	movs	r7, #128	@ 0x80
 8001bb6:	0006      	movs	r6, r0
 8001bb8:	02bf      	lsls	r7, r7, #10
 8001bba:	682b      	ldr	r3, [r5, #0]
 8001bbc:	423b      	tst	r3, r7
 8001bbe:	d1a2      	bne.n	8001b06 <HAL_RCC_OscConfig+0x16>
 8001bc0:	f7ff f80c 	bl	8000bdc <HAL_GetTick>
 8001bc4:	1b80      	subs	r0, r0, r6
 8001bc6:	2864      	cmp	r0, #100	@ 0x64
 8001bc8:	d9f7      	bls.n	8001bba <HAL_RCC_OscConfig+0xca>
 8001bca:	2003      	movs	r0, #3
 8001bcc:	e796      	b.n	8001afc <HAL_RCC_OscConfig+0xc>
 8001bce:	2b00      	cmp	r3, #0
 8001bd0:	d115      	bne.n	8001bfe <HAL_RCC_OscConfig+0x10e>
 8001bd2:	682b      	ldr	r3, [r5, #0]
 8001bd4:	4a8f      	ldr	r2, [pc, #572]	@ (8001e14 <HAL_RCC_OscConfig+0x324>)
 8001bd6:	2780      	movs	r7, #128	@ 0x80
 8001bd8:	4013      	ands	r3, r2
 8001bda:	602b      	str	r3, [r5, #0]
 8001bdc:	682b      	ldr	r3, [r5, #0]
 8001bde:	4a8e      	ldr	r2, [pc, #568]	@ (8001e18 <HAL_RCC_OscConfig+0x328>)
 8001be0:	02bf      	lsls	r7, r7, #10
 8001be2:	4013      	ands	r3, r2
 8001be4:	602b      	str	r3, [r5, #0]
 8001be6:	f7fe fff9 	bl	8000bdc <HAL_GetTick>
 8001bea:	0006      	movs	r6, r0
 8001bec:	682b      	ldr	r3, [r5, #0]
 8001bee:	423b      	tst	r3, r7
 8001bf0:	d089      	beq.n	8001b06 <HAL_RCC_OscConfig+0x16>
 8001bf2:	f7fe fff3 	bl	8000bdc <HAL_GetTick>
 8001bf6:	1b80      	subs	r0, r0, r6
 8001bf8:	2864      	cmp	r0, #100	@ 0x64
 8001bfa:	d9f7      	bls.n	8001bec <HAL_RCC_OscConfig+0xfc>
 8001bfc:	e7e5      	b.n	8001bca <HAL_RCC_OscConfig+0xda>
 8001bfe:	2b05      	cmp	r3, #5
 8001c00:	d105      	bne.n	8001c0e <HAL_RCC_OscConfig+0x11e>
 8001c02:	2380      	movs	r3, #128	@ 0x80
 8001c04:	682a      	ldr	r2, [r5, #0]
 8001c06:	02db      	lsls	r3, r3, #11
 8001c08:	4313      	orrs	r3, r2
 8001c0a:	602b      	str	r3, [r5, #0]
 8001c0c:	e7cb      	b.n	8001ba6 <HAL_RCC_OscConfig+0xb6>
 8001c0e:	682b      	ldr	r3, [r5, #0]
 8001c10:	4a80      	ldr	r2, [pc, #512]	@ (8001e14 <HAL_RCC_OscConfig+0x324>)
 8001c12:	4013      	ands	r3, r2
 8001c14:	602b      	str	r3, [r5, #0]
 8001c16:	682b      	ldr	r3, [r5, #0]
 8001c18:	4a7f      	ldr	r2, [pc, #508]	@ (8001e18 <HAL_RCC_OscConfig+0x328>)
 8001c1a:	4013      	ands	r3, r2
 8001c1c:	e7c7      	b.n	8001bae <HAL_RCC_OscConfig+0xbe>
 8001c1e:	220c      	movs	r2, #12
 8001c20:	4d7b      	ldr	r5, [pc, #492]	@ (8001e10 <HAL_RCC_OscConfig+0x320>)
 8001c22:	686b      	ldr	r3, [r5, #4]
 8001c24:	4213      	tst	r3, r2
 8001c26:	d00b      	beq.n	8001c40 <HAL_RCC_OscConfig+0x150>
 8001c28:	686b      	ldr	r3, [r5, #4]
 8001c2a:	4013      	ands	r3, r2
 8001c2c:	2b08      	cmp	r3, #8
 8001c2e:	d116      	bne.n	8001c5e <HAL_RCC_OscConfig+0x16e>
 8001c30:	22c0      	movs	r2, #192	@ 0xc0
 8001c32:	686b      	ldr	r3, [r5, #4]
 8001c34:	0252      	lsls	r2, r2, #9
 8001c36:	4013      	ands	r3, r2
 8001c38:	2280      	movs	r2, #128	@ 0x80
 8001c3a:	0212      	lsls	r2, r2, #8
 8001c3c:	4293      	cmp	r3, r2
 8001c3e:	d10e      	bne.n	8001c5e <HAL_RCC_OscConfig+0x16e>
 8001c40:	682b      	ldr	r3, [r5, #0]
 8001c42:	079b      	lsls	r3, r3, #30
 8001c44:	d503      	bpl.n	8001c4e <HAL_RCC_OscConfig+0x15e>
 8001c46:	68e3      	ldr	r3, [r4, #12]
 8001c48:	2b01      	cmp	r3, #1
 8001c4a:	d000      	beq.n	8001c4e <HAL_RCC_OscConfig+0x15e>
 8001c4c:	e755      	b.n	8001afa <HAL_RCC_OscConfig+0xa>
 8001c4e:	21f8      	movs	r1, #248	@ 0xf8
 8001c50:	682a      	ldr	r2, [r5, #0]
 8001c52:	6923      	ldr	r3, [r4, #16]
 8001c54:	438a      	bics	r2, r1
 8001c56:	00db      	lsls	r3, r3, #3
 8001c58:	4313      	orrs	r3, r2
 8001c5a:	602b      	str	r3, [r5, #0]
 8001c5c:	e757      	b.n	8001b0e <HAL_RCC_OscConfig+0x1e>
 8001c5e:	68e2      	ldr	r2, [r4, #12]
 8001c60:	2301      	movs	r3, #1
 8001c62:	2a00      	cmp	r2, #0
 8001c64:	d00f      	beq.n	8001c86 <HAL_RCC_OscConfig+0x196>
 8001c66:	682a      	ldr	r2, [r5, #0]
 8001c68:	2702      	movs	r7, #2
 8001c6a:	4313      	orrs	r3, r2
 8001c6c:	602b      	str	r3, [r5, #0]
 8001c6e:	f7fe ffb5 	bl	8000bdc <HAL_GetTick>
 8001c72:	0006      	movs	r6, r0
 8001c74:	682b      	ldr	r3, [r5, #0]
 8001c76:	423b      	tst	r3, r7
 8001c78:	d1e9      	bne.n	8001c4e <HAL_RCC_OscConfig+0x15e>
 8001c7a:	f7fe ffaf 	bl	8000bdc <HAL_GetTick>
 8001c7e:	1b80      	subs	r0, r0, r6
 8001c80:	2802      	cmp	r0, #2
 8001c82:	d9f7      	bls.n	8001c74 <HAL_RCC_OscConfig+0x184>
 8001c84:	e7a1      	b.n	8001bca <HAL_RCC_OscConfig+0xda>
 8001c86:	682a      	ldr	r2, [r5, #0]
 8001c88:	2702      	movs	r7, #2
 8001c8a:	439a      	bics	r2, r3
 8001c8c:	602a      	str	r2, [r5, #0]
 8001c8e:	f7fe ffa5 	bl	8000bdc <HAL_GetTick>
 8001c92:	0006      	movs	r6, r0
 8001c94:	682b      	ldr	r3, [r5, #0]
 8001c96:	423b      	tst	r3, r7
 8001c98:	d100      	bne.n	8001c9c <HAL_RCC_OscConfig+0x1ac>
 8001c9a:	e738      	b.n	8001b0e <HAL_RCC_OscConfig+0x1e>
 8001c9c:	f7fe ff9e 	bl	8000bdc <HAL_GetTick>
 8001ca0:	1b80      	subs	r0, r0, r6
 8001ca2:	2802      	cmp	r0, #2
 8001ca4:	d9f6      	bls.n	8001c94 <HAL_RCC_OscConfig+0x1a4>
 8001ca6:	e790      	b.n	8001bca <HAL_RCC_OscConfig+0xda>
 8001ca8:	69e2      	ldr	r2, [r4, #28]
 8001caa:	2301      	movs	r3, #1
 8001cac:	4d58      	ldr	r5, [pc, #352]	@ (8001e10 <HAL_RCC_OscConfig+0x320>)
 8001cae:	2a00      	cmp	r2, #0
 8001cb0:	d010      	beq.n	8001cd4 <HAL_RCC_OscConfig+0x1e4>
 8001cb2:	6a6a      	ldr	r2, [r5, #36]	@ 0x24
 8001cb4:	2702      	movs	r7, #2
 8001cb6:	4313      	orrs	r3, r2
 8001cb8:	626b      	str	r3, [r5, #36]	@ 0x24
 8001cba:	f7fe ff8f 	bl	8000bdc <HAL_GetTick>
 8001cbe:	0006      	movs	r6, r0
 8001cc0:	6a6b      	ldr	r3, [r5, #36]	@ 0x24
 8001cc2:	423b      	tst	r3, r7
 8001cc4:	d000      	beq.n	8001cc8 <HAL_RCC_OscConfig+0x1d8>
 8001cc6:	e726      	b.n	8001b16 <HAL_RCC_OscConfig+0x26>
 8001cc8:	f7fe ff88 	bl	8000bdc <HAL_GetTick>
 8001ccc:	1b80      	subs	r0, r0, r6
 8001cce:	2802      	cmp	r0, #2
 8001cd0:	d9f6      	bls.n	8001cc0 <HAL_RCC_OscConfig+0x1d0>
 8001cd2:	e77a      	b.n	8001bca <HAL_RCC_OscConfig+0xda>
 8001cd4:	6a6a      	ldr	r2, [r5, #36]	@ 0x24
 8001cd6:	2702      	movs	r7, #2
 8001cd8:	439a      	bics	r2, r3
 8001cda:	626a      	str	r2, [r5, #36]	@ 0x24
 8001cdc:	f7fe ff7e 	bl	8000bdc <HAL_GetTick>
 8001ce0:	0006      	movs	r6, r0
 8001ce2:	6a6b      	ldr	r3, [r5, #36]	@ 0x24
 8001ce4:	423b      	tst	r3, r7
 8001ce6:	d100      	bne.n	8001cea <HAL_RCC_OscConfig+0x1fa>
 8001ce8:	e715      	b.n	8001b16 <HAL_RCC_OscConfig+0x26>
 8001cea:	f7fe ff77 	bl	8000bdc <HAL_GetTick>
 8001cee:	1b80      	subs	r0, r0, r6
 8001cf0:	2802      	cmp	r0, #2
 8001cf2:	d9f6      	bls.n	8001ce2 <HAL_RCC_OscConfig+0x1f2>
 8001cf4:	e769      	b.n	8001bca <HAL_RCC_OscConfig+0xda>
 8001cf6:	2280      	movs	r2, #128	@ 0x80
 8001cf8:	2100      	movs	r1, #0
 8001cfa:	4d45      	ldr	r5, [pc, #276]	@ (8001e10 <HAL_RCC_OscConfig+0x320>)
 8001cfc:	0552      	lsls	r2, r2, #21
 8001cfe:	69eb      	ldr	r3, [r5, #28]
 8001d00:	9100      	str	r1, [sp, #0]
 8001d02:	4213      	tst	r3, r2
 8001d04:	d108      	bne.n	8001d18 <HAL_RCC_OscConfig+0x228>
 8001d06:	69eb      	ldr	r3, [r5, #28]
 8001d08:	4313      	orrs	r3, r2
 8001d0a:	61eb      	str	r3, [r5, #28]
 8001d0c:	69eb      	ldr	r3, [r5, #28]
 8001d0e:	4013      	ands	r3, r2
 8001d10:	9303      	str	r3, [sp, #12]
 8001d12:	9b03      	ldr	r3, [sp, #12]
 8001d14:	2301      	movs	r3, #1
 8001d16:	9300      	str	r3, [sp, #0]
 8001d18:	2780      	movs	r7, #128	@ 0x80
 8001d1a:	4e40      	ldr	r6, [pc, #256]	@ (8001e1c <HAL_RCC_OscConfig+0x32c>)
 8001d1c:	007f      	lsls	r7, r7, #1
 8001d1e:	6833      	ldr	r3, [r6, #0]
 8001d20:	423b      	tst	r3, r7
 8001d22:	d015      	beq.n	8001d50 <HAL_RCC_OscConfig+0x260>
 8001d24:	68a3      	ldr	r3, [r4, #8]
 8001d26:	2b01      	cmp	r3, #1
 8001d28:	d122      	bne.n	8001d70 <HAL_RCC_OscConfig+0x280>
 8001d2a:	6a2a      	ldr	r2, [r5, #32]
 8001d2c:	4313      	orrs	r3, r2
 8001d2e:	622b      	str	r3, [r5, #32]
 8001d30:	f7fe ff54 	bl	8000bdc <HAL_GetTick>
 8001d34:	2702      	movs	r7, #2
 8001d36:	0006      	movs	r6, r0
 8001d38:	6a2b      	ldr	r3, [r5, #32]
 8001d3a:	423b      	tst	r3, r7
 8001d3c:	d03f      	beq.n	8001dbe <HAL_RCC_OscConfig+0x2ce>
 8001d3e:	9b00      	ldr	r3, [sp, #0]
 8001d40:	2b01      	cmp	r3, #1
 8001d42:	d000      	beq.n	8001d46 <HAL_RCC_OscConfig+0x256>
 8001d44:	e6eb      	b.n	8001b1e <HAL_RCC_OscConfig+0x2e>
 8001d46:	69eb      	ldr	r3, [r5, #28]
 8001d48:	4a35      	ldr	r2, [pc, #212]	@ (8001e20 <HAL_RCC_OscConfig+0x330>)
 8001d4a:	4013      	ands	r3, r2
 8001d4c:	61eb      	str	r3, [r5, #28]
 8001d4e:	e6e6      	b.n	8001b1e <HAL_RCC_OscConfig+0x2e>
 8001d50:	6833      	ldr	r3, [r6, #0]
 8001d52:	433b      	orrs	r3, r7
 8001d54:	6033      	str	r3, [r6, #0]
 8001d56:	f7fe ff41 	bl	8000bdc <HAL_GetTick>
 8001d5a:	9001      	str	r0, [sp, #4]
 8001d5c:	6833      	ldr	r3, [r6, #0]
 8001d5e:	423b      	tst	r3, r7
 8001d60:	d1e0      	bne.n	8001d24 <HAL_RCC_OscConfig+0x234>
 8001d62:	f7fe ff3b 	bl	8000bdc <HAL_GetTick>
 8001d66:	9b01      	ldr	r3, [sp, #4]
 8001d68:	1ac0      	subs	r0, r0, r3
 8001d6a:	2864      	cmp	r0, #100	@ 0x64
 8001d6c:	d9f6      	bls.n	8001d5c <HAL_RCC_OscConfig+0x26c>
 8001d6e:	e72c      	b.n	8001bca <HAL_RCC_OscConfig+0xda>
 8001d70:	2201      	movs	r2, #1
 8001d72:	2b00      	cmp	r3, #0
 8001d74:	d114      	bne.n	8001da0 <HAL_RCC_OscConfig+0x2b0>
 8001d76:	6a2b      	ldr	r3, [r5, #32]
 8001d78:	2702      	movs	r7, #2
 8001d7a:	4393      	bics	r3, r2
 8001d7c:	622b      	str	r3, [r5, #32]
 8001d7e:	6a2b      	ldr	r3, [r5, #32]
 8001d80:	3203      	adds	r2, #3
 8001d82:	4393      	bics	r3, r2
 8001d84:	622b      	str	r3, [r5, #32]
 8001d86:	f7fe ff29 	bl	8000bdc <HAL_GetTick>
 8001d8a:	0006      	movs	r6, r0
 8001d8c:	6a2b      	ldr	r3, [r5, #32]
 8001d8e:	423b      	tst	r3, r7
 8001d90:	d0d5      	beq.n	8001d3e <HAL_RCC_OscConfig+0x24e>
 8001d92:	f7fe ff23 	bl	8000bdc <HAL_GetTick>
 8001d96:	4b23      	ldr	r3, [pc, #140]	@ (8001e24 <HAL_RCC_OscConfig+0x334>)
 8001d98:	1b80      	subs	r0, r0, r6
 8001d9a:	4298      	cmp	r0, r3
 8001d9c:	d9f6      	bls.n	8001d8c <HAL_RCC_OscConfig+0x29c>
 8001d9e:	e714      	b.n	8001bca <HAL_RCC_OscConfig+0xda>
 8001da0:	2b05      	cmp	r3, #5
 8001da2:	d105      	bne.n	8001db0 <HAL_RCC_OscConfig+0x2c0>
 8001da4:	6a29      	ldr	r1, [r5, #32]
 8001da6:	3b01      	subs	r3, #1
 8001da8:	430b      	orrs	r3, r1
 8001daa:	622b      	str	r3, [r5, #32]
 8001dac:	6a2b      	ldr	r3, [r5, #32]
 8001dae:	e7bd      	b.n	8001d2c <HAL_RCC_OscConfig+0x23c>
 8001db0:	6a2b      	ldr	r3, [r5, #32]
 8001db2:	4393      	bics	r3, r2
 8001db4:	2204      	movs	r2, #4
 8001db6:	622b      	str	r3, [r5, #32]
 8001db8:	6a2b      	ldr	r3, [r5, #32]
 8001dba:	4393      	bics	r3, r2
 8001dbc:	e7b7      	b.n	8001d2e <HAL_RCC_OscConfig+0x23e>
 8001dbe:	f7fe ff0d 	bl	8000bdc <HAL_GetTick>
 8001dc2:	4b18      	ldr	r3, [pc, #96]	@ (8001e24 <HAL_RCC_OscConfig+0x334>)
 8001dc4:	1b80      	subs	r0, r0, r6
 8001dc6:	4298      	cmp	r0, r3
 8001dc8:	d9b6      	bls.n	8001d38 <HAL_RCC_OscConfig+0x248>
 8001dca:	e6fe      	b.n	8001bca <HAL_RCC_OscConfig+0xda>
 8001dcc:	f7fe ff06 	bl	8000bdc <HAL_GetTick>
 8001dd0:	1b80      	subs	r0, r0, r6
 8001dd2:	2802      	cmp	r0, #2
 8001dd4:	d800      	bhi.n	8001dd8 <HAL_RCC_OscConfig+0x2e8>
 8001dd6:	e6b5      	b.n	8001b44 <HAL_RCC_OscConfig+0x54>
 8001dd8:	e6f7      	b.n	8001bca <HAL_RCC_OscConfig+0xda>
 8001dda:	3205      	adds	r2, #5
 8001ddc:	d103      	bne.n	8001de6 <HAL_RCC_OscConfig+0x2f6>
 8001dde:	6b6a      	ldr	r2, [r5, #52]	@ 0x34
 8001de0:	439a      	bics	r2, r3
 8001de2:	636a      	str	r2, [r5, #52]	@ 0x34
 8001de4:	e6b2      	b.n	8001b4c <HAL_RCC_OscConfig+0x5c>
 8001de6:	6b6a      	ldr	r2, [r5, #52]	@ 0x34
 8001de8:	2702      	movs	r7, #2
 8001dea:	4313      	orrs	r3, r2
 8001dec:	2201      	movs	r2, #1
 8001dee:	636b      	str	r3, [r5, #52]	@ 0x34
 8001df0:	6b6b      	ldr	r3, [r5, #52]	@ 0x34
 8001df2:	4393      	bics	r3, r2
 8001df4:	636b      	str	r3, [r5, #52]	@ 0x34
 8001df6:	f7fe fef1 	bl	8000bdc <HAL_GetTick>
 8001dfa:	0006      	movs	r6, r0
 8001dfc:	6b6b      	ldr	r3, [r5, #52]	@ 0x34
 8001dfe:	423b      	tst	r3, r7
 8001e00:	d100      	bne.n	8001e04 <HAL_RCC_OscConfig+0x314>
 8001e02:	e6aa      	b.n	8001b5a <HAL_RCC_OscConfig+0x6a>
 8001e04:	f7fe feea 	bl	8000bdc <HAL_GetTick>
 8001e08:	1b80      	subs	r0, r0, r6
 8001e0a:	2802      	cmp	r0, #2
 8001e0c:	d9f6      	bls.n	8001dfc <HAL_RCC_OscConfig+0x30c>
 8001e0e:	e6dc      	b.n	8001bca <HAL_RCC_OscConfig+0xda>
 8001e10:	40021000 	.word	0x40021000
 8001e14:	fffeffff 	.word	0xfffeffff
 8001e18:	fffbffff 	.word	0xfffbffff
 8001e1c:	40007000 	.word	0x40007000
 8001e20:	efffffff 	.word	0xefffffff
 8001e24:	00001388 	.word	0x00001388
 8001e28:	220c      	movs	r2, #12
 8001e2a:	4d55      	ldr	r5, [pc, #340]	@ (8001f80 <HAL_RCC_OscConfig+0x490>)
 8001e2c:	686b      	ldr	r3, [r5, #4]
 8001e2e:	4013      	ands	r3, r2
 8001e30:	4293      	cmp	r3, r2
 8001e32:	d009      	beq.n	8001e48 <HAL_RCC_OscConfig+0x358>
 8001e34:	686b      	ldr	r3, [r5, #4]
 8001e36:	4013      	ands	r3, r2
 8001e38:	2b08      	cmp	r3, #8
 8001e3a:	d10e      	bne.n	8001e5a <HAL_RCC_OscConfig+0x36a>
 8001e3c:	22c0      	movs	r2, #192	@ 0xc0
 8001e3e:	686b      	ldr	r3, [r5, #4]
 8001e40:	0252      	lsls	r2, r2, #9
 8001e42:	4013      	ands	r3, r2
 8001e44:	4293      	cmp	r3, r2
 8001e46:	d108      	bne.n	8001e5a <HAL_RCC_OscConfig+0x36a>
 8001e48:	6b6b      	ldr	r3, [r5, #52]	@ 0x34
 8001e4a:	039b      	lsls	r3, r3, #14
 8001e4c:	d400      	bmi.n	8001e50 <HAL_RCC_OscConfig+0x360>
 8001e4e:	e688      	b.n	8001b62 <HAL_RCC_OscConfig+0x72>
 8001e50:	6a23      	ldr	r3, [r4, #32]
 8001e52:	2b01      	cmp	r3, #1
 8001e54:	d000      	beq.n	8001e58 <HAL_RCC_OscConfig+0x368>
 8001e56:	e650      	b.n	8001afa <HAL_RCC_OscConfig+0xa>
 8001e58:	e683      	b.n	8001b62 <HAL_RCC_OscConfig+0x72>
 8001e5a:	6a23      	ldr	r3, [r4, #32]
 8001e5c:	2b00      	cmp	r3, #0
 8001e5e:	d013      	beq.n	8001e88 <HAL_RCC_OscConfig+0x398>
 8001e60:	2380      	movs	r3, #128	@ 0x80
 8001e62:	6b6a      	ldr	r2, [r5, #52]	@ 0x34
 8001e64:	025b      	lsls	r3, r3, #9
 8001e66:	4313      	orrs	r3, r2
 8001e68:	636b      	str	r3, [r5, #52]	@ 0x34
 8001e6a:	f7fe feb7 	bl	8000bdc <HAL_GetTick>
 8001e6e:	2780      	movs	r7, #128	@ 0x80
 8001e70:	0006      	movs	r6, r0
 8001e72:	02bf      	lsls	r7, r7, #10
 8001e74:	6b6b      	ldr	r3, [r5, #52]	@ 0x34
 8001e76:	423b      	tst	r3, r7
 8001e78:	d000      	beq.n	8001e7c <HAL_RCC_OscConfig+0x38c>
 8001e7a:	e672      	b.n	8001b62 <HAL_RCC_OscConfig+0x72>
 8001e7c:	f7fe feae 	bl	8000bdc <HAL_GetTick>
 8001e80:	1b80      	subs	r0, r0, r6
 8001e82:	2802      	cmp	r0, #2
 8001e84:	d9f6      	bls.n	8001e74 <HAL_RCC_OscConfig+0x384>
 8001e86:	e6a0      	b.n	8001bca <HAL_RCC_OscConfig+0xda>
 8001e88:	6b6b      	ldr	r3, [r5, #52]	@ 0x34
 8001e8a:	4a3e      	ldr	r2, [pc, #248]	@ (8001f84 <HAL_RCC_OscConfig+0x494>)
 8001e8c:	2780      	movs	r7, #128	@ 0x80
 8001e8e:	4013      	ands	r3, r2
 8001e90:	636b      	str	r3, [r5, #52]	@ 0x34
 8001e92:	f7fe fea3 	bl	8000bdc <HAL_GetTick>
 8001e96:	0006      	movs	r6, r0
 8001e98:	02bf      	lsls	r7, r7, #10
 8001e9a:	6b6b      	ldr	r3, [r5, #52]	@ 0x34
 8001e9c:	423b      	tst	r3, r7
 8001e9e:	d100      	bne.n	8001ea2 <HAL_RCC_OscConfig+0x3b2>
 8001ea0:	e65f      	b.n	8001b62 <HAL_RCC_OscConfig+0x72>
 8001ea2:	f7fe fe9b 	bl	8000bdc <HAL_GetTick>
 8001ea6:	1b80      	subs	r0, r0, r6
 8001ea8:	2802      	cmp	r0, #2
 8001eaa:	d9f6      	bls.n	8001e9a <HAL_RCC_OscConfig+0x3aa>
 8001eac:	e68d      	b.n	8001bca <HAL_RCC_OscConfig+0xda>
 8001eae:	210c      	movs	r1, #12
 8001eb0:	4d33      	ldr	r5, [pc, #204]	@ (8001f80 <HAL_RCC_OscConfig+0x490>)
 8001eb2:	686a      	ldr	r2, [r5, #4]
 8001eb4:	400a      	ands	r2, r1
 8001eb6:	2a08      	cmp	r2, #8
 8001eb8:	d047      	beq.n	8001f4a <HAL_RCC_OscConfig+0x45a>
 8001eba:	4a33      	ldr	r2, [pc, #204]	@ (8001f88 <HAL_RCC_OscConfig+0x498>)
 8001ebc:	2b02      	cmp	r3, #2
 8001ebe:	d132      	bne.n	8001f26 <HAL_RCC_OscConfig+0x436>
 8001ec0:	682b      	ldr	r3, [r5, #0]
 8001ec2:	2780      	movs	r7, #128	@ 0x80
 8001ec4:	4013      	ands	r3, r2
 8001ec6:	602b      	str	r3, [r5, #0]
 8001ec8:	f7fe fe88 	bl	8000bdc <HAL_GetTick>
 8001ecc:	0006      	movs	r6, r0
 8001ece:	04bf      	lsls	r7, r7, #18
 8001ed0:	682b      	ldr	r3, [r5, #0]
 8001ed2:	423b      	tst	r3, r7
 8001ed4:	d121      	bne.n	8001f1a <HAL_RCC_OscConfig+0x42a>
 8001ed6:	220f      	movs	r2, #15
 8001ed8:	6aeb      	ldr	r3, [r5, #44]	@ 0x2c
 8001eda:	2680      	movs	r6, #128	@ 0x80
 8001edc:	4393      	bics	r3, r2
 8001ede:	6b22      	ldr	r2, [r4, #48]	@ 0x30
 8001ee0:	04b6      	lsls	r6, r6, #18
 8001ee2:	4313      	orrs	r3, r2
 8001ee4:	62eb      	str	r3, [r5, #44]	@ 0x2c
 8001ee6:	6aa1      	ldr	r1, [r4, #40]	@ 0x28
 8001ee8:	6ae3      	ldr	r3, [r4, #44]	@ 0x2c
 8001eea:	686a      	ldr	r2, [r5, #4]
 8001eec:	430b      	orrs	r3, r1
 8001eee:	4927      	ldr	r1, [pc, #156]	@ (8001f8c <HAL_RCC_OscConfig+0x49c>)
 8001ef0:	400a      	ands	r2, r1
 8001ef2:	4313      	orrs	r3, r2
 8001ef4:	606b      	str	r3, [r5, #4]
 8001ef6:	2380      	movs	r3, #128	@ 0x80
 8001ef8:	682a      	ldr	r2, [r5, #0]
 8001efa:	045b      	lsls	r3, r3, #17
 8001efc:	4313      	orrs	r3, r2
 8001efe:	602b      	str	r3, [r5, #0]
 8001f00:	f7fe fe6c 	bl	8000bdc <HAL_GetTick>
 8001f04:	0004      	movs	r4, r0
 8001f06:	682b      	ldr	r3, [r5, #0]
 8001f08:	4233      	tst	r3, r6
 8001f0a:	d000      	beq.n	8001f0e <HAL_RCC_OscConfig+0x41e>
 8001f0c:	e62d      	b.n	8001b6a <HAL_RCC_OscConfig+0x7a>
 8001f0e:	f7fe fe65 	bl	8000bdc <HAL_GetTick>
 8001f12:	1b00      	subs	r0, r0, r4
 8001f14:	2802      	cmp	r0, #2
 8001f16:	d9f6      	bls.n	8001f06 <HAL_RCC_OscConfig+0x416>
 8001f18:	e657      	b.n	8001bca <HAL_RCC_OscConfig+0xda>
 8001f1a:	f7fe fe5f 	bl	8000bdc <HAL_GetTick>
 8001f1e:	1b80      	subs	r0, r0, r6
 8001f20:	2802      	cmp	r0, #2
 8001f22:	d9d5      	bls.n	8001ed0 <HAL_RCC_OscConfig+0x3e0>
 8001f24:	e651      	b.n	8001bca <HAL_RCC_OscConfig+0xda>
 8001f26:	682b      	ldr	r3, [r5, #0]
 8001f28:	2680      	movs	r6, #128	@ 0x80
 8001f2a:	4013      	ands	r3, r2
 8001f2c:	602b      	str	r3, [r5, #0]
 8001f2e:	f7fe fe55 	bl	8000bdc <HAL_GetTick>
 8001f32:	0004      	movs	r4, r0
 8001f34:	04b6      	lsls	r6, r6, #18
 8001f36:	682b      	ldr	r3, [r5, #0]
 8001f38:	4233      	tst	r3, r6
 8001f3a:	d100      	bne.n	8001f3e <HAL_RCC_OscConfig+0x44e>
 8001f3c:	e615      	b.n	8001b6a <HAL_RCC_OscConfig+0x7a>
 8001f3e:	f7fe fe4d 	bl	8000bdc <HAL_GetTick>
 8001f42:	1b00      	subs	r0, r0, r4
 8001f44:	2802      	cmp	r0, #2
 8001f46:	d9f6      	bls.n	8001f36 <HAL_RCC_OscConfig+0x446>
 8001f48:	e63f      	b.n	8001bca <HAL_RCC_OscConfig+0xda>
 8001f4a:	2b01      	cmp	r3, #1
 8001f4c:	d100      	bne.n	8001f50 <HAL_RCC_OscConfig+0x460>
 8001f4e:	e5d4      	b.n	8001afa <HAL_RCC_OscConfig+0xa>
 8001f50:	22c0      	movs	r2, #192	@ 0xc0
 8001f52:	6868      	ldr	r0, [r5, #4]
 8001f54:	6aa1      	ldr	r1, [r4, #40]	@ 0x28
 8001f56:	0252      	lsls	r2, r2, #9
 8001f58:	6aeb      	ldr	r3, [r5, #44]	@ 0x2c
 8001f5a:	4002      	ands	r2, r0
 8001f5c:	428a      	cmp	r2, r1
 8001f5e:	d000      	beq.n	8001f62 <HAL_RCC_OscConfig+0x472>
 8001f60:	e5cb      	b.n	8001afa <HAL_RCC_OscConfig+0xa>
 8001f62:	220f      	movs	r2, #15
 8001f64:	4013      	ands	r3, r2
 8001f66:	6b22      	ldr	r2, [r4, #48]	@ 0x30
 8001f68:	4293      	cmp	r3, r2
 8001f6a:	d000      	beq.n	8001f6e <HAL_RCC_OscConfig+0x47e>
 8001f6c:	e5c5      	b.n	8001afa <HAL_RCC_OscConfig+0xa>
 8001f6e:	23f0      	movs	r3, #240	@ 0xf0
 8001f70:	039b      	lsls	r3, r3, #14
 8001f72:	4018      	ands	r0, r3
 8001f74:	6ae3      	ldr	r3, [r4, #44]	@ 0x2c
 8001f76:	1ac0      	subs	r0, r0, r3
 8001f78:	1e43      	subs	r3, r0, #1
 8001f7a:	4198      	sbcs	r0, r3
 8001f7c:	b2c0      	uxtb	r0, r0
 8001f7e:	e5bd      	b.n	8001afc <HAL_RCC_OscConfig+0xc>
 8001f80:	40021000 	.word	0x40021000
 8001f84:	fffeffff 	.word	0xfffeffff
 8001f88:	feffffff 	.word	0xfeffffff
 8001f8c:	ffc27fff 	.word	0xffc27fff

08001f90 <HAL_RCC_GetSysClockFreq>:
 8001f90:	200c      	movs	r0, #12
 8001f92:	b570      	push	{r4, r5, r6, lr}
 8001f94:	4d13      	ldr	r5, [pc, #76]	@ (8001fe4 <HAL_RCC_GetSysClockFreq+0x54>)
 8001f96:	686b      	ldr	r3, [r5, #4]
 8001f98:	4018      	ands	r0, r3
 8001f9a:	2808      	cmp	r0, #8
 8001f9c:	d008      	beq.n	8001fb0 <HAL_RCC_GetSysClockFreq+0x20>
 8001f9e:	380c      	subs	r0, #12
 8001fa0:	4243      	negs	r3, r0
 8001fa2:	4158      	adcs	r0, r3
 8001fa4:	4b10      	ldr	r3, [pc, #64]	@ (8001fe8 <HAL_RCC_GetSysClockFreq+0x58>)
 8001fa6:	4240      	negs	r0, r0
 8001fa8:	4018      	ands	r0, r3
 8001faa:	4b10      	ldr	r3, [pc, #64]	@ (8001fec <HAL_RCC_GetSysClockFreq+0x5c>)
 8001fac:	18c0      	adds	r0, r0, r3
 8001fae:	bd70      	pop	{r4, r5, r6, pc}
 8001fb0:	200f      	movs	r0, #15
 8001fb2:	490f      	ldr	r1, [pc, #60]	@ (8001ff0 <HAL_RCC_GetSysClockFreq+0x60>)
 8001fb4:	0c9a      	lsrs	r2, r3, #18
 8001fb6:	4002      	ands	r2, r0
 8001fb8:	5c8c      	ldrb	r4, [r1, r2]
 8001fba:	6aea      	ldr	r2, [r5, #44]	@ 0x2c
 8001fbc:	490d      	ldr	r1, [pc, #52]	@ (8001ff4 <HAL_RCC_GetSysClockFreq+0x64>)
 8001fbe:	4002      	ands	r2, r0
 8001fc0:	5c89      	ldrb	r1, [r1, r2]
 8001fc2:	22c0      	movs	r2, #192	@ 0xc0
 8001fc4:	2080      	movs	r0, #128	@ 0x80
 8001fc6:	0252      	lsls	r2, r2, #9
 8001fc8:	4013      	ands	r3, r2
 8001fca:	0240      	lsls	r0, r0, #9
 8001fcc:	4283      	cmp	r3, r0
 8001fce:	d101      	bne.n	8001fd4 <HAL_RCC_GetSysClockFreq+0x44>
 8001fd0:	4806      	ldr	r0, [pc, #24]	@ (8001fec <HAL_RCC_GetSysClockFreq+0x5c>)
 8001fd2:	e002      	b.n	8001fda <HAL_RCC_GetSysClockFreq+0x4a>
 8001fd4:	4293      	cmp	r3, r2
 8001fd6:	d1fb      	bne.n	8001fd0 <HAL_RCC_GetSysClockFreq+0x40>
 8001fd8:	4807      	ldr	r0, [pc, #28]	@ (8001ff8 <HAL_RCC_GetSysClockFreq+0x68>)
 8001fda:	f7fe f8c5 	bl	8000168 <__udivsi3>
 8001fde:	4360      	muls	r0, r4
 8001fe0:	e7e5      	b.n	8001fae <HAL_RCC_GetSysClockFreq+0x1e>
 8001fe2:	46c0      	nop			@ (mov r8, r8)
 8001fe4:	40021000 	.word	0x40021000
 8001fe8:	02625a00 	.word	0x02625a00
 8001fec:	007a1200 	.word	0x007a1200
 8001ff0:	0800556a 	.word	0x0800556a
 8001ff4:	0800555a 	.word	0x0800555a
 8001ff8:	02dc6c00 	.word	0x02dc6c00

08001ffc <HAL_RCC_ClockConfig>:
 8001ffc:	b5f7      	push	{r0, r1, r2, r4, r5, r6, r7, lr}
 8001ffe:	0004      	movs	r4, r0
 8002000:	000f      	movs	r7, r1
 8002002:	2800      	cmp	r0, #0
 8002004:	d101      	bne.n	800200a <HAL_RCC_ClockConfig+0xe>
 8002006:	2001      	movs	r0, #1
 8002008:	bdfe      	pop	{r1, r2, r3, r4, r5, r6, r7, pc}
 800200a:	2201      	movs	r2, #1
 800200c:	4d3a      	ldr	r5, [pc, #232]	@ (80020f8 <HAL_RCC_ClockConfig+0xfc>)
 800200e:	682b      	ldr	r3, [r5, #0]
 8002010:	4013      	ands	r3, r2
 8002012:	428b      	cmp	r3, r1
 8002014:	d31c      	bcc.n	8002050 <HAL_RCC_ClockConfig+0x54>
 8002016:	6822      	ldr	r2, [r4, #0]
 8002018:	0793      	lsls	r3, r2, #30
 800201a:	d422      	bmi.n	8002062 <HAL_RCC_ClockConfig+0x66>
 800201c:	07d2      	lsls	r2, r2, #31
 800201e:	d42f      	bmi.n	8002080 <HAL_RCC_ClockConfig+0x84>
 8002020:	2301      	movs	r3, #1
 8002022:	682a      	ldr	r2, [r5, #0]
 8002024:	401a      	ands	r2, r3
 8002026:	42ba      	cmp	r2, r7
 8002028:	d857      	bhi.n	80020da <HAL_RCC_ClockConfig+0xde>
 800202a:	6823      	ldr	r3, [r4, #0]
 800202c:	4d33      	ldr	r5, [pc, #204]	@ (80020fc <HAL_RCC_ClockConfig+0x100>)
 800202e:	075b      	lsls	r3, r3, #29
 8002030:	d45a      	bmi.n	80020e8 <HAL_RCC_ClockConfig+0xec>
 8002032:	f7ff ffad 	bl	8001f90 <HAL_RCC_GetSysClockFreq>
 8002036:	686b      	ldr	r3, [r5, #4]
 8002038:	4a31      	ldr	r2, [pc, #196]	@ (8002100 <HAL_RCC_ClockConfig+0x104>)
 800203a:	061b      	lsls	r3, r3, #24
 800203c:	0f1b      	lsrs	r3, r3, #28
 800203e:	5cd3      	ldrb	r3, [r2, r3]
 8002040:	4930      	ldr	r1, [pc, #192]	@ (8002104 <HAL_RCC_ClockConfig+0x108>)
 8002042:	40d8      	lsrs	r0, r3
 8002044:	6008      	str	r0, [r1, #0]
 8002046:	2003      	movs	r0, #3
 8002048:	f7fe fd88 	bl	8000b5c <HAL_InitTick>
 800204c:	2000      	movs	r0, #0
 800204e:	e7db      	b.n	8002008 <HAL_RCC_ClockConfig+0xc>
 8002050:	682b      	ldr	r3, [r5, #0]
 8002052:	4393      	bics	r3, r2
 8002054:	430b      	orrs	r3, r1
 8002056:	602b      	str	r3, [r5, #0]
 8002058:	682b      	ldr	r3, [r5, #0]
 800205a:	4013      	ands	r3, r2
 800205c:	428b      	cmp	r3, r1
 800205e:	d1d2      	bne.n	8002006 <HAL_RCC_ClockConfig+0xa>
 8002060:	e7d9      	b.n	8002016 <HAL_RCC_ClockConfig+0x1a>
 8002062:	4926      	ldr	r1, [pc, #152]	@ (80020fc <HAL_RCC_ClockConfig+0x100>)
 8002064:	0753      	lsls	r3, r2, #29
 8002066:	d504      	bpl.n	8002072 <HAL_RCC_ClockConfig+0x76>
 8002068:	23e0      	movs	r3, #224	@ 0xe0
 800206a:	6848      	ldr	r0, [r1, #4]
 800206c:	00db      	lsls	r3, r3, #3
 800206e:	4303      	orrs	r3, r0
 8002070:	604b      	str	r3, [r1, #4]
 8002072:	20f0      	movs	r0, #240	@ 0xf0
 8002074:	684b      	ldr	r3, [r1, #4]
 8002076:	4383      	bics	r3, r0
 8002078:	68a0      	ldr	r0, [r4, #8]
 800207a:	4303      	orrs	r3, r0
 800207c:	604b      	str	r3, [r1, #4]
 800207e:	e7cd      	b.n	800201c <HAL_RCC_ClockConfig+0x20>
 8002080:	6862      	ldr	r2, [r4, #4]
 8002082:	4e1e      	ldr	r6, [pc, #120]	@ (80020fc <HAL_RCC_ClockConfig+0x100>)
 8002084:	2a01      	cmp	r2, #1
 8002086:	d103      	bne.n	8002090 <HAL_RCC_ClockConfig+0x94>
 8002088:	6833      	ldr	r3, [r6, #0]
 800208a:	039b      	lsls	r3, r3, #14
 800208c:	d405      	bmi.n	800209a <HAL_RCC_ClockConfig+0x9e>
 800208e:	e7ba      	b.n	8002006 <HAL_RCC_ClockConfig+0xa>
 8002090:	2a02      	cmp	r2, #2
 8002092:	d11a      	bne.n	80020ca <HAL_RCC_ClockConfig+0xce>
 8002094:	6833      	ldr	r3, [r6, #0]
 8002096:	019b      	lsls	r3, r3, #6
 8002098:	d5b5      	bpl.n	8002006 <HAL_RCC_ClockConfig+0xa>
 800209a:	2103      	movs	r1, #3
 800209c:	6873      	ldr	r3, [r6, #4]
 800209e:	438b      	bics	r3, r1
 80020a0:	4313      	orrs	r3, r2
 80020a2:	6073      	str	r3, [r6, #4]
 80020a4:	f7fe fd9a 	bl	8000bdc <HAL_GetTick>
 80020a8:	9001      	str	r0, [sp, #4]
 80020aa:	230c      	movs	r3, #12
 80020ac:	6872      	ldr	r2, [r6, #4]
 80020ae:	401a      	ands	r2, r3
 80020b0:	6863      	ldr	r3, [r4, #4]
 80020b2:	009b      	lsls	r3, r3, #2
 80020b4:	429a      	cmp	r2, r3
 80020b6:	d0b3      	beq.n	8002020 <HAL_RCC_ClockConfig+0x24>
 80020b8:	f7fe fd90 	bl	8000bdc <HAL_GetTick>
 80020bc:	9b01      	ldr	r3, [sp, #4]
 80020be:	1ac0      	subs	r0, r0, r3
 80020c0:	4b11      	ldr	r3, [pc, #68]	@ (8002108 <HAL_RCC_ClockConfig+0x10c>)
 80020c2:	4298      	cmp	r0, r3
 80020c4:	d9f1      	bls.n	80020aa <HAL_RCC_ClockConfig+0xae>
 80020c6:	2003      	movs	r0, #3
 80020c8:	e79e      	b.n	8002008 <HAL_RCC_ClockConfig+0xc>
 80020ca:	2a03      	cmp	r2, #3
 80020cc:	d101      	bne.n	80020d2 <HAL_RCC_ClockConfig+0xd6>
 80020ce:	6b73      	ldr	r3, [r6, #52]	@ 0x34
 80020d0:	e7db      	b.n	800208a <HAL_RCC_ClockConfig+0x8e>
 80020d2:	6833      	ldr	r3, [r6, #0]
 80020d4:	079b      	lsls	r3, r3, #30
 80020d6:	d4e0      	bmi.n	800209a <HAL_RCC_ClockConfig+0x9e>
 80020d8:	e795      	b.n	8002006 <HAL_RCC_ClockConfig+0xa>
 80020da:	682a      	ldr	r2, [r5, #0]
 80020dc:	439a      	bics	r2, r3
 80020de:	602a      	str	r2, [r5, #0]
 80020e0:	682a      	ldr	r2, [r5, #0]
 80020e2:	421a      	tst	r2, r3
 80020e4:	d0a1      	beq.n	800202a <HAL_RCC_ClockConfig+0x2e>
 80020e6:	e78e      	b.n	8002006 <HAL_RCC_ClockConfig+0xa>
 80020e8:	686b      	ldr	r3, [r5, #4]
 80020ea:	4a08      	ldr	r2, [pc, #32]	@ (800210c <HAL_RCC_ClockConfig+0x110>)
 80020ec:	4013      	ands	r3, r2
 80020ee:	68e2      	ldr	r2, [r4, #12]
 80020f0:	4313      	orrs	r3, r2
 80020f2:	606b      	str	r3, [r5, #4]
 80020f4:	e79d      	b.n	8002032 <HAL_RCC_ClockConfig+0x36>
 80020f6:	46c0      	nop			@ (mov r8, r8)
 80020f8:	40022000 	.word	0x40022000
 80020fc:	40021000 	.word	0x40021000
 8002100:	0800554a 	.word	0x0800554a
 8002104:	20000080 	.word	0x20000080
 8002108:	00001388 	.word	0x00001388
 800210c:	fffff8ff 	.word	0xfffff8ff

08002110 <HAL_RCCEx_PeriphCLKConfig>:
 8002110:	b5f0      	push	{r4, r5, r6, r7, lr}
 8002112:	6803      	ldr	r3, [r0, #0]
 8002114:	0005      	movs	r5, r0
 8002116:	b085      	sub	sp, #20
 8002118:	03db      	lsls	r3, r3, #15
 800211a:	d52b      	bpl.n	8002174 <HAL_RCCEx_PeriphCLKConfig+0x64>
 800211c:	2280      	movs	r2, #128	@ 0x80
 800211e:	2100      	movs	r1, #0
 8002120:	4c41      	ldr	r4, [pc, #260]	@ (8002228 <HAL_RCCEx_PeriphCLKConfig+0x118>)
 8002122:	0552      	lsls	r2, r2, #21
 8002124:	69e3      	ldr	r3, [r4, #28]
 8002126:	9100      	str	r1, [sp, #0]
 8002128:	4213      	tst	r3, r2
 800212a:	d108      	bne.n	800213e <HAL_RCCEx_PeriphCLKConfig+0x2e>
 800212c:	69e3      	ldr	r3, [r4, #28]
 800212e:	4313      	orrs	r3, r2
 8002130:	61e3      	str	r3, [r4, #28]
 8002132:	69e3      	ldr	r3, [r4, #28]
 8002134:	4013      	ands	r3, r2
 8002136:	9303      	str	r3, [sp, #12]
 8002138:	9b03      	ldr	r3, [sp, #12]
 800213a:	2301      	movs	r3, #1
 800213c:	9300      	str	r3, [sp, #0]
 800213e:	2780      	movs	r7, #128	@ 0x80
 8002140:	4e3a      	ldr	r6, [pc, #232]	@ (800222c <HAL_RCCEx_PeriphCLKConfig+0x11c>)
 8002142:	007f      	lsls	r7, r7, #1
 8002144:	6833      	ldr	r3, [r6, #0]
 8002146:	423b      	tst	r3, r7
 8002148:	d034      	beq.n	80021b4 <HAL_RCCEx_PeriphCLKConfig+0xa4>
 800214a:	6a21      	ldr	r1, [r4, #32]
 800214c:	22c0      	movs	r2, #192	@ 0xc0
 800214e:	0008      	movs	r0, r1
 8002150:	0092      	lsls	r2, r2, #2
 8002152:	686b      	ldr	r3, [r5, #4]
 8002154:	4e36      	ldr	r6, [pc, #216]	@ (8002230 <HAL_RCCEx_PeriphCLKConfig+0x120>)
 8002156:	4010      	ands	r0, r2
 8002158:	4211      	tst	r1, r2
 800215a:	d13d      	bne.n	80021d8 <HAL_RCCEx_PeriphCLKConfig+0xc8>
 800215c:	6a23      	ldr	r3, [r4, #32]
 800215e:	686a      	ldr	r2, [r5, #4]
 8002160:	4033      	ands	r3, r6
 8002162:	4313      	orrs	r3, r2
 8002164:	6223      	str	r3, [r4, #32]
 8002166:	9b00      	ldr	r3, [sp, #0]
 8002168:	2b01      	cmp	r3, #1
 800216a:	d103      	bne.n	8002174 <HAL_RCCEx_PeriphCLKConfig+0x64>
 800216c:	69e3      	ldr	r3, [r4, #28]
 800216e:	4a31      	ldr	r2, [pc, #196]	@ (8002234 <HAL_RCCEx_PeriphCLKConfig+0x124>)
 8002170:	4013      	ands	r3, r2
 8002172:	61e3      	str	r3, [r4, #28]
 8002174:	682b      	ldr	r3, [r5, #0]
 8002176:	07da      	lsls	r2, r3, #31
 8002178:	d506      	bpl.n	8002188 <HAL_RCCEx_PeriphCLKConfig+0x78>
 800217a:	2003      	movs	r0, #3
 800217c:	492a      	ldr	r1, [pc, #168]	@ (8002228 <HAL_RCCEx_PeriphCLKConfig+0x118>)
 800217e:	6b0a      	ldr	r2, [r1, #48]	@ 0x30
 8002180:	4382      	bics	r2, r0
 8002182:	68a8      	ldr	r0, [r5, #8]
 8002184:	4302      	orrs	r2, r0
 8002186:	630a      	str	r2, [r1, #48]	@ 0x30
 8002188:	069a      	lsls	r2, r3, #26
 800218a:	d506      	bpl.n	800219a <HAL_RCCEx_PeriphCLKConfig+0x8a>
 800218c:	2010      	movs	r0, #16
 800218e:	4926      	ldr	r1, [pc, #152]	@ (8002228 <HAL_RCCEx_PeriphCLKConfig+0x118>)
 8002190:	6b0a      	ldr	r2, [r1, #48]	@ 0x30
 8002192:	4382      	bics	r2, r0
 8002194:	68e8      	ldr	r0, [r5, #12]
 8002196:	4302      	orrs	r2, r0
 8002198:	630a      	str	r2, [r1, #48]	@ 0x30
 800219a:	039a      	lsls	r2, r3, #14
 800219c:	d506      	bpl.n	80021ac <HAL_RCCEx_PeriphCLKConfig+0x9c>
 800219e:	2080      	movs	r0, #128	@ 0x80
 80021a0:	4921      	ldr	r1, [pc, #132]	@ (8002228 <HAL_RCCEx_PeriphCLKConfig+0x118>)
 80021a2:	6b0a      	ldr	r2, [r1, #48]	@ 0x30
 80021a4:	4382      	bics	r2, r0
 80021a6:	6968      	ldr	r0, [r5, #20]
 80021a8:	4302      	orrs	r2, r0
 80021aa:	630a      	str	r2, [r1, #48]	@ 0x30
 80021ac:	055b      	lsls	r3, r3, #21
 80021ae:	d433      	bmi.n	8002218 <HAL_RCCEx_PeriphCLKConfig+0x108>
 80021b0:	2000      	movs	r0, #0
 80021b2:	e00f      	b.n	80021d4 <HAL_RCCEx_PeriphCLKConfig+0xc4>
 80021b4:	6833      	ldr	r3, [r6, #0]
 80021b6:	433b      	orrs	r3, r7
 80021b8:	6033      	str	r3, [r6, #0]
 80021ba:	f7fe fd0f 	bl	8000bdc <HAL_GetTick>
 80021be:	9001      	str	r0, [sp, #4]
 80021c0:	6833      	ldr	r3, [r6, #0]
 80021c2:	423b      	tst	r3, r7
 80021c4:	d1c1      	bne.n	800214a <HAL_RCCEx_PeriphCLKConfig+0x3a>
 80021c6:	f7fe fd09 	bl	8000bdc <HAL_GetTick>
 80021ca:	9b01      	ldr	r3, [sp, #4]
 80021cc:	1ac0      	subs	r0, r0, r3
 80021ce:	2864      	cmp	r0, #100	@ 0x64
 80021d0:	d9f6      	bls.n	80021c0 <HAL_RCCEx_PeriphCLKConfig+0xb0>
 80021d2:	2003      	movs	r0, #3
 80021d4:	b005      	add	sp, #20
 80021d6:	bdf0      	pop	{r4, r5, r6, r7, pc}
 80021d8:	4013      	ands	r3, r2
 80021da:	4283      	cmp	r3, r0
 80021dc:	d0be      	beq.n	800215c <HAL_RCCEx_PeriphCLKConfig+0x4c>
 80021de:	2280      	movs	r2, #128	@ 0x80
 80021e0:	6a23      	ldr	r3, [r4, #32]
 80021e2:	6a20      	ldr	r0, [r4, #32]
 80021e4:	0019      	movs	r1, r3
 80021e6:	0252      	lsls	r2, r2, #9
 80021e8:	4302      	orrs	r2, r0
 80021ea:	6222      	str	r2, [r4, #32]
 80021ec:	6a22      	ldr	r2, [r4, #32]
 80021ee:	4812      	ldr	r0, [pc, #72]	@ (8002238 <HAL_RCCEx_PeriphCLKConfig+0x128>)
 80021f0:	4031      	ands	r1, r6
 80021f2:	4002      	ands	r2, r0
 80021f4:	6222      	str	r2, [r4, #32]
 80021f6:	6221      	str	r1, [r4, #32]
 80021f8:	07db      	lsls	r3, r3, #31
 80021fa:	d5af      	bpl.n	800215c <HAL_RCCEx_PeriphCLKConfig+0x4c>
 80021fc:	f7fe fcee 	bl	8000bdc <HAL_GetTick>
 8002200:	0007      	movs	r7, r0
 8002202:	2202      	movs	r2, #2
 8002204:	6a23      	ldr	r3, [r4, #32]
 8002206:	4213      	tst	r3, r2
 8002208:	d1a8      	bne.n	800215c <HAL_RCCEx_PeriphCLKConfig+0x4c>
 800220a:	f7fe fce7 	bl	8000bdc <HAL_GetTick>
 800220e:	4b0b      	ldr	r3, [pc, #44]	@ (800223c <HAL_RCCEx_PeriphCLKConfig+0x12c>)
 8002210:	1bc0      	subs	r0, r0, r7
 8002212:	4298      	cmp	r0, r3
 8002214:	d9f5      	bls.n	8002202 <HAL_RCCEx_PeriphCLKConfig+0xf2>
 8002216:	e7dc      	b.n	80021d2 <HAL_RCCEx_PeriphCLKConfig+0xc2>
 8002218:	2140      	movs	r1, #64	@ 0x40
 800221a:	4a03      	ldr	r2, [pc, #12]	@ (8002228 <HAL_RCCEx_PeriphCLKConfig+0x118>)
 800221c:	6b13      	ldr	r3, [r2, #48]	@ 0x30
 800221e:	438b      	bics	r3, r1
 8002220:	6929      	ldr	r1, [r5, #16]
 8002222:	430b      	orrs	r3, r1
 8002224:	6313      	str	r3, [r2, #48]	@ 0x30
 8002226:	e7c3      	b.n	80021b0 <HAL_RCCEx_PeriphCLKConfig+0xa0>
 8002228:	40021000 	.word	0x40021000
 800222c:	40007000 	.word	0x40007000
 8002230:	fffffcff 	.word	0xfffffcff
 8002234:	efffffff 	.word	0xefffffff
 8002238:	fffeffff 	.word	0xfffeffff
 800223c:	00001388 	.word	0x00001388

08002240 <TIM_OC1_SetConfig>:
 8002240:	b570      	push	{r4, r5, r6, lr}
 8002242:	2401      	movs	r4, #1
 8002244:	6a03      	ldr	r3, [r0, #32]
 8002246:	6a02      	ldr	r2, [r0, #32]
 8002248:	43a2      	bics	r2, r4
 800224a:	6202      	str	r2, [r0, #32]
 800224c:	2273      	movs	r2, #115	@ 0x73
 800224e:	6844      	ldr	r4, [r0, #4]
 8002250:	6985      	ldr	r5, [r0, #24]
 8002252:	4395      	bics	r5, r2
 8002254:	680a      	ldr	r2, [r1, #0]
 8002256:	4315      	orrs	r5, r2
 8002258:	2202      	movs	r2, #2
 800225a:	4393      	bics	r3, r2
 800225c:	688a      	ldr	r2, [r1, #8]
 800225e:	4313      	orrs	r3, r2
 8002260:	4a0d      	ldr	r2, [pc, #52]	@ (8002298 <TIM_OC1_SetConfig+0x58>)
 8002262:	4290      	cmp	r0, r2
 8002264:	d005      	beq.n	8002272 <TIM_OC1_SetConfig+0x32>
 8002266:	4a0d      	ldr	r2, [pc, #52]	@ (800229c <TIM_OC1_SetConfig+0x5c>)
 8002268:	4290      	cmp	r0, r2
 800226a:	d002      	beq.n	8002272 <TIM_OC1_SetConfig+0x32>
 800226c:	4a0c      	ldr	r2, [pc, #48]	@ (80022a0 <TIM_OC1_SetConfig+0x60>)
 800226e:	4290      	cmp	r0, r2
 8002270:	d10b      	bne.n	800228a <TIM_OC1_SetConfig+0x4a>
 8002272:	2208      	movs	r2, #8
 8002274:	4393      	bics	r3, r2
 8002276:	68ca      	ldr	r2, [r1, #12]
 8002278:	698e      	ldr	r6, [r1, #24]
 800227a:	4313      	orrs	r3, r2
 800227c:	2204      	movs	r2, #4
 800227e:	4393      	bics	r3, r2
 8002280:	4a08      	ldr	r2, [pc, #32]	@ (80022a4 <TIM_OC1_SetConfig+0x64>)
 8002282:	4022      	ands	r2, r4
 8002284:	694c      	ldr	r4, [r1, #20]
 8002286:	4334      	orrs	r4, r6
 8002288:	4314      	orrs	r4, r2
 800228a:	684a      	ldr	r2, [r1, #4]
 800228c:	6044      	str	r4, [r0, #4]
 800228e:	6185      	str	r5, [r0, #24]
 8002290:	6342      	str	r2, [r0, #52]	@ 0x34
 8002292:	6203      	str	r3, [r0, #32]
 8002294:	bd70      	pop	{r4, r5, r6, pc}
 8002296:	46c0      	nop			@ (mov r8, r8)
 8002298:	40012c00 	.word	0x40012c00
 800229c:	40014400 	.word	0x40014400
 80022a0:	40014800 	.word	0x40014800
 80022a4:	fffffcff 	.word	0xfffffcff

080022a8 <TIM_OC3_SetConfig>:
 80022a8:	b570      	push	{r4, r5, r6, lr}
 80022aa:	4a17      	ldr	r2, [pc, #92]	@ (8002308 <TIM_OC3_SetConfig+0x60>)
 80022ac:	6a05      	ldr	r5, [r0, #32]
 80022ae:	6a03      	ldr	r3, [r0, #32]
 80022b0:	4013      	ands	r3, r2
 80022b2:	6203      	str	r3, [r0, #32]
 80022b4:	2373      	movs	r3, #115	@ 0x73
 80022b6:	6842      	ldr	r2, [r0, #4]
 80022b8:	69c4      	ldr	r4, [r0, #28]
 80022ba:	439c      	bics	r4, r3
 80022bc:	680b      	ldr	r3, [r1, #0]
 80022be:	431c      	orrs	r4, r3
 80022c0:	4b12      	ldr	r3, [pc, #72]	@ (800230c <TIM_OC3_SetConfig+0x64>)
 80022c2:	401d      	ands	r5, r3
 80022c4:	688b      	ldr	r3, [r1, #8]
 80022c6:	021b      	lsls	r3, r3, #8
 80022c8:	432b      	orrs	r3, r5
 80022ca:	4d11      	ldr	r5, [pc, #68]	@ (8002310 <TIM_OC3_SetConfig+0x68>)
 80022cc:	42a8      	cmp	r0, r5
 80022ce:	d10e      	bne.n	80022ee <TIM_OC3_SetConfig+0x46>
 80022d0:	4d10      	ldr	r5, [pc, #64]	@ (8002314 <TIM_OC3_SetConfig+0x6c>)
 80022d2:	401d      	ands	r5, r3
 80022d4:	68cb      	ldr	r3, [r1, #12]
 80022d6:	021b      	lsls	r3, r3, #8
 80022d8:	432b      	orrs	r3, r5
 80022da:	4d0f      	ldr	r5, [pc, #60]	@ (8002318 <TIM_OC3_SetConfig+0x70>)
 80022dc:	402b      	ands	r3, r5
 80022de:	4d0f      	ldr	r5, [pc, #60]	@ (800231c <TIM_OC3_SetConfig+0x74>)
 80022e0:	698e      	ldr	r6, [r1, #24]
 80022e2:	4015      	ands	r5, r2
 80022e4:	694a      	ldr	r2, [r1, #20]
 80022e6:	4332      	orrs	r2, r6
 80022e8:	0112      	lsls	r2, r2, #4
 80022ea:	432a      	orrs	r2, r5
 80022ec:	e005      	b.n	80022fa <TIM_OC3_SetConfig+0x52>
 80022ee:	4d0c      	ldr	r5, [pc, #48]	@ (8002320 <TIM_OC3_SetConfig+0x78>)
 80022f0:	42a8      	cmp	r0, r5
 80022f2:	d0f4      	beq.n	80022de <TIM_OC3_SetConfig+0x36>
 80022f4:	4d0b      	ldr	r5, [pc, #44]	@ (8002324 <TIM_OC3_SetConfig+0x7c>)
 80022f6:	42a8      	cmp	r0, r5
 80022f8:	d0f1      	beq.n	80022de <TIM_OC3_SetConfig+0x36>
 80022fa:	6042      	str	r2, [r0, #4]
 80022fc:	684a      	ldr	r2, [r1, #4]
 80022fe:	61c4      	str	r4, [r0, #28]
 8002300:	63c2      	str	r2, [r0, #60]	@ 0x3c
 8002302:	6203      	str	r3, [r0, #32]
 8002304:	bd70      	pop	{r4, r5, r6, pc}
 8002306:	46c0      	nop			@ (mov r8, r8)
 8002308:	fffffeff 	.word	0xfffffeff
 800230c:	fffffdff 	.word	0xfffffdff
 8002310:	40012c00 	.word	0x40012c00
 8002314:	fffff7ff 	.word	0xfffff7ff
 8002318:	fffffbff 	.word	0xfffffbff
 800231c:	ffffcfff 	.word	0xffffcfff
 8002320:	40014400 	.word	0x40014400
 8002324:	40014800 	.word	0x40014800

08002328 <TIM_OC4_SetConfig>:
 8002328:	b530      	push	{r4, r5, lr}
 800232a:	4a12      	ldr	r2, [pc, #72]	@ (8002374 <TIM_OC4_SetConfig+0x4c>)
 800232c:	6a04      	ldr	r4, [r0, #32]
 800232e:	6a03      	ldr	r3, [r0, #32]
 8002330:	4d11      	ldr	r5, [pc, #68]	@ (8002378 <TIM_OC4_SetConfig+0x50>)
 8002332:	4013      	ands	r3, r2
 8002334:	6203      	str	r3, [r0, #32]
 8002336:	6843      	ldr	r3, [r0, #4]
 8002338:	69c2      	ldr	r2, [r0, #28]
 800233a:	402a      	ands	r2, r5
 800233c:	680d      	ldr	r5, [r1, #0]
 800233e:	022d      	lsls	r5, r5, #8
 8002340:	4315      	orrs	r5, r2
 8002342:	4a0e      	ldr	r2, [pc, #56]	@ (800237c <TIM_OC4_SetConfig+0x54>)
 8002344:	4014      	ands	r4, r2
 8002346:	688a      	ldr	r2, [r1, #8]
 8002348:	0312      	lsls	r2, r2, #12
 800234a:	4322      	orrs	r2, r4
 800234c:	4c0c      	ldr	r4, [pc, #48]	@ (8002380 <TIM_OC4_SetConfig+0x58>)
 800234e:	42a0      	cmp	r0, r4
 8002350:	d005      	beq.n	800235e <TIM_OC4_SetConfig+0x36>
 8002352:	4c0c      	ldr	r4, [pc, #48]	@ (8002384 <TIM_OC4_SetConfig+0x5c>)
 8002354:	42a0      	cmp	r0, r4
 8002356:	d002      	beq.n	800235e <TIM_OC4_SetConfig+0x36>
 8002358:	4c0b      	ldr	r4, [pc, #44]	@ (8002388 <TIM_OC4_SetConfig+0x60>)
 800235a:	42a0      	cmp	r0, r4
 800235c:	d104      	bne.n	8002368 <TIM_OC4_SetConfig+0x40>
 800235e:	4c0b      	ldr	r4, [pc, #44]	@ (800238c <TIM_OC4_SetConfig+0x64>)
 8002360:	401c      	ands	r4, r3
 8002362:	694b      	ldr	r3, [r1, #20]
 8002364:	019b      	lsls	r3, r3, #6
 8002366:	4323      	orrs	r3, r4
 8002368:	6043      	str	r3, [r0, #4]
 800236a:	684b      	ldr	r3, [r1, #4]
 800236c:	61c5      	str	r5, [r0, #28]
 800236e:	6403      	str	r3, [r0, #64]	@ 0x40
 8002370:	6202      	str	r2, [r0, #32]
 8002372:	bd30      	pop	{r4, r5, pc}
 8002374:	ffffefff 	.word	0xffffefff
 8002378:	ffff8cff 	.word	0xffff8cff
 800237c:	ffffdfff 	.word	0xffffdfff
 8002380:	40012c00 	.word	0x40012c00
 8002384:	40014400 	.word	0x40014400
 8002388:	40014800 	.word	0x40014800
 800238c:	ffffbfff 	.word	0xffffbfff

08002390 <HAL_TIM_PWM_MspInit>:
 8002390:	4770      	bx	lr
	...

08002394 <TIM_Base_SetConfig>:
 8002394:	b510      	push	{r4, lr}
 8002396:	4c1c      	ldr	r4, [pc, #112]	@ (8002408 <TIM_Base_SetConfig+0x74>)
 8002398:	6803      	ldr	r3, [r0, #0]
 800239a:	42a0      	cmp	r0, r4
 800239c:	d006      	beq.n	80023ac <TIM_Base_SetConfig+0x18>
 800239e:	2280      	movs	r2, #128	@ 0x80
 80023a0:	05d2      	lsls	r2, r2, #23
 80023a2:	4290      	cmp	r0, r2
 80023a4:	d002      	beq.n	80023ac <TIM_Base_SetConfig+0x18>
 80023a6:	4a19      	ldr	r2, [pc, #100]	@ (800240c <TIM_Base_SetConfig+0x78>)
 80023a8:	4290      	cmp	r0, r2
 80023aa:	d108      	bne.n	80023be <TIM_Base_SetConfig+0x2a>
 80023ac:	2270      	movs	r2, #112	@ 0x70
 80023ae:	4393      	bics	r3, r2
 80023b0:	684a      	ldr	r2, [r1, #4]
 80023b2:	4313      	orrs	r3, r2
 80023b4:	4a16      	ldr	r2, [pc, #88]	@ (8002410 <TIM_Base_SetConfig+0x7c>)
 80023b6:	401a      	ands	r2, r3
 80023b8:	68cb      	ldr	r3, [r1, #12]
 80023ba:	4313      	orrs	r3, r2
 80023bc:	e008      	b.n	80023d0 <TIM_Base_SetConfig+0x3c>
 80023be:	4a15      	ldr	r2, [pc, #84]	@ (8002414 <TIM_Base_SetConfig+0x80>)
 80023c0:	4290      	cmp	r0, r2
 80023c2:	d0f7      	beq.n	80023b4 <TIM_Base_SetConfig+0x20>
 80023c4:	4a14      	ldr	r2, [pc, #80]	@ (8002418 <TIM_Base_SetConfig+0x84>)
 80023c6:	4290      	cmp	r0, r2
 80023c8:	d0f4      	beq.n	80023b4 <TIM_Base_SetConfig+0x20>
 80023ca:	4a14      	ldr	r2, [pc, #80]	@ (800241c <TIM_Base_SetConfig+0x88>)
 80023cc:	4290      	cmp	r0, r2
 80023ce:	d0f1      	beq.n	80023b4 <TIM_Base_SetConfig+0x20>
 80023d0:	2280      	movs	r2, #128	@ 0x80
 80023d2:	4393      	bics	r3, r2
 80023d4:	694a      	ldr	r2, [r1, #20]
 80023d6:	4313      	orrs	r3, r2
 80023d8:	6003      	str	r3, [r0, #0]
 80023da:	688b      	ldr	r3, [r1, #8]
 80023dc:	62c3      	str	r3, [r0, #44]	@ 0x2c
 80023de:	680b      	ldr	r3, [r1, #0]
 80023e0:	6283      	str	r3, [r0, #40]	@ 0x28
 80023e2:	42a0      	cmp	r0, r4
 80023e4:	d005      	beq.n	80023f2 <TIM_Base_SetConfig+0x5e>
 80023e6:	4b0c      	ldr	r3, [pc, #48]	@ (8002418 <TIM_Base_SetConfig+0x84>)
 80023e8:	4298      	cmp	r0, r3
 80023ea:	d002      	beq.n	80023f2 <TIM_Base_SetConfig+0x5e>
 80023ec:	4b0b      	ldr	r3, [pc, #44]	@ (800241c <TIM_Base_SetConfig+0x88>)
 80023ee:	4298      	cmp	r0, r3
 80023f0:	d101      	bne.n	80023f6 <TIM_Base_SetConfig+0x62>
 80023f2:	690b      	ldr	r3, [r1, #16]
 80023f4:	6303      	str	r3, [r0, #48]	@ 0x30
 80023f6:	2201      	movs	r2, #1
 80023f8:	6142      	str	r2, [r0, #20]
 80023fa:	6903      	ldr	r3, [r0, #16]
 80023fc:	4213      	tst	r3, r2
 80023fe:	d002      	beq.n	8002406 <TIM_Base_SetConfig+0x72>
 8002400:	6903      	ldr	r3, [r0, #16]
 8002402:	4393      	bics	r3, r2
 8002404:	6103      	str	r3, [r0, #16]
 8002406:	bd10      	pop	{r4, pc}
 8002408:	40012c00 	.word	0x40012c00
 800240c:	40000400 	.word	0x40000400
 8002410:	fffffcff 	.word	0xfffffcff
 8002414:	40002000 	.word	0x40002000
 8002418:	40014400 	.word	0x40014400
 800241c:	40014800 	.word	0x40014800

08002420 <HAL_TIM_Base_Init>:
 8002420:	b570      	push	{r4, r5, r6, lr}
 8002422:	0004      	movs	r4, r0
 8002424:	2001      	movs	r0, #1
 8002426:	2c00      	cmp	r4, #0
 8002428:	d021      	beq.n	800246e <HAL_TIM_Base_Init+0x4e>
 800242a:	0025      	movs	r5, r4
 800242c:	353d      	adds	r5, #61	@ 0x3d
 800242e:	782b      	ldrb	r3, [r5, #0]
 8002430:	b2da      	uxtb	r2, r3
 8002432:	2b00      	cmp	r3, #0
 8002434:	d105      	bne.n	8002442 <HAL_TIM_Base_Init+0x22>
 8002436:	0023      	movs	r3, r4
 8002438:	333c      	adds	r3, #60	@ 0x3c
 800243a:	0020      	movs	r0, r4
 800243c:	701a      	strb	r2, [r3, #0]
 800243e:	f7fe fadf 	bl	8000a00 <HAL_TIM_Base_MspInit>
 8002442:	2302      	movs	r3, #2
 8002444:	702b      	strb	r3, [r5, #0]
 8002446:	6820      	ldr	r0, [r4, #0]
 8002448:	1d21      	adds	r1, r4, #4
 800244a:	f7ff ffa3 	bl	8002394 <TIM_Base_SetConfig>
 800244e:	0022      	movs	r2, r4
 8002450:	2301      	movs	r3, #1
 8002452:	2000      	movs	r0, #0
 8002454:	3246      	adds	r2, #70	@ 0x46
 8002456:	7013      	strb	r3, [r2, #0]
 8002458:	3445      	adds	r4, #69	@ 0x45
 800245a:	3a08      	subs	r2, #8
 800245c:	7013      	strb	r3, [r2, #0]
 800245e:	7053      	strb	r3, [r2, #1]
 8002460:	7093      	strb	r3, [r2, #2]
 8002462:	70d3      	strb	r3, [r2, #3]
 8002464:	7113      	strb	r3, [r2, #4]
 8002466:	7153      	strb	r3, [r2, #5]
 8002468:	7193      	strb	r3, [r2, #6]
 800246a:	7023      	strb	r3, [r4, #0]
 800246c:	702b      	strb	r3, [r5, #0]
 800246e:	bd70      	pop	{r4, r5, r6, pc}

08002470 <HAL_TIM_PWM_Init>:
 8002470:	b570      	push	{r4, r5, r6, lr}
 8002472:	0004      	movs	r4, r0
 8002474:	2001      	movs	r0, #1
 8002476:	2c00      	cmp	r4, #0
 8002478:	d021      	beq.n	80024be <HAL_TIM_PWM_Init+0x4e>
 800247a:	0025      	movs	r5, r4
 800247c:	353d      	adds	r5, #61	@ 0x3d
 800247e:	782b      	ldrb	r3, [r5, #0]
 8002480:	b2da      	uxtb	r2, r3
 8002482:	2b00      	cmp	r3, #0
 8002484:	d105      	bne.n	8002492 <HAL_TIM_PWM_Init+0x22>
 8002486:	0023      	movs	r3, r4
 8002488:	333c      	adds	r3, #60	@ 0x3c
 800248a:	0020      	movs	r0, r4
 800248c:	701a      	strb	r2, [r3, #0]
 800248e:	f7ff ff7f 	bl	8002390 <HAL_TIM_PWM_MspInit>
 8002492:	2302      	movs	r3, #2
 8002494:	702b      	strb	r3, [r5, #0]
 8002496:	6820      	ldr	r0, [r4, #0]
 8002498:	1d21      	adds	r1, r4, #4
 800249a:	f7ff ff7b 	bl	8002394 <TIM_Base_SetConfig>
 800249e:	0022      	movs	r2, r4
 80024a0:	2301      	movs	r3, #1
 80024a2:	2000      	movs	r0, #0
 80024a4:	3246      	adds	r2, #70	@ 0x46
 80024a6:	7013      	strb	r3, [r2, #0]
 80024a8:	3445      	adds	r4, #69	@ 0x45
 80024aa:	3a08      	subs	r2, #8
 80024ac:	7013      	strb	r3, [r2, #0]
 80024ae:	7053      	strb	r3, [r2, #1]
 80024b0:	7093      	strb	r3, [r2, #2]
 80024b2:	70d3      	strb	r3, [r2, #3]
 80024b4:	7113      	strb	r3, [r2, #4]
 80024b6:	7153      	strb	r3, [r2, #5]
 80024b8:	7193      	strb	r3, [r2, #6]
 80024ba:	7023      	strb	r3, [r4, #0]
 80024bc:	702b      	strb	r3, [r5, #0]
 80024be:	bd70      	pop	{r4, r5, r6, pc}

080024c0 <TIM_OC2_SetConfig>:
 80024c0:	2210      	movs	r2, #16
 80024c2:	b570      	push	{r4, r5, r6, lr}
 80024c4:	6a05      	ldr	r5, [r0, #32]
 80024c6:	6a03      	ldr	r3, [r0, #32]
 80024c8:	4c16      	ldr	r4, [pc, #88]	@ (8002524 <TIM_OC2_SetConfig+0x64>)
 80024ca:	4393      	bics	r3, r2
 80024cc:	6203      	str	r3, [r0, #32]
 80024ce:	6842      	ldr	r2, [r0, #4]
 80024d0:	6983      	ldr	r3, [r0, #24]
 80024d2:	4023      	ands	r3, r4
 80024d4:	680c      	ldr	r4, [r1, #0]
 80024d6:	0224      	lsls	r4, r4, #8
 80024d8:	431c      	orrs	r4, r3
 80024da:	2320      	movs	r3, #32
 80024dc:	439d      	bics	r5, r3
 80024de:	688b      	ldr	r3, [r1, #8]
 80024e0:	011b      	lsls	r3, r3, #4
 80024e2:	432b      	orrs	r3, r5
 80024e4:	4d10      	ldr	r5, [pc, #64]	@ (8002528 <TIM_OC2_SetConfig+0x68>)
 80024e6:	42a8      	cmp	r0, r5
 80024e8:	d10f      	bne.n	800250a <TIM_OC2_SetConfig+0x4a>
 80024ea:	2580      	movs	r5, #128	@ 0x80
 80024ec:	43ab      	bics	r3, r5
 80024ee:	001e      	movs	r6, r3
 80024f0:	68cb      	ldr	r3, [r1, #12]
 80024f2:	3d40      	subs	r5, #64	@ 0x40
 80024f4:	011b      	lsls	r3, r3, #4
 80024f6:	4333      	orrs	r3, r6
 80024f8:	43ab      	bics	r3, r5
 80024fa:	4d0c      	ldr	r5, [pc, #48]	@ (800252c <TIM_OC2_SetConfig+0x6c>)
 80024fc:	698e      	ldr	r6, [r1, #24]
 80024fe:	4015      	ands	r5, r2
 8002500:	694a      	ldr	r2, [r1, #20]
 8002502:	4332      	orrs	r2, r6
 8002504:	0092      	lsls	r2, r2, #2
 8002506:	432a      	orrs	r2, r5
 8002508:	e005      	b.n	8002516 <TIM_OC2_SetConfig+0x56>
 800250a:	4d09      	ldr	r5, [pc, #36]	@ (8002530 <TIM_OC2_SetConfig+0x70>)
 800250c:	42a8      	cmp	r0, r5
 800250e:	d0f4      	beq.n	80024fa <TIM_OC2_SetConfig+0x3a>
 8002510:	4d08      	ldr	r5, [pc, #32]	@ (8002534 <TIM_OC2_SetConfig+0x74>)
 8002512:	42a8      	cmp	r0, r5
 8002514:	d0f1      	beq.n	80024fa <TIM_OC2_SetConfig+0x3a>
 8002516:	6042      	str	r2, [r0, #4]
 8002518:	684a      	ldr	r2, [r1, #4]
 800251a:	6184      	str	r4, [r0, #24]
 800251c:	6382      	str	r2, [r0, #56]	@ 0x38
 800251e:	6203      	str	r3, [r0, #32]
 8002520:	bd70      	pop	{r4, r5, r6, pc}
 8002522:	46c0      	nop			@ (mov r8, r8)
 8002524:	ffff8cff 	.word	0xffff8cff
 8002528:	40012c00 	.word	0x40012c00
 800252c:	fffff3ff 	.word	0xfffff3ff
 8002530:	40014400 	.word	0x40014400
 8002534:	40014800 	.word	0x40014800

08002538 <HAL_TIM_PWM_ConfigChannel>:
 8002538:	b5f8      	push	{r3, r4, r5, r6, r7, lr}
 800253a:	0006      	movs	r6, r0
 800253c:	363c      	adds	r6, #60	@ 0x3c
 800253e:	0015      	movs	r5, r2
 8002540:	7832      	ldrb	r2, [r6, #0]
 8002542:	0003      	movs	r3, r0
 8002544:	000c      	movs	r4, r1
 8002546:	2002      	movs	r0, #2
 8002548:	2a01      	cmp	r2, #1
 800254a:	d00a      	beq.n	8002562 <HAL_TIM_PWM_ConfigChannel+0x2a>
 800254c:	3801      	subs	r0, #1
 800254e:	7030      	strb	r0, [r6, #0]
 8002550:	2d08      	cmp	r5, #8
 8002552:	d03f      	beq.n	80025d4 <HAL_TIM_PWM_ConfigChannel+0x9c>
 8002554:	d806      	bhi.n	8002564 <HAL_TIM_PWM_ConfigChannel+0x2c>
 8002556:	2d00      	cmp	r5, #0
 8002558:	d019      	beq.n	800258e <HAL_TIM_PWM_ConfigChannel+0x56>
 800255a:	2d04      	cmp	r5, #4
 800255c:	d029      	beq.n	80025b2 <HAL_TIM_PWM_ConfigChannel+0x7a>
 800255e:	2300      	movs	r3, #0
 8002560:	7033      	strb	r3, [r6, #0]
 8002562:	bdf8      	pop	{r3, r4, r5, r6, r7, pc}
 8002564:	2d0c      	cmp	r5, #12
 8002566:	d1fa      	bne.n	800255e <HAL_TIM_PWM_ConfigChannel+0x26>
 8002568:	681d      	ldr	r5, [r3, #0]
 800256a:	0028      	movs	r0, r5
 800256c:	f7ff fedc 	bl	8002328 <TIM_OC4_SetConfig>
 8002570:	2380      	movs	r3, #128	@ 0x80
 8002572:	69ea      	ldr	r2, [r5, #28]
 8002574:	011b      	lsls	r3, r3, #4
 8002576:	4313      	orrs	r3, r2
 8002578:	61eb      	str	r3, [r5, #28]
 800257a:	69eb      	ldr	r3, [r5, #28]
 800257c:	4a1d      	ldr	r2, [pc, #116]	@ (80025f4 <HAL_TIM_PWM_ConfigChannel+0xbc>)
 800257e:	4013      	ands	r3, r2
 8002580:	61eb      	str	r3, [r5, #28]
 8002582:	6923      	ldr	r3, [r4, #16]
 8002584:	69ea      	ldr	r2, [r5, #28]
 8002586:	021b      	lsls	r3, r3, #8
 8002588:	4313      	orrs	r3, r2
 800258a:	61eb      	str	r3, [r5, #28]
 800258c:	e00f      	b.n	80025ae <HAL_TIM_PWM_ConfigChannel+0x76>
 800258e:	681d      	ldr	r5, [r3, #0]
 8002590:	0028      	movs	r0, r5
 8002592:	f7ff fe55 	bl	8002240 <TIM_OC1_SetConfig>
 8002596:	2308      	movs	r3, #8
 8002598:	69aa      	ldr	r2, [r5, #24]
 800259a:	4313      	orrs	r3, r2
 800259c:	2204      	movs	r2, #4
 800259e:	61ab      	str	r3, [r5, #24]
 80025a0:	69ab      	ldr	r3, [r5, #24]
 80025a2:	4393      	bics	r3, r2
 80025a4:	61ab      	str	r3, [r5, #24]
 80025a6:	69ab      	ldr	r3, [r5, #24]
 80025a8:	6922      	ldr	r2, [r4, #16]
 80025aa:	4313      	orrs	r3, r2
 80025ac:	61ab      	str	r3, [r5, #24]
 80025ae:	2000      	movs	r0, #0
 80025b0:	e7d5      	b.n	800255e <HAL_TIM_PWM_ConfigChannel+0x26>
 80025b2:	681d      	ldr	r5, [r3, #0]
 80025b4:	0028      	movs	r0, r5
 80025b6:	f7ff ff83 	bl	80024c0 <TIM_OC2_SetConfig>
 80025ba:	2380      	movs	r3, #128	@ 0x80
 80025bc:	69aa      	ldr	r2, [r5, #24]
 80025be:	011b      	lsls	r3, r3, #4
 80025c0:	4313      	orrs	r3, r2
 80025c2:	61ab      	str	r3, [r5, #24]
 80025c4:	69ab      	ldr	r3, [r5, #24]
 80025c6:	4a0b      	ldr	r2, [pc, #44]	@ (80025f4 <HAL_TIM_PWM_ConfigChannel+0xbc>)
 80025c8:	4013      	ands	r3, r2
 80025ca:	61ab      	str	r3, [r5, #24]
 80025cc:	6923      	ldr	r3, [r4, #16]
 80025ce:	69aa      	ldr	r2, [r5, #24]
 80025d0:	021b      	lsls	r3, r3, #8
 80025d2:	e7ea      	b.n	80025aa <HAL_TIM_PWM_ConfigChannel+0x72>
 80025d4:	681f      	ldr	r7, [r3, #0]
 80025d6:	0038      	movs	r0, r7
 80025d8:	f7ff fe66 	bl	80022a8 <TIM_OC3_SetConfig>
 80025dc:	2204      	movs	r2, #4
 80025de:	69fb      	ldr	r3, [r7, #28]
 80025e0:	431d      	orrs	r5, r3
 80025e2:	61fd      	str	r5, [r7, #28]
 80025e4:	69fb      	ldr	r3, [r7, #28]
 80025e6:	4393      	bics	r3, r2
 80025e8:	61fb      	str	r3, [r7, #28]
 80025ea:	69fb      	ldr	r3, [r7, #28]
 80025ec:	6922      	ldr	r2, [r4, #16]
 80025ee:	4313      	orrs	r3, r2
 80025f0:	61fb      	str	r3, [r7, #28]
 80025f2:	e7dc      	b.n	80025ae <HAL_TIM_PWM_ConfigChannel+0x76>
 80025f4:	fffffbff 	.word	0xfffffbff

080025f8 <TIM_ETR_SetConfig>:
 80025f8:	b530      	push	{r4, r5, lr}
 80025fa:	6884      	ldr	r4, [r0, #8]
 80025fc:	4d03      	ldr	r5, [pc, #12]	@ (800260c <TIM_ETR_SetConfig+0x14>)
 80025fe:	430a      	orrs	r2, r1
 8002600:	021b      	lsls	r3, r3, #8
 8002602:	402c      	ands	r4, r5
 8002604:	4313      	orrs	r3, r2
 8002606:	4323      	orrs	r3, r4
 8002608:	6083      	str	r3, [r0, #8]
 800260a:	bd30      	pop	{r4, r5, pc}
 800260c:	ffff00ff 	.word	0xffff00ff

08002610 <HAL_TIM_ConfigClockSource>:
 8002610:	b5f8      	push	{r3, r4, r5, r6, r7, lr}
 8002612:	0005      	movs	r5, r0
 8002614:	2202      	movs	r2, #2
 8002616:	353c      	adds	r5, #60	@ 0x3c
 8002618:	782c      	ldrb	r4, [r5, #0]
 800261a:	0003      	movs	r3, r0
 800261c:	0010      	movs	r0, r2
 800261e:	2c01      	cmp	r4, #1
 8002620:	d01b      	beq.n	800265a <HAL_TIM_ConfigClockSource+0x4a>
 8002622:	001e      	movs	r6, r3
 8002624:	3801      	subs	r0, #1
 8002626:	363d      	adds	r6, #61	@ 0x3d
 8002628:	7028      	strb	r0, [r5, #0]
 800262a:	7032      	strb	r2, [r6, #0]
 800262c:	681c      	ldr	r4, [r3, #0]
 800262e:	4a41      	ldr	r2, [pc, #260]	@ (8002734 <HAL_TIM_ConfigClockSource+0x124>)
 8002630:	68a3      	ldr	r3, [r4, #8]
 8002632:	4013      	ands	r3, r2
 8002634:	60a3      	str	r3, [r4, #8]
 8002636:	680b      	ldr	r3, [r1, #0]
 8002638:	2b60      	cmp	r3, #96	@ 0x60
 800263a:	d04e      	beq.n	80026da <HAL_TIM_ConfigClockSource+0xca>
 800263c:	d82d      	bhi.n	800269a <HAL_TIM_ConfigClockSource+0x8a>
 800263e:	2b40      	cmp	r3, #64	@ 0x40
 8002640:	d062      	beq.n	8002708 <HAL_TIM_ConfigClockSource+0xf8>
 8002642:	d813      	bhi.n	800266c <HAL_TIM_ConfigClockSource+0x5c>
 8002644:	2b20      	cmp	r3, #32
 8002646:	d00b      	beq.n	8002660 <HAL_TIM_ConfigClockSource+0x50>
 8002648:	d808      	bhi.n	800265c <HAL_TIM_ConfigClockSource+0x4c>
 800264a:	2210      	movs	r2, #16
 800264c:	0019      	movs	r1, r3
 800264e:	4391      	bics	r1, r2
 8002650:	d006      	beq.n	8002660 <HAL_TIM_ConfigClockSource+0x50>
 8002652:	2301      	movs	r3, #1
 8002654:	7033      	strb	r3, [r6, #0]
 8002656:	2300      	movs	r3, #0
 8002658:	702b      	strb	r3, [r5, #0]
 800265a:	bdf8      	pop	{r3, r4, r5, r6, r7, pc}
 800265c:	2b30      	cmp	r3, #48	@ 0x30
 800265e:	d1f8      	bne.n	8002652 <HAL_TIM_ConfigClockSource+0x42>
 8002660:	2170      	movs	r1, #112	@ 0x70
 8002662:	68a2      	ldr	r2, [r4, #8]
 8002664:	438a      	bics	r2, r1
 8002666:	4313      	orrs	r3, r2
 8002668:	2207      	movs	r2, #7
 800266a:	e028      	b.n	80026be <HAL_TIM_ConfigClockSource+0xae>
 800266c:	2b50      	cmp	r3, #80	@ 0x50
 800266e:	d1f0      	bne.n	8002652 <HAL_TIM_ConfigClockSource+0x42>
 8002670:	684a      	ldr	r2, [r1, #4]
 8002672:	68cb      	ldr	r3, [r1, #12]
 8002674:	6a21      	ldr	r1, [r4, #32]
 8002676:	6a27      	ldr	r7, [r4, #32]
 8002678:	011b      	lsls	r3, r3, #4
 800267a:	4387      	bics	r7, r0
 800267c:	6227      	str	r7, [r4, #32]
 800267e:	27f0      	movs	r7, #240	@ 0xf0
 8002680:	69a0      	ldr	r0, [r4, #24]
 8002682:	43b8      	bics	r0, r7
 8002684:	4303      	orrs	r3, r0
 8002686:	200a      	movs	r0, #10
 8002688:	61a3      	str	r3, [r4, #24]
 800268a:	2370      	movs	r3, #112	@ 0x70
 800268c:	4381      	bics	r1, r0
 800268e:	430a      	orrs	r2, r1
 8002690:	6222      	str	r2, [r4, #32]
 8002692:	68a2      	ldr	r2, [r4, #8]
 8002694:	439a      	bics	r2, r3
 8002696:	3b19      	subs	r3, #25
 8002698:	e011      	b.n	80026be <HAL_TIM_ConfigClockSource+0xae>
 800269a:	2280      	movs	r2, #128	@ 0x80
 800269c:	0152      	lsls	r2, r2, #5
 800269e:	4293      	cmp	r3, r2
 80026a0:	d00f      	beq.n	80026c2 <HAL_TIM_ConfigClockSource+0xb2>
 80026a2:	2280      	movs	r2, #128	@ 0x80
 80026a4:	0192      	lsls	r2, r2, #6
 80026a6:	4293      	cmp	r3, r2
 80026a8:	d00d      	beq.n	80026c6 <HAL_TIM_ConfigClockSource+0xb6>
 80026aa:	2b70      	cmp	r3, #112	@ 0x70
 80026ac:	d1d1      	bne.n	8002652 <HAL_TIM_ConfigClockSource+0x42>
 80026ae:	68cb      	ldr	r3, [r1, #12]
 80026b0:	684a      	ldr	r2, [r1, #4]
 80026b2:	0020      	movs	r0, r4
 80026b4:	6889      	ldr	r1, [r1, #8]
 80026b6:	f7ff ff9f 	bl	80025f8 <TIM_ETR_SetConfig>
 80026ba:	2377      	movs	r3, #119	@ 0x77
 80026bc:	68a2      	ldr	r2, [r4, #8]
 80026be:	4313      	orrs	r3, r2
 80026c0:	60a3      	str	r3, [r4, #8]
 80026c2:	2000      	movs	r0, #0
 80026c4:	e7c5      	b.n	8002652 <HAL_TIM_ConfigClockSource+0x42>
 80026c6:	68cb      	ldr	r3, [r1, #12]
 80026c8:	684a      	ldr	r2, [r1, #4]
 80026ca:	0020      	movs	r0, r4
 80026cc:	6889      	ldr	r1, [r1, #8]
 80026ce:	f7ff ff93 	bl	80025f8 <TIM_ETR_SetConfig>
 80026d2:	2380      	movs	r3, #128	@ 0x80
 80026d4:	68a2      	ldr	r2, [r4, #8]
 80026d6:	01db      	lsls	r3, r3, #7
 80026d8:	e7f1      	b.n	80026be <HAL_TIM_ConfigClockSource+0xae>
 80026da:	2710      	movs	r7, #16
 80026dc:	684b      	ldr	r3, [r1, #4]
 80026de:	68ca      	ldr	r2, [r1, #12]
 80026e0:	6a21      	ldr	r1, [r4, #32]
 80026e2:	6a20      	ldr	r0, [r4, #32]
 80026e4:	0312      	lsls	r2, r2, #12
 80026e6:	43b8      	bics	r0, r7
 80026e8:	6220      	str	r0, [r4, #32]
 80026ea:	69a0      	ldr	r0, [r4, #24]
 80026ec:	4f12      	ldr	r7, [pc, #72]	@ (8002738 <HAL_TIM_ConfigClockSource+0x128>)
 80026ee:	011b      	lsls	r3, r3, #4
 80026f0:	4038      	ands	r0, r7
 80026f2:	4302      	orrs	r2, r0
 80026f4:	20a0      	movs	r0, #160	@ 0xa0
 80026f6:	4381      	bics	r1, r0
 80026f8:	430b      	orrs	r3, r1
 80026fa:	61a2      	str	r2, [r4, #24]
 80026fc:	6223      	str	r3, [r4, #32]
 80026fe:	2370      	movs	r3, #112	@ 0x70
 8002700:	68a2      	ldr	r2, [r4, #8]
 8002702:	439a      	bics	r2, r3
 8002704:	3b09      	subs	r3, #9
 8002706:	e7da      	b.n	80026be <HAL_TIM_ConfigClockSource+0xae>
 8002708:	684a      	ldr	r2, [r1, #4]
 800270a:	68cb      	ldr	r3, [r1, #12]
 800270c:	6a21      	ldr	r1, [r4, #32]
 800270e:	6a27      	ldr	r7, [r4, #32]
 8002710:	011b      	lsls	r3, r3, #4
 8002712:	4387      	bics	r7, r0
 8002714:	6227      	str	r7, [r4, #32]
 8002716:	27f0      	movs	r7, #240	@ 0xf0
 8002718:	69a0      	ldr	r0, [r4, #24]
 800271a:	43b8      	bics	r0, r7
 800271c:	4303      	orrs	r3, r0
 800271e:	200a      	movs	r0, #10
 8002720:	61a3      	str	r3, [r4, #24]
 8002722:	2370      	movs	r3, #112	@ 0x70
 8002724:	4381      	bics	r1, r0
 8002726:	430a      	orrs	r2, r1
 8002728:	6222      	str	r2, [r4, #32]
 800272a:	68a2      	ldr	r2, [r4, #8]
 800272c:	439a      	bics	r2, r3
 800272e:	3b29      	subs	r3, #41	@ 0x29
 8002730:	e7c5      	b.n	80026be <HAL_TIM_ConfigClockSource+0xae>
 8002732:	46c0      	nop			@ (mov r8, r8)
 8002734:	ffff0088 	.word	0xffff0088
 8002738:	ffff0fff 	.word	0xffff0fff

0800273c <TIM_CCxChannelCmd>:
 800273c:	231f      	movs	r3, #31
 800273e:	b510      	push	{r4, lr}
 8002740:	2401      	movs	r4, #1
 8002742:	4019      	ands	r1, r3
 8002744:	408c      	lsls	r4, r1
 8002746:	408a      	lsls	r2, r1
 8002748:	6a03      	ldr	r3, [r0, #32]
 800274a:	43a3      	bics	r3, r4
 800274c:	6203      	str	r3, [r0, #32]
 800274e:	6a03      	ldr	r3, [r0, #32]
 8002750:	431a      	orrs	r2, r3
 8002752:	6202      	str	r2, [r0, #32]
 8002754:	bd10      	pop	{r4, pc}
	...

08002758 <HAL_TIM_OC_Start>:
 8002758:	0002      	movs	r2, r0
 800275a:	0003      	movs	r3, r0
 800275c:	b510      	push	{r4, lr}
 800275e:	2900      	cmp	r1, #0
 8002760:	d109      	bne.n	8002776 <HAL_TIM_OC_Start+0x1e>
 8002762:	333e      	adds	r3, #62	@ 0x3e
 8002764:	781b      	ldrb	r3, [r3, #0]
 8002766:	3b01      	subs	r3, #1
 8002768:	1e58      	subs	r0, r3, #1
 800276a:	4183      	sbcs	r3, r0
 800276c:	b2db      	uxtb	r3, r3
 800276e:	2001      	movs	r0, #1
 8002770:	2b00      	cmp	r3, #0
 8002772:	d00a      	beq.n	800278a <HAL_TIM_OC_Start+0x32>
 8002774:	bd10      	pop	{r4, pc}
 8002776:	2904      	cmp	r1, #4
 8002778:	d101      	bne.n	800277e <HAL_TIM_OC_Start+0x26>
 800277a:	333f      	adds	r3, #63	@ 0x3f
 800277c:	e7f2      	b.n	8002764 <HAL_TIM_OC_Start+0xc>
 800277e:	2908      	cmp	r1, #8
 8002780:	d101      	bne.n	8002786 <HAL_TIM_OC_Start+0x2e>
 8002782:	3340      	adds	r3, #64	@ 0x40
 8002784:	e7ee      	b.n	8002764 <HAL_TIM_OC_Start+0xc>
 8002786:	3341      	adds	r3, #65	@ 0x41
 8002788:	e7ec      	b.n	8002764 <HAL_TIM_OC_Start+0xc>
 800278a:	2302      	movs	r3, #2
 800278c:	0010      	movs	r0, r2
 800278e:	2900      	cmp	r1, #0
 8002790:	d11d      	bne.n	80027ce <HAL_TIM_OC_Start+0x76>
 8002792:	303e      	adds	r0, #62	@ 0x3e
 8002794:	7003      	strb	r3, [r0, #0]
 8002796:	6814      	ldr	r4, [r2, #0]
 8002798:	2201      	movs	r2, #1
 800279a:	0020      	movs	r0, r4
 800279c:	f7ff ffce 	bl	800273c <TIM_CCxChannelCmd>
 80027a0:	4a16      	ldr	r2, [pc, #88]	@ (80027fc <HAL_TIM_OC_Start+0xa4>)
 80027a2:	4294      	cmp	r4, r2
 80027a4:	d005      	beq.n	80027b2 <HAL_TIM_OC_Start+0x5a>
 80027a6:	4b16      	ldr	r3, [pc, #88]	@ (8002800 <HAL_TIM_OC_Start+0xa8>)
 80027a8:	429c      	cmp	r4, r3
 80027aa:	d002      	beq.n	80027b2 <HAL_TIM_OC_Start+0x5a>
 80027ac:	4b15      	ldr	r3, [pc, #84]	@ (8002804 <HAL_TIM_OC_Start+0xac>)
 80027ae:	429c      	cmp	r4, r3
 80027b0:	d117      	bne.n	80027e2 <HAL_TIM_OC_Start+0x8a>
 80027b2:	2380      	movs	r3, #128	@ 0x80
 80027b4:	6c61      	ldr	r1, [r4, #68]	@ 0x44
 80027b6:	021b      	lsls	r3, r3, #8
 80027b8:	430b      	orrs	r3, r1
 80027ba:	6463      	str	r3, [r4, #68]	@ 0x44
 80027bc:	4294      	cmp	r4, r2
 80027be:	d117      	bne.n	80027f0 <HAL_TIM_OC_Start+0x98>
 80027c0:	2207      	movs	r2, #7
 80027c2:	68a3      	ldr	r3, [r4, #8]
 80027c4:	4013      	ands	r3, r2
 80027c6:	2b06      	cmp	r3, #6
 80027c8:	d112      	bne.n	80027f0 <HAL_TIM_OC_Start+0x98>
 80027ca:	2000      	movs	r0, #0
 80027cc:	e7d2      	b.n	8002774 <HAL_TIM_OC_Start+0x1c>
 80027ce:	2904      	cmp	r1, #4
 80027d0:	d101      	bne.n	80027d6 <HAL_TIM_OC_Start+0x7e>
 80027d2:	303f      	adds	r0, #63	@ 0x3f
 80027d4:	e7de      	b.n	8002794 <HAL_TIM_OC_Start+0x3c>
 80027d6:	2908      	cmp	r1, #8
 80027d8:	d101      	bne.n	80027de <HAL_TIM_OC_Start+0x86>
 80027da:	3040      	adds	r0, #64	@ 0x40
 80027dc:	e7da      	b.n	8002794 <HAL_TIM_OC_Start+0x3c>
 80027de:	3041      	adds	r0, #65	@ 0x41
 80027e0:	e7d8      	b.n	8002794 <HAL_TIM_OC_Start+0x3c>
 80027e2:	2380      	movs	r3, #128	@ 0x80
 80027e4:	05db      	lsls	r3, r3, #23
 80027e6:	429c      	cmp	r4, r3
 80027e8:	d0ea      	beq.n	80027c0 <HAL_TIM_OC_Start+0x68>
 80027ea:	4b07      	ldr	r3, [pc, #28]	@ (8002808 <HAL_TIM_OC_Start+0xb0>)
 80027ec:	429c      	cmp	r4, r3
 80027ee:	d0e7      	beq.n	80027c0 <HAL_TIM_OC_Start+0x68>
 80027f0:	2301      	movs	r3, #1
 80027f2:	6822      	ldr	r2, [r4, #0]
 80027f4:	4313      	orrs	r3, r2
 80027f6:	6023      	str	r3, [r4, #0]
 80027f8:	e7e7      	b.n	80027ca <HAL_TIM_OC_Start+0x72>
 80027fa:	46c0      	nop			@ (mov r8, r8)
 80027fc:	40012c00 	.word	0x40012c00
 8002800:	40014400 	.word	0x40014400
 8002804:	40014800 	.word	0x40014800
 8002808:	40000400 	.word	0x40000400

0800280c <HAL_TIM_PWM_Start>:
 800280c:	b510      	push	{r4, lr}
 800280e:	f7ff ffa3 	bl	8002758 <HAL_TIM_OC_Start>
 8002812:	bd10      	pop	{r4, pc}

08002814 <HAL_TIM_OC_Stop>:
 8002814:	b570      	push	{r4, r5, r6, lr}
 8002816:	6805      	ldr	r5, [r0, #0]
 8002818:	2200      	movs	r2, #0
 800281a:	0004      	movs	r4, r0
 800281c:	0028      	movs	r0, r5
 800281e:	000e      	movs	r6, r1
 8002820:	f7ff ff8c 	bl	800273c <TIM_CCxChannelCmd>
 8002824:	4b18      	ldr	r3, [pc, #96]	@ (8002888 <HAL_TIM_OC_Stop+0x74>)
 8002826:	4a19      	ldr	r2, [pc, #100]	@ (800288c <HAL_TIM_OC_Stop+0x78>)
 8002828:	429d      	cmp	r5, r3
 800282a:	d005      	beq.n	8002838 <HAL_TIM_OC_Stop+0x24>
 800282c:	4b18      	ldr	r3, [pc, #96]	@ (8002890 <HAL_TIM_OC_Stop+0x7c>)
 800282e:	429d      	cmp	r5, r3
 8002830:	d002      	beq.n	8002838 <HAL_TIM_OC_Stop+0x24>
 8002832:	4b18      	ldr	r3, [pc, #96]	@ (8002894 <HAL_TIM_OC_Stop+0x80>)
 8002834:	429d      	cmp	r5, r3
 8002836:	d10a      	bne.n	800284e <HAL_TIM_OC_Stop+0x3a>
 8002838:	6a2b      	ldr	r3, [r5, #32]
 800283a:	4213      	tst	r3, r2
 800283c:	d107      	bne.n	800284e <HAL_TIM_OC_Stop+0x3a>
 800283e:	6a29      	ldr	r1, [r5, #32]
 8002840:	4b15      	ldr	r3, [pc, #84]	@ (8002898 <HAL_TIM_OC_Stop+0x84>)
 8002842:	4219      	tst	r1, r3
 8002844:	d103      	bne.n	800284e <HAL_TIM_OC_Stop+0x3a>
 8002846:	6c6b      	ldr	r3, [r5, #68]	@ 0x44
 8002848:	4914      	ldr	r1, [pc, #80]	@ (800289c <HAL_TIM_OC_Stop+0x88>)
 800284a:	400b      	ands	r3, r1
 800284c:	646b      	str	r3, [r5, #68]	@ 0x44
 800284e:	6a2b      	ldr	r3, [r5, #32]
 8002850:	4213      	tst	r3, r2
 8002852:	d107      	bne.n	8002864 <HAL_TIM_OC_Stop+0x50>
 8002854:	6a2a      	ldr	r2, [r5, #32]
 8002856:	4b10      	ldr	r3, [pc, #64]	@ (8002898 <HAL_TIM_OC_Stop+0x84>)
 8002858:	421a      	tst	r2, r3
 800285a:	d103      	bne.n	8002864 <HAL_TIM_OC_Stop+0x50>
 800285c:	2201      	movs	r2, #1
 800285e:	682b      	ldr	r3, [r5, #0]
 8002860:	4393      	bics	r3, r2
 8002862:	602b      	str	r3, [r5, #0]
 8002864:	2301      	movs	r3, #1
 8002866:	2e00      	cmp	r6, #0
 8002868:	d103      	bne.n	8002872 <HAL_TIM_OC_Stop+0x5e>
 800286a:	343e      	adds	r4, #62	@ 0x3e
 800286c:	2000      	movs	r0, #0
 800286e:	7023      	strb	r3, [r4, #0]
 8002870:	bd70      	pop	{r4, r5, r6, pc}
 8002872:	2e04      	cmp	r6, #4
 8002874:	d101      	bne.n	800287a <HAL_TIM_OC_Stop+0x66>
 8002876:	343f      	adds	r4, #63	@ 0x3f
 8002878:	e7f8      	b.n	800286c <HAL_TIM_OC_Stop+0x58>
 800287a:	2e08      	cmp	r6, #8
 800287c:	d101      	bne.n	8002882 <HAL_TIM_OC_Stop+0x6e>
 800287e:	3440      	adds	r4, #64	@ 0x40
 8002880:	e7f4      	b.n	800286c <HAL_TIM_OC_Stop+0x58>
 8002882:	3441      	adds	r4, #65	@ 0x41
 8002884:	e7f2      	b.n	800286c <HAL_TIM_OC_Stop+0x58>
 8002886:	46c0      	nop			@ (mov r8, r8)
 8002888:	40012c00 	.word	0x40012c00
 800288c:	00001111 	.word	0x00001111
 8002890:	40014400 	.word	0x40014400
 8002894:	40014800 	.word	0x40014800
 8002898:	00000444 	.word	0x00000444
 800289c:	ffff7fff 	.word	0xffff7fff

080028a0 <HAL_TIM_PWM_Stop>:
 80028a0:	b510      	push	{r4, lr}
 80028a2:	f7ff ffb7 	bl	8002814 <HAL_TIM_OC_Stop>
 80028a6:	bd10      	pop	{r4, pc}

080028a8 <HAL_TIMEx_MasterConfigSynchronization>:
 80028a8:	b570      	push	{r4, r5, r6, lr}
 80028aa:	0004      	movs	r4, r0
 80028ac:	2202      	movs	r2, #2
 80028ae:	343c      	adds	r4, #60	@ 0x3c
 80028b0:	7825      	ldrb	r5, [r4, #0]
 80028b2:	0003      	movs	r3, r0
 80028b4:	0010      	movs	r0, r2
 80028b6:	2d01      	cmp	r5, #1
 80028b8:	d01d      	beq.n	80028f6 <HAL_TIMEx_MasterConfigSynchronization+0x4e>
 80028ba:	001d      	movs	r5, r3
 80028bc:	2670      	movs	r6, #112	@ 0x70
 80028be:	353d      	adds	r5, #61	@ 0x3d
 80028c0:	702a      	strb	r2, [r5, #0]
 80028c2:	681b      	ldr	r3, [r3, #0]
 80028c4:	6858      	ldr	r0, [r3, #4]
 80028c6:	689a      	ldr	r2, [r3, #8]
 80028c8:	43b0      	bics	r0, r6
 80028ca:	680e      	ldr	r6, [r1, #0]
 80028cc:	4330      	orrs	r0, r6
 80028ce:	6058      	str	r0, [r3, #4]
 80028d0:	4809      	ldr	r0, [pc, #36]	@ (80028f8 <HAL_TIMEx_MasterConfigSynchronization+0x50>)
 80028d2:	4283      	cmp	r3, r0
 80028d4:	d006      	beq.n	80028e4 <HAL_TIMEx_MasterConfigSynchronization+0x3c>
 80028d6:	2080      	movs	r0, #128	@ 0x80
 80028d8:	05c0      	lsls	r0, r0, #23
 80028da:	4283      	cmp	r3, r0
 80028dc:	d002      	beq.n	80028e4 <HAL_TIMEx_MasterConfigSynchronization+0x3c>
 80028de:	4807      	ldr	r0, [pc, #28]	@ (80028fc <HAL_TIMEx_MasterConfigSynchronization+0x54>)
 80028e0:	4283      	cmp	r3, r0
 80028e2:	d104      	bne.n	80028ee <HAL_TIMEx_MasterConfigSynchronization+0x46>
 80028e4:	2080      	movs	r0, #128	@ 0x80
 80028e6:	6849      	ldr	r1, [r1, #4]
 80028e8:	4382      	bics	r2, r0
 80028ea:	430a      	orrs	r2, r1
 80028ec:	609a      	str	r2, [r3, #8]
 80028ee:	2301      	movs	r3, #1
 80028f0:	2000      	movs	r0, #0
 80028f2:	702b      	strb	r3, [r5, #0]
 80028f4:	7020      	strb	r0, [r4, #0]
 80028f6:	bd70      	pop	{r4, r5, r6, pc}
 80028f8:	40012c00 	.word	0x40012c00
 80028fc:	40000400 	.word	0x40000400

08002900 <USB_EnableGlobalInt>:
 8002900:	1d82      	adds	r2, r0, #6
 8002902:	0003      	movs	r3, r0
 8002904:	2000      	movs	r0, #0
 8002906:	87d0      	strh	r0, [r2, #62]	@ 0x3e
 8002908:	4a01      	ldr	r2, [pc, #4]	@ (8002910 <USB_EnableGlobalInt+0x10>)
 800290a:	3302      	adds	r3, #2
 800290c:	87da      	strh	r2, [r3, #62]	@ 0x3e
 800290e:	4770      	bx	lr
 8002910:	ffffbf80 	.word	0xffffbf80

08002914 <USB_DisableGlobalInt>:
 8002914:	3002      	adds	r0, #2
 8002916:	8fc3      	ldrh	r3, [r0, #62]	@ 0x3e
 8002918:	4a02      	ldr	r2, [pc, #8]	@ (8002924 <USB_DisableGlobalInt+0x10>)
 800291a:	4013      	ands	r3, r2
 800291c:	87c3      	strh	r3, [r0, #62]	@ 0x3e
 800291e:	2000      	movs	r0, #0
 8002920:	4770      	bx	lr
 8002922:	46c0      	nop			@ (mov r8, r8)
 8002924:	0000407f 	.word	0x0000407f

08002928 <USB_DevInit>:
 8002928:	1c82      	adds	r2, r0, #2
 800292a:	0003      	movs	r3, r0
 800292c:	2101      	movs	r1, #1
 800292e:	2000      	movs	r0, #0
 8002930:	b082      	sub	sp, #8
 8002932:	87d1      	strh	r1, [r2, #62]	@ 0x3e
 8002934:	87d0      	strh	r0, [r2, #62]	@ 0x3e
 8002936:	1d9a      	adds	r2, r3, #6
 8002938:	3350      	adds	r3, #80	@ 0x50
 800293a:	87d0      	strh	r0, [r2, #62]	@ 0x3e
 800293c:	8018      	strh	r0, [r3, #0]
 800293e:	b002      	add	sp, #8
 8002940:	4770      	bx	lr
	...

08002944 <USB_ActivateEndpoint>:
 8002944:	b5f7      	push	{r0, r1, r2, r4, r5, r6, r7, lr}
 8002946:	780e      	ldrb	r6, [r1, #0]
 8002948:	4a7a      	ldr	r2, [pc, #488]	@ (8002b34 <USB_ActivateEndpoint+0x1f0>)
 800294a:	00b3      	lsls	r3, r6, #2
 800294c:	18c3      	adds	r3, r0, r3
 800294e:	881c      	ldrh	r4, [r3, #0]
 8002950:	78cf      	ldrb	r7, [r1, #3]
 8002952:	4014      	ands	r4, r2
 8002954:	2201      	movs	r2, #1
 8002956:	0005      	movs	r5, r0
 8002958:	9200      	str	r2, [sp, #0]
 800295a:	2f03      	cmp	r7, #3
 800295c:	d808      	bhi.n	8002970 <USB_ActivateEndpoint+0x2c>
 800295e:	0038      	movs	r0, r7
 8002960:	f7fd fbee 	bl	8000140 <__gnu_thumb1_case_uqi>
 8002964:	3c3f4202 	.word	0x3c3f4202
 8002968:	2280      	movs	r2, #128	@ 0x80
 800296a:	0092      	lsls	r2, r2, #2
 800296c:	4314      	orrs	r4, r2
 800296e:	9700      	str	r7, [sp, #0]
 8002970:	4a71      	ldr	r2, [pc, #452]	@ (8002b38 <USB_ActivateEndpoint+0x1f4>)
 8002972:	4314      	orrs	r4, r2
 8002974:	b2a4      	uxth	r4, r4
 8002976:	801c      	strh	r4, [r3, #0]
 8002978:	8818      	ldrh	r0, [r3, #0]
 800297a:	4c70      	ldr	r4, [pc, #448]	@ (8002b3c <USB_ActivateEndpoint+0x1f8>)
 800297c:	4020      	ands	r0, r4
 800297e:	4330      	orrs	r0, r6
 8002980:	4310      	orrs	r0, r2
 8002982:	b280      	uxth	r0, r0
 8002984:	8018      	strh	r0, [r3, #0]
 8002986:	00f0      	lsls	r0, r6, #3
 8002988:	4684      	mov	ip, r0
 800298a:	7b08      	ldrb	r0, [r1, #12]
 800298c:	44ac      	add	ip, r5
 800298e:	3550      	adds	r5, #80	@ 0x50
 8002990:	9501      	str	r5, [sp, #4]
 8002992:	2800      	cmp	r0, #0
 8002994:	d000      	beq.n	8002998 <USB_ActivateEndpoint+0x54>
 8002996:	e06b      	b.n	8002a70 <USB_ActivateEndpoint+0x12c>
 8002998:	88cd      	ldrh	r5, [r1, #6]
 800299a:	7848      	ldrb	r0, [r1, #1]
 800299c:	086d      	lsrs	r5, r5, #1
 800299e:	006d      	lsls	r5, r5, #1
 80029a0:	2800      	cmp	r0, #0
 80029a2:	d023      	beq.n	80029ec <USB_ActivateEndpoint+0xa8>
 80029a4:	2080      	movs	r0, #128	@ 0x80
 80029a6:	9901      	ldr	r1, [sp, #4]
 80029a8:	00c0      	lsls	r0, r0, #3
 80029aa:	8809      	ldrh	r1, [r1, #0]
 80029ac:	4461      	add	r1, ip
 80029ae:	1809      	adds	r1, r1, r0
 80029b0:	800d      	strh	r5, [r1, #0]
 80029b2:	8819      	ldrh	r1, [r3, #0]
 80029b4:	0649      	lsls	r1, r1, #25
 80029b6:	d504      	bpl.n	80029c2 <USB_ActivateEndpoint+0x7e>
 80029b8:	8819      	ldrh	r1, [r3, #0]
 80029ba:	4021      	ands	r1, r4
 80029bc:	4c60      	ldr	r4, [pc, #384]	@ (8002b40 <USB_ActivateEndpoint+0x1fc>)
 80029be:	4321      	orrs	r1, r4
 80029c0:	8019      	strh	r1, [r3, #0]
 80029c2:	4d60      	ldr	r5, [pc, #384]	@ (8002b44 <USB_ActivateEndpoint+0x200>)
 80029c4:	2f01      	cmp	r7, #1
 80029c6:	d100      	bne.n	80029ca <USB_ActivateEndpoint+0x86>
 80029c8:	e0ae      	b.n	8002b28 <USB_ActivateEndpoint+0x1e4>
 80029ca:	2120      	movs	r1, #32
 80029cc:	881c      	ldrh	r4, [r3, #0]
 80029ce:	402c      	ands	r4, r5
 80029d0:	4061      	eors	r1, r4
 80029d2:	430a      	orrs	r2, r1
 80029d4:	b292      	uxth	r2, r2
 80029d6:	9800      	ldr	r0, [sp, #0]
 80029d8:	801a      	strh	r2, [r3, #0]
 80029da:	bdfe      	pop	{r1, r2, r3, r4, r5, r6, r7, pc}
 80029dc:	22c0      	movs	r2, #192	@ 0xc0
 80029de:	00d2      	lsls	r2, r2, #3
 80029e0:	4314      	orrs	r4, r2
 80029e2:	2200      	movs	r2, #0
 80029e4:	9200      	str	r2, [sp, #0]
 80029e6:	e7c3      	b.n	8002970 <USB_ActivateEndpoint+0x2c>
 80029e8:	2280      	movs	r2, #128	@ 0x80
 80029ea:	e7f8      	b.n	80029de <USB_ActivateEndpoint+0x9a>
 80029ec:	9801      	ldr	r0, [sp, #4]
 80029ee:	6909      	ldr	r1, [r1, #16]
 80029f0:	8807      	ldrh	r7, [r0, #0]
 80029f2:	4855      	ldr	r0, [pc, #340]	@ (8002b48 <USB_ActivateEndpoint+0x204>)
 80029f4:	4467      	add	r7, ip
 80029f6:	183f      	adds	r7, r7, r0
 80029f8:	9801      	ldr	r0, [sp, #4]
 80029fa:	803d      	strh	r5, [r7, #0]
 80029fc:	8805      	ldrh	r5, [r0, #0]
 80029fe:	4853      	ldr	r0, [pc, #332]	@ (8002b4c <USB_ActivateEndpoint+0x208>)
 8002a00:	4465      	add	r5, ip
 8002a02:	182d      	adds	r5, r5, r0
 8002a04:	882f      	ldrh	r7, [r5, #0]
 8002a06:	05bf      	lsls	r7, r7, #22
 8002a08:	0dbf      	lsrs	r7, r7, #22
 8002a0a:	802f      	strh	r7, [r5, #0]
 8002a0c:	2900      	cmp	r1, #0
 8002a0e:	d115      	bne.n	8002a3c <USB_ActivateEndpoint+0xf8>
 8002a10:	2780      	movs	r7, #128	@ 0x80
 8002a12:	8829      	ldrh	r1, [r5, #0]
 8002a14:	023f      	lsls	r7, r7, #8
 8002a16:	4339      	orrs	r1, r7
 8002a18:	8029      	strh	r1, [r5, #0]
 8002a1a:	8819      	ldrh	r1, [r3, #0]
 8002a1c:	0449      	lsls	r1, r1, #17
 8002a1e:	d504      	bpl.n	8002a2a <USB_ActivateEndpoint+0xe6>
 8002a20:	8819      	ldrh	r1, [r3, #0]
 8002a22:	4021      	ands	r1, r4
 8002a24:	4c4a      	ldr	r4, [pc, #296]	@ (8002b50 <USB_ActivateEndpoint+0x20c>)
 8002a26:	4321      	orrs	r1, r4
 8002a28:	8019      	strh	r1, [r3, #0]
 8002a2a:	494a      	ldr	r1, [pc, #296]	@ (8002b54 <USB_ActivateEndpoint+0x210>)
 8002a2c:	881c      	ldrh	r4, [r3, #0]
 8002a2e:	400c      	ands	r4, r1
 8002a30:	21c0      	movs	r1, #192	@ 0xc0
 8002a32:	2e00      	cmp	r6, #0
 8002a34:	d000      	beq.n	8002a38 <USB_ActivateEndpoint+0xf4>
 8002a36:	2180      	movs	r1, #128	@ 0x80
 8002a38:	0189      	lsls	r1, r1, #6
 8002a3a:	e7c9      	b.n	80029d0 <USB_ActivateEndpoint+0x8c>
 8002a3c:	293e      	cmp	r1, #62	@ 0x3e
 8002a3e:	d808      	bhi.n	8002a52 <USB_ActivateEndpoint+0x10e>
 8002a40:	2001      	movs	r0, #1
 8002a42:	084f      	lsrs	r7, r1, #1
 8002a44:	4001      	ands	r1, r0
 8002a46:	187f      	adds	r7, r7, r1
 8002a48:	8829      	ldrh	r1, [r5, #0]
 8002a4a:	02bf      	lsls	r7, r7, #10
 8002a4c:	4339      	orrs	r1, r7
 8002a4e:	b289      	uxth	r1, r1
 8002a50:	e7e2      	b.n	8002a18 <USB_ActivateEndpoint+0xd4>
 8002a52:	201f      	movs	r0, #31
 8002a54:	094f      	lsrs	r7, r1, #5
 8002a56:	4001      	ands	r1, r0
 8002a58:	0008      	movs	r0, r1
 8002a5a:	4241      	negs	r1, r0
 8002a5c:	4141      	adcs	r1, r0
 8002a5e:	1a7f      	subs	r7, r7, r1
 8002a60:	8829      	ldrh	r1, [r5, #0]
 8002a62:	02bf      	lsls	r7, r7, #10
 8002a64:	4339      	orrs	r1, r7
 8002a66:	4f3c      	ldr	r7, [pc, #240]	@ (8002b58 <USB_ActivateEndpoint+0x214>)
 8002a68:	430f      	orrs	r7, r1
 8002a6a:	b2bf      	uxth	r7, r7
 8002a6c:	802f      	strh	r7, [r5, #0]
 8002a6e:	e7d4      	b.n	8002a1a <USB_ActivateEndpoint+0xd6>
 8002a70:	881d      	ldrh	r5, [r3, #0]
 8002a72:	2f02      	cmp	r7, #2
 8002a74:	d13a      	bne.n	8002aec <USB_ActivateEndpoint+0x1a8>
 8002a76:	4e39      	ldr	r6, [pc, #228]	@ (8002b5c <USB_ActivateEndpoint+0x218>)
 8002a78:	4025      	ands	r5, r4
 8002a7a:	4335      	orrs	r5, r6
 8002a7c:	9801      	ldr	r0, [sp, #4]
 8002a7e:	801d      	strh	r5, [r3, #0]
 8002a80:	8805      	ldrh	r5, [r0, #0]
 8002a82:	2080      	movs	r0, #128	@ 0x80
 8002a84:	890e      	ldrh	r6, [r1, #8]
 8002a86:	4465      	add	r5, ip
 8002a88:	00c0      	lsls	r0, r0, #3
 8002a8a:	0876      	lsrs	r6, r6, #1
 8002a8c:	182d      	adds	r5, r5, r0
 8002a8e:	0076      	lsls	r6, r6, #1
 8002a90:	9801      	ldr	r0, [sp, #4]
 8002a92:	802e      	strh	r6, [r5, #0]
 8002a94:	8805      	ldrh	r5, [r0, #0]
 8002a96:	894e      	ldrh	r6, [r1, #10]
 8002a98:	482b      	ldr	r0, [pc, #172]	@ (8002b48 <USB_ActivateEndpoint+0x204>)
 8002a9a:	4465      	add	r5, ip
 8002a9c:	0876      	lsrs	r6, r6, #1
 8002a9e:	182d      	adds	r5, r5, r0
 8002aa0:	0076      	lsls	r6, r6, #1
 8002aa2:	802e      	strh	r6, [r5, #0]
 8002aa4:	7849      	ldrb	r1, [r1, #1]
 8002aa6:	4e27      	ldr	r6, [pc, #156]	@ (8002b44 <USB_ActivateEndpoint+0x200>)
 8002aa8:	468c      	mov	ip, r1
 8002aaa:	2180      	movs	r1, #128	@ 0x80
 8002aac:	4660      	mov	r0, ip
 8002aae:	4d29      	ldr	r5, [pc, #164]	@ (8002b54 <USB_ActivateEndpoint+0x210>)
 8002ab0:	01c9      	lsls	r1, r1, #7
 8002ab2:	2800      	cmp	r0, #0
 8002ab4:	d11f      	bne.n	8002af6 <USB_ActivateEndpoint+0x1b2>
 8002ab6:	881f      	ldrh	r7, [r3, #0]
 8002ab8:	420f      	tst	r7, r1
 8002aba:	d004      	beq.n	8002ac6 <USB_ActivateEndpoint+0x182>
 8002abc:	8819      	ldrh	r1, [r3, #0]
 8002abe:	4f24      	ldr	r7, [pc, #144]	@ (8002b50 <USB_ActivateEndpoint+0x20c>)
 8002ac0:	4021      	ands	r1, r4
 8002ac2:	4339      	orrs	r1, r7
 8002ac4:	8019      	strh	r1, [r3, #0]
 8002ac6:	8819      	ldrh	r1, [r3, #0]
 8002ac8:	0649      	lsls	r1, r1, #25
 8002aca:	d504      	bpl.n	8002ad6 <USB_ActivateEndpoint+0x192>
 8002acc:	8819      	ldrh	r1, [r3, #0]
 8002ace:	4021      	ands	r1, r4
 8002ad0:	4c1b      	ldr	r4, [pc, #108]	@ (8002b40 <USB_ActivateEndpoint+0x1fc>)
 8002ad2:	4321      	orrs	r1, r4
 8002ad4:	8019      	strh	r1, [r3, #0]
 8002ad6:	21c0      	movs	r1, #192	@ 0xc0
 8002ad8:	881c      	ldrh	r4, [r3, #0]
 8002ada:	0189      	lsls	r1, r1, #6
 8002adc:	402c      	ands	r4, r5
 8002ade:	4061      	eors	r1, r4
 8002ae0:	4311      	orrs	r1, r2
 8002ae2:	b289      	uxth	r1, r1
 8002ae4:	8019      	strh	r1, [r3, #0]
 8002ae6:	8819      	ldrh	r1, [r3, #0]
 8002ae8:	4031      	ands	r1, r6
 8002aea:	e772      	b.n	80029d2 <USB_ActivateEndpoint+0x8e>
 8002aec:	4e1c      	ldr	r6, [pc, #112]	@ (8002b60 <USB_ActivateEndpoint+0x21c>)
 8002aee:	4035      	ands	r5, r6
 8002af0:	4315      	orrs	r5, r2
 8002af2:	b2ad      	uxth	r5, r5
 8002af4:	e7c2      	b.n	8002a7c <USB_ActivateEndpoint+0x138>
 8002af6:	8818      	ldrh	r0, [r3, #0]
 8002af8:	4208      	tst	r0, r1
 8002afa:	d004      	beq.n	8002b06 <USB_ActivateEndpoint+0x1c2>
 8002afc:	8819      	ldrh	r1, [r3, #0]
 8002afe:	4814      	ldr	r0, [pc, #80]	@ (8002b50 <USB_ActivateEndpoint+0x20c>)
 8002b00:	4021      	ands	r1, r4
 8002b02:	4301      	orrs	r1, r0
 8002b04:	8019      	strh	r1, [r3, #0]
 8002b06:	8819      	ldrh	r1, [r3, #0]
 8002b08:	0649      	lsls	r1, r1, #25
 8002b0a:	d504      	bpl.n	8002b16 <USB_ActivateEndpoint+0x1d2>
 8002b0c:	8819      	ldrh	r1, [r3, #0]
 8002b0e:	4021      	ands	r1, r4
 8002b10:	4c0b      	ldr	r4, [pc, #44]	@ (8002b40 <USB_ActivateEndpoint+0x1fc>)
 8002b12:	4321      	orrs	r1, r4
 8002b14:	8019      	strh	r1, [r3, #0]
 8002b16:	2f01      	cmp	r7, #1
 8002b18:	d009      	beq.n	8002b2e <USB_ActivateEndpoint+0x1ea>
 8002b1a:	2120      	movs	r1, #32
 8002b1c:	881c      	ldrh	r4, [r3, #0]
 8002b1e:	4034      	ands	r4, r6
 8002b20:	4061      	eors	r1, r4
 8002b22:	4311      	orrs	r1, r2
 8002b24:	b289      	uxth	r1, r1
 8002b26:	8019      	strh	r1, [r3, #0]
 8002b28:	8819      	ldrh	r1, [r3, #0]
 8002b2a:	4029      	ands	r1, r5
 8002b2c:	e751      	b.n	80029d2 <USB_ActivateEndpoint+0x8e>
 8002b2e:	8819      	ldrh	r1, [r3, #0]
 8002b30:	4031      	ands	r1, r6
 8002b32:	e7f6      	b.n	8002b22 <USB_ActivateEndpoint+0x1de>
 8002b34:	ffff898f 	.word	0xffff898f
 8002b38:	ffff8080 	.word	0xffff8080
 8002b3c:	ffff8f8f 	.word	0xffff8f8f
 8002b40:	000080c0 	.word	0x000080c0
 8002b44:	ffff8fbf 	.word	0xffff8fbf
 8002b48:	00000404 	.word	0x00000404
 8002b4c:	00000406 	.word	0x00000406
 8002b50:	0000c080 	.word	0x0000c080
 8002b54:	ffffbf8f 	.word	0xffffbf8f
 8002b58:	ffff8000 	.word	0xffff8000
 8002b5c:	00008180 	.word	0x00008180
 8002b60:	ffff8e8f 	.word	0xffff8e8f

08002b64 <USB_DeactivateEndpoint>:
 8002b64:	b5f0      	push	{r4, r5, r6, r7, lr}
 8002b66:	780b      	ldrb	r3, [r1, #0]
 8002b68:	784a      	ldrb	r2, [r1, #1]
 8002b6a:	7b09      	ldrb	r1, [r1, #12]
 8002b6c:	009b      	lsls	r3, r3, #2
 8002b6e:	18c0      	adds	r0, r0, r3
 8002b70:	4b31      	ldr	r3, [pc, #196]	@ (8002c38 <USB_DeactivateEndpoint+0xd4>)
 8002b72:	2900      	cmp	r1, #0
 8002b74:	d11a      	bne.n	8002bac <USB_DeactivateEndpoint+0x48>
 8002b76:	2a00      	cmp	r2, #0
 8002b78:	d00c      	beq.n	8002b94 <USB_DeactivateEndpoint+0x30>
 8002b7a:	8802      	ldrh	r2, [r0, #0]
 8002b7c:	0652      	lsls	r2, r2, #25
 8002b7e:	d505      	bpl.n	8002b8c <USB_DeactivateEndpoint+0x28>
 8002b80:	8802      	ldrh	r2, [r0, #0]
 8002b82:	492e      	ldr	r1, [pc, #184]	@ (8002c3c <USB_DeactivateEndpoint+0xd8>)
 8002b84:	400a      	ands	r2, r1
 8002b86:	492e      	ldr	r1, [pc, #184]	@ (8002c40 <USB_DeactivateEndpoint+0xdc>)
 8002b88:	430a      	orrs	r2, r1
 8002b8a:	8002      	strh	r2, [r0, #0]
 8002b8c:	8802      	ldrh	r2, [r0, #0]
 8002b8e:	492d      	ldr	r1, [pc, #180]	@ (8002c44 <USB_DeactivateEndpoint+0xe0>)
 8002b90:	400a      	ands	r2, r1
 8002b92:	e02f      	b.n	8002bf4 <USB_DeactivateEndpoint+0x90>
 8002b94:	8802      	ldrh	r2, [r0, #0]
 8002b96:	0452      	lsls	r2, r2, #17
 8002b98:	d505      	bpl.n	8002ba6 <USB_DeactivateEndpoint+0x42>
 8002b9a:	8802      	ldrh	r2, [r0, #0]
 8002b9c:	4927      	ldr	r1, [pc, #156]	@ (8002c3c <USB_DeactivateEndpoint+0xd8>)
 8002b9e:	400a      	ands	r2, r1
 8002ba0:	4929      	ldr	r1, [pc, #164]	@ (8002c48 <USB_DeactivateEndpoint+0xe4>)
 8002ba2:	430a      	orrs	r2, r1
 8002ba4:	8002      	strh	r2, [r0, #0]
 8002ba6:	8802      	ldrh	r2, [r0, #0]
 8002ba8:	4928      	ldr	r1, [pc, #160]	@ (8002c4c <USB_DeactivateEndpoint+0xe8>)
 8002baa:	e7f1      	b.n	8002b90 <USB_DeactivateEndpoint+0x2c>
 8002bac:	2780      	movs	r7, #128	@ 0x80
 8002bae:	4e23      	ldr	r6, [pc, #140]	@ (8002c3c <USB_DeactivateEndpoint+0xd8>)
 8002bb0:	4d24      	ldr	r5, [pc, #144]	@ (8002c44 <USB_DeactivateEndpoint+0xe0>)
 8002bb2:	4926      	ldr	r1, [pc, #152]	@ (8002c4c <USB_DeactivateEndpoint+0xe8>)
 8002bb4:	01ff      	lsls	r7, r7, #7
 8002bb6:	2a00      	cmp	r2, #0
 8002bb8:	d121      	bne.n	8002bfe <USB_DeactivateEndpoint+0x9a>
 8002bba:	8802      	ldrh	r2, [r0, #0]
 8002bbc:	423a      	tst	r2, r7
 8002bbe:	d004      	beq.n	8002bca <USB_DeactivateEndpoint+0x66>
 8002bc0:	8802      	ldrh	r2, [r0, #0]
 8002bc2:	4c21      	ldr	r4, [pc, #132]	@ (8002c48 <USB_DeactivateEndpoint+0xe4>)
 8002bc4:	4032      	ands	r2, r6
 8002bc6:	4322      	orrs	r2, r4
 8002bc8:	8002      	strh	r2, [r0, #0]
 8002bca:	8802      	ldrh	r2, [r0, #0]
 8002bcc:	4c20      	ldr	r4, [pc, #128]	@ (8002c50 <USB_DeactivateEndpoint+0xec>)
 8002bce:	0652      	lsls	r2, r2, #25
 8002bd0:	d504      	bpl.n	8002bdc <USB_DeactivateEndpoint+0x78>
 8002bd2:	8802      	ldrh	r2, [r0, #0]
 8002bd4:	4032      	ands	r2, r6
 8002bd6:	4322      	orrs	r2, r4
 8002bd8:	b292      	uxth	r2, r2
 8002bda:	8002      	strh	r2, [r0, #0]
 8002bdc:	8802      	ldrh	r2, [r0, #0]
 8002bde:	4032      	ands	r2, r6
 8002be0:	4314      	orrs	r4, r2
 8002be2:	b2a4      	uxth	r4, r4
 8002be4:	8004      	strh	r4, [r0, #0]
 8002be6:	8802      	ldrh	r2, [r0, #0]
 8002be8:	400a      	ands	r2, r1
 8002bea:	431a      	orrs	r2, r3
 8002bec:	b292      	uxth	r2, r2
 8002bee:	8002      	strh	r2, [r0, #0]
 8002bf0:	8802      	ldrh	r2, [r0, #0]
 8002bf2:	402a      	ands	r2, r5
 8002bf4:	4313      	orrs	r3, r2
 8002bf6:	b29b      	uxth	r3, r3
 8002bf8:	8003      	strh	r3, [r0, #0]
 8002bfa:	2000      	movs	r0, #0
 8002bfc:	bdf0      	pop	{r4, r5, r6, r7, pc}
 8002bfe:	8802      	ldrh	r2, [r0, #0]
 8002c00:	4c14      	ldr	r4, [pc, #80]	@ (8002c54 <USB_DeactivateEndpoint+0xf0>)
 8002c02:	423a      	tst	r2, r7
 8002c04:	d004      	beq.n	8002c10 <USB_DeactivateEndpoint+0xac>
 8002c06:	8802      	ldrh	r2, [r0, #0]
 8002c08:	4032      	ands	r2, r6
 8002c0a:	4322      	orrs	r2, r4
 8002c0c:	b292      	uxth	r2, r2
 8002c0e:	8002      	strh	r2, [r0, #0]
 8002c10:	8802      	ldrh	r2, [r0, #0]
 8002c12:	0652      	lsls	r2, r2, #25
 8002c14:	d504      	bpl.n	8002c20 <USB_DeactivateEndpoint+0xbc>
 8002c16:	8802      	ldrh	r2, [r0, #0]
 8002c18:	4f09      	ldr	r7, [pc, #36]	@ (8002c40 <USB_DeactivateEndpoint+0xdc>)
 8002c1a:	4032      	ands	r2, r6
 8002c1c:	433a      	orrs	r2, r7
 8002c1e:	8002      	strh	r2, [r0, #0]
 8002c20:	8802      	ldrh	r2, [r0, #0]
 8002c22:	4032      	ands	r2, r6
 8002c24:	4314      	orrs	r4, r2
 8002c26:	b2a4      	uxth	r4, r4
 8002c28:	8004      	strh	r4, [r0, #0]
 8002c2a:	8802      	ldrh	r2, [r0, #0]
 8002c2c:	402a      	ands	r2, r5
 8002c2e:	431a      	orrs	r2, r3
 8002c30:	b292      	uxth	r2, r2
 8002c32:	8002      	strh	r2, [r0, #0]
 8002c34:	8802      	ldrh	r2, [r0, #0]
 8002c36:	e7ab      	b.n	8002b90 <USB_DeactivateEndpoint+0x2c>
 8002c38:	ffff8080 	.word	0xffff8080
 8002c3c:	ffff8f8f 	.word	0xffff8f8f
 8002c40:	000080c0 	.word	0x000080c0
 8002c44:	ffff8fbf 	.word	0xffff8fbf
 8002c48:	0000c080 	.word	0x0000c080
 8002c4c:	ffffbf8f 	.word	0xffffbf8f
 8002c50:	ffff80c0 	.word	0xffff80c0
 8002c54:	ffffc080 	.word	0xffffc080

08002c58 <USB_EPSetStall>:
 8002c58:	780b      	ldrb	r3, [r1, #0]
 8002c5a:	7849      	ldrb	r1, [r1, #1]
 8002c5c:	009b      	lsls	r3, r3, #2
 8002c5e:	4a0c      	ldr	r2, [pc, #48]	@ (8002c90 <USB_EPSetStall+0x38>)
 8002c60:	18c0      	adds	r0, r0, r3
 8002c62:	2900      	cmp	r1, #0
 8002c64:	d009      	beq.n	8002c7a <USB_EPSetStall+0x22>
 8002c66:	8801      	ldrh	r1, [r0, #0]
 8002c68:	4b0a      	ldr	r3, [pc, #40]	@ (8002c94 <USB_EPSetStall+0x3c>)
 8002c6a:	4019      	ands	r1, r3
 8002c6c:	2310      	movs	r3, #16
 8002c6e:	404b      	eors	r3, r1
 8002c70:	4313      	orrs	r3, r2
 8002c72:	b29b      	uxth	r3, r3
 8002c74:	8003      	strh	r3, [r0, #0]
 8002c76:	2000      	movs	r0, #0
 8002c78:	4770      	bx	lr
 8002c7a:	8801      	ldrh	r1, [r0, #0]
 8002c7c:	4b06      	ldr	r3, [pc, #24]	@ (8002c98 <USB_EPSetStall+0x40>)
 8002c7e:	4019      	ands	r1, r3
 8002c80:	2380      	movs	r3, #128	@ 0x80
 8002c82:	015b      	lsls	r3, r3, #5
 8002c84:	404b      	eors	r3, r1
 8002c86:	431a      	orrs	r2, r3
 8002c88:	b292      	uxth	r2, r2
 8002c8a:	8002      	strh	r2, [r0, #0]
 8002c8c:	e7f3      	b.n	8002c76 <USB_EPSetStall+0x1e>
 8002c8e:	46c0      	nop			@ (mov r8, r8)
 8002c90:	ffff8080 	.word	0xffff8080
 8002c94:	ffff8fbf 	.word	0xffff8fbf
 8002c98:	ffffbf8f 	.word	0xffffbf8f

08002c9c <USB_EPClearStall>:
 8002c9c:	7b0b      	ldrb	r3, [r1, #12]
 8002c9e:	2b00      	cmp	r3, #0
 8002ca0:	d119      	bne.n	8002cd6 <USB_EPClearStall+0x3a>
 8002ca2:	780b      	ldrb	r3, [r1, #0]
 8002ca4:	784a      	ldrb	r2, [r1, #1]
 8002ca6:	009b      	lsls	r3, r3, #2
 8002ca8:	18c0      	adds	r0, r0, r3
 8002caa:	8803      	ldrh	r3, [r0, #0]
 8002cac:	2a00      	cmp	r2, #0
 8002cae:	d014      	beq.n	8002cda <USB_EPClearStall+0x3e>
 8002cb0:	065b      	lsls	r3, r3, #25
 8002cb2:	d505      	bpl.n	8002cc0 <USB_EPClearStall+0x24>
 8002cb4:	8803      	ldrh	r3, [r0, #0]
 8002cb6:	4a10      	ldr	r2, [pc, #64]	@ (8002cf8 <USB_EPClearStall+0x5c>)
 8002cb8:	4013      	ands	r3, r2
 8002cba:	4a10      	ldr	r2, [pc, #64]	@ (8002cfc <USB_EPClearStall+0x60>)
 8002cbc:	4313      	orrs	r3, r2
 8002cbe:	8003      	strh	r3, [r0, #0]
 8002cc0:	78cb      	ldrb	r3, [r1, #3]
 8002cc2:	2b01      	cmp	r3, #1
 8002cc4:	d007      	beq.n	8002cd6 <USB_EPClearStall+0x3a>
 8002cc6:	4b0e      	ldr	r3, [pc, #56]	@ (8002d00 <USB_EPClearStall+0x64>)
 8002cc8:	8802      	ldrh	r2, [r0, #0]
 8002cca:	401a      	ands	r2, r3
 8002ccc:	2320      	movs	r3, #32
 8002cce:	4053      	eors	r3, r2
 8002cd0:	4a0c      	ldr	r2, [pc, #48]	@ (8002d04 <USB_EPClearStall+0x68>)
 8002cd2:	4313      	orrs	r3, r2
 8002cd4:	8003      	strh	r3, [r0, #0]
 8002cd6:	2000      	movs	r0, #0
 8002cd8:	4770      	bx	lr
 8002cda:	045b      	lsls	r3, r3, #17
 8002cdc:	d505      	bpl.n	8002cea <USB_EPClearStall+0x4e>
 8002cde:	8803      	ldrh	r3, [r0, #0]
 8002ce0:	4a05      	ldr	r2, [pc, #20]	@ (8002cf8 <USB_EPClearStall+0x5c>)
 8002ce2:	4013      	ands	r3, r2
 8002ce4:	4a08      	ldr	r2, [pc, #32]	@ (8002d08 <USB_EPClearStall+0x6c>)
 8002ce6:	4313      	orrs	r3, r2
 8002ce8:	8003      	strh	r3, [r0, #0]
 8002cea:	4b08      	ldr	r3, [pc, #32]	@ (8002d0c <USB_EPClearStall+0x70>)
 8002cec:	8802      	ldrh	r2, [r0, #0]
 8002cee:	401a      	ands	r2, r3
 8002cf0:	23c0      	movs	r3, #192	@ 0xc0
 8002cf2:	019b      	lsls	r3, r3, #6
 8002cf4:	e7eb      	b.n	8002cce <USB_EPClearStall+0x32>
 8002cf6:	46c0      	nop			@ (mov r8, r8)
 8002cf8:	ffff8f8f 	.word	0xffff8f8f
 8002cfc:	000080c0 	.word	0x000080c0
 8002d00:	ffff8fbf 	.word	0xffff8fbf
 8002d04:	00008080 	.word	0x00008080
 8002d08:	0000c080 	.word	0x0000c080
 8002d0c:	ffffbf8f 	.word	0xffffbf8f

08002d10 <USB_SetDevAddress>:
 8002d10:	2900      	cmp	r1, #0
 8002d12:	d102      	bne.n	8002d1a <USB_SetDevAddress+0xa>
 8002d14:	2380      	movs	r3, #128	@ 0x80
 8002d16:	304c      	adds	r0, #76	@ 0x4c
 8002d18:	8003      	strh	r3, [r0, #0]
 8002d1a:	2000      	movs	r0, #0
 8002d1c:	4770      	bx	lr

08002d1e <USB_DevConnect>:
 8002d1e:	2280      	movs	r2, #128	@ 0x80
 8002d20:	3058      	adds	r0, #88	@ 0x58
 8002d22:	8803      	ldrh	r3, [r0, #0]
 8002d24:	0212      	lsls	r2, r2, #8
 8002d26:	4313      	orrs	r3, r2
 8002d28:	8003      	strh	r3, [r0, #0]
 8002d2a:	2000      	movs	r0, #0
 8002d2c:	4770      	bx	lr

08002d2e <USB_ReadInterrupts>:
 8002d2e:	3006      	adds	r0, #6
 8002d30:	8fc0      	ldrh	r0, [r0, #62]	@ 0x3e
 8002d32:	b280      	uxth	r0, r0
 8002d34:	4770      	bx	lr

08002d36 <USB_WritePMA>:
 8002d36:	b530      	push	{r4, r5, lr}
 8002d38:	2480      	movs	r4, #128	@ 0x80
 8002d3a:	3301      	adds	r3, #1
 8002d3c:	00e4      	lsls	r4, r4, #3
 8002d3e:	1912      	adds	r2, r2, r4
 8002d40:	085b      	lsrs	r3, r3, #1
 8002d42:	1880      	adds	r0, r0, r2
 8002d44:	005b      	lsls	r3, r3, #1
 8002d46:	18cb      	adds	r3, r1, r3
 8002d48:	1a40      	subs	r0, r0, r1
 8002d4a:	180c      	adds	r4, r1, r0
 8002d4c:	428b      	cmp	r3, r1
 8002d4e:	d100      	bne.n	8002d52 <USB_WritePMA+0x1c>
 8002d50:	bd30      	pop	{r4, r5, pc}
 8002d52:	784a      	ldrb	r2, [r1, #1]
 8002d54:	780d      	ldrb	r5, [r1, #0]
 8002d56:	0212      	lsls	r2, r2, #8
 8002d58:	432a      	orrs	r2, r5
 8002d5a:	8022      	strh	r2, [r4, #0]
 8002d5c:	3102      	adds	r1, #2
 8002d5e:	e7f4      	b.n	8002d4a <USB_WritePMA+0x14>

08002d60 <USB_EPStartXfer>:
 8002d60:	b5f0      	push	{r4, r5, r6, r7, lr}
 8002d62:	000c      	movs	r4, r1
 8002d64:	7849      	ldrb	r1, [r1, #1]
 8002d66:	0005      	movs	r5, r0
 8002d68:	7b22      	ldrb	r2, [r4, #12]
 8002d6a:	b087      	sub	sp, #28
 8002d6c:	2901      	cmp	r1, #1
 8002d6e:	d000      	beq.n	8002d72 <USB_EPStartXfer+0x12>
 8002d70:	e11b      	b.n	8002faa <USB_EPStartXfer+0x24a>
 8002d72:	6923      	ldr	r3, [r4, #16]
 8002d74:	69a7      	ldr	r7, [r4, #24]
 8002d76:	9302      	str	r3, [sp, #8]
 8002d78:	429f      	cmp	r7, r3
 8002d7a:	d900      	bls.n	8002d7e <USB_EPStartXfer+0x1e>
 8002d7c:	001f      	movs	r7, r3
 8002d7e:	002b      	movs	r3, r5
 8002d80:	3350      	adds	r3, #80	@ 0x50
 8002d82:	6961      	ldr	r1, [r4, #20]
 8002d84:	9301      	str	r3, [sp, #4]
 8002d86:	2a00      	cmp	r2, #0
 8002d88:	d11d      	bne.n	8002dc6 <USB_EPStartXfer+0x66>
 8002d8a:	b2bf      	uxth	r7, r7
 8002d8c:	003b      	movs	r3, r7
 8002d8e:	88e2      	ldrh	r2, [r4, #6]
 8002d90:	0028      	movs	r0, r5
 8002d92:	f7ff ffd0 	bl	8002d36 <USB_WritePMA>
 8002d96:	9b01      	ldr	r3, [sp, #4]
 8002d98:	4abe      	ldr	r2, [pc, #760]	@ (8003094 <USB_EPStartXfer+0x334>)
 8002d9a:	8819      	ldrh	r1, [r3, #0]
 8002d9c:	7823      	ldrb	r3, [r4, #0]
 8002d9e:	18aa      	adds	r2, r5, r2
 8002da0:	00db      	lsls	r3, r3, #3
 8002da2:	1852      	adds	r2, r2, r1
 8002da4:	189b      	adds	r3, r3, r2
 8002da6:	801f      	strh	r7, [r3, #0]
 8002da8:	7823      	ldrb	r3, [r4, #0]
 8002daa:	4abb      	ldr	r2, [pc, #748]	@ (8003098 <USB_EPStartXfer+0x338>)
 8002dac:	009b      	lsls	r3, r3, #2
 8002dae:	18eb      	adds	r3, r5, r3
 8002db0:	8819      	ldrh	r1, [r3, #0]
 8002db2:	4011      	ands	r1, r2
 8002db4:	2230      	movs	r2, #48	@ 0x30
 8002db6:	404a      	eors	r2, r1
 8002db8:	49b8      	ldr	r1, [pc, #736]	@ (800309c <USB_EPStartXfer+0x33c>)
 8002dba:	430a      	orrs	r2, r1
 8002dbc:	b292      	uxth	r2, r2
 8002dbe:	801a      	strh	r2, [r3, #0]
 8002dc0:	2000      	movs	r0, #0
 8002dc2:	b007      	add	sp, #28
 8002dc4:	bdf0      	pop	{r4, r5, r6, r7, pc}
 8002dc6:	7822      	ldrb	r2, [r4, #0]
 8002dc8:	6a26      	ldr	r6, [r4, #32]
 8002dca:	0093      	lsls	r3, r2, #2
 8002dcc:	00d2      	lsls	r2, r2, #3
 8002dce:	9203      	str	r2, [sp, #12]
 8002dd0:	78e0      	ldrb	r0, [r4, #3]
 8002dd2:	18eb      	adds	r3, r5, r3
 8002dd4:	2802      	cmp	r0, #2
 8002dd6:	d000      	beq.n	8002dda <USB_EPStartXfer+0x7a>
 8002dd8:	e0d1      	b.n	8002f7e <USB_EPStartXfer+0x21e>
 8002dda:	9a02      	ldr	r2, [sp, #8]
 8002ddc:	42b2      	cmp	r2, r6
 8002dde:	d300      	bcc.n	8002de2 <USB_EPStartXfer+0x82>
 8002de0:	e0bb      	b.n	8002f5a <USB_EPStartXfer+0x1fa>
 8002de2:	881a      	ldrh	r2, [r3, #0]
 8002de4:	48ae      	ldr	r0, [pc, #696]	@ (80030a0 <USB_EPStartXfer+0x340>)
 8002de6:	1bf6      	subs	r6, r6, r7
 8002de8:	4010      	ands	r0, r2
 8002dea:	4aae      	ldr	r2, [pc, #696]	@ (80030a4 <USB_EPStartXfer+0x344>)
 8002dec:	4310      	orrs	r0, r2
 8002dee:	8018      	strh	r0, [r3, #0]
 8002df0:	881b      	ldrh	r3, [r3, #0]
 8002df2:	2040      	movs	r0, #64	@ 0x40
 8002df4:	469c      	mov	ip, r3
 8002df6:	4662      	mov	r2, ip
 8002df8:	4002      	ands	r2, r0
 8002dfa:	9205      	str	r2, [sp, #20]
 8002dfc:	4662      	mov	r2, ip
 8002dfe:	19cb      	adds	r3, r1, r7
 8002e00:	9304      	str	r3, [sp, #16]
 8002e02:	6226      	str	r6, [r4, #32]
 8002e04:	b2bb      	uxth	r3, r7
 8002e06:	4202      	tst	r2, r0
 8002e08:	d055      	beq.n	8002eb6 <USB_EPStartXfer+0x156>
 8002e0a:	9a01      	ldr	r2, [sp, #4]
 8002e0c:	8812      	ldrh	r2, [r2, #0]
 8002e0e:	4694      	mov	ip, r2
 8002e10:	4aa5      	ldr	r2, [pc, #660]	@ (80030a8 <USB_EPStartXfer+0x348>)
 8002e12:	18a8      	adds	r0, r5, r2
 8002e14:	9a03      	ldr	r2, [sp, #12]
 8002e16:	4460      	add	r0, ip
 8002e18:	1882      	adds	r2, r0, r2
 8002e1a:	8013      	strh	r3, [r2, #0]
 8002e1c:	8962      	ldrh	r2, [r4, #10]
 8002e1e:	0028      	movs	r0, r5
 8002e20:	f7ff ff89 	bl	8002d36 <USB_WritePMA>
 8002e24:	9b04      	ldr	r3, [sp, #16]
 8002e26:	9a02      	ldr	r2, [sp, #8]
 8002e28:	6163      	str	r3, [r4, #20]
 8002e2a:	2300      	movs	r3, #0
 8002e2c:	42b2      	cmp	r2, r6
 8002e2e:	d201      	bcs.n	8002e34 <USB_EPStartXfer+0xd4>
 8002e30:	1bf3      	subs	r3, r6, r7
 8002e32:	003e      	movs	r6, r7
 8002e34:	7862      	ldrb	r2, [r4, #1]
 8002e36:	6223      	str	r3, [r4, #32]
 8002e38:	b2b3      	uxth	r3, r6
 8002e3a:	2a00      	cmp	r2, #0
 8002e3c:	d12e      	bne.n	8002e9c <USB_EPStartXfer+0x13c>
 8002e3e:	9a01      	ldr	r2, [sp, #4]
 8002e40:	4994      	ldr	r1, [pc, #592]	@ (8003094 <USB_EPStartXfer+0x334>)
 8002e42:	8810      	ldrh	r0, [r2, #0]
 8002e44:	7822      	ldrb	r2, [r4, #0]
 8002e46:	1869      	adds	r1, r5, r1
 8002e48:	1809      	adds	r1, r1, r0
 8002e4a:	00d2      	lsls	r2, r2, #3
 8002e4c:	1852      	adds	r2, r2, r1
 8002e4e:	8811      	ldrh	r1, [r2, #0]
 8002e50:	0589      	lsls	r1, r1, #22
 8002e52:	0d89      	lsrs	r1, r1, #22
 8002e54:	8011      	strh	r1, [r2, #0]
 8002e56:	2e00      	cmp	r6, #0
 8002e58:	d10a      	bne.n	8002e70 <USB_EPStartXfer+0x110>
 8002e5a:	2080      	movs	r0, #128	@ 0x80
 8002e5c:	8811      	ldrh	r1, [r2, #0]
 8002e5e:	0200      	lsls	r0, r0, #8
 8002e60:	4301      	orrs	r1, r0
 8002e62:	8011      	strh	r1, [r2, #0]
 8002e64:	8922      	ldrh	r2, [r4, #8]
 8002e66:	9904      	ldr	r1, [sp, #16]
 8002e68:	0028      	movs	r0, r5
 8002e6a:	f7ff ff64 	bl	8002d36 <USB_WritePMA>
 8002e6e:	e79b      	b.n	8002da8 <USB_EPStartXfer+0x48>
 8002e70:	2e3e      	cmp	r6, #62	@ 0x3e
 8002e72:	d808      	bhi.n	8002e86 <USB_EPStartXfer+0x126>
 8002e74:	2101      	movs	r1, #1
 8002e76:	0870      	lsrs	r0, r6, #1
 8002e78:	4031      	ands	r1, r6
 8002e7a:	1840      	adds	r0, r0, r1
 8002e7c:	8811      	ldrh	r1, [r2, #0]
 8002e7e:	0280      	lsls	r0, r0, #10
 8002e80:	4301      	orrs	r1, r0
 8002e82:	b289      	uxth	r1, r1
 8002e84:	e7ed      	b.n	8002e62 <USB_EPStartXfer+0x102>
 8002e86:	201f      	movs	r0, #31
 8002e88:	4030      	ands	r0, r6
 8002e8a:	0971      	lsrs	r1, r6, #5
 8002e8c:	4246      	negs	r6, r0
 8002e8e:	4170      	adcs	r0, r6
 8002e90:	1a09      	subs	r1, r1, r0
 8002e92:	8810      	ldrh	r0, [r2, #0]
 8002e94:	0289      	lsls	r1, r1, #10
 8002e96:	4308      	orrs	r0, r1
 8002e98:	4984      	ldr	r1, [pc, #528]	@ (80030ac <USB_EPStartXfer+0x34c>)
 8002e9a:	e7f1      	b.n	8002e80 <USB_EPStartXfer+0x120>
 8002e9c:	2a01      	cmp	r2, #1
 8002e9e:	d1e1      	bne.n	8002e64 <USB_EPStartXfer+0x104>
 8002ea0:	002a      	movs	r2, r5
 8002ea2:	497c      	ldr	r1, [pc, #496]	@ (8003094 <USB_EPStartXfer+0x334>)
 8002ea4:	3250      	adds	r2, #80	@ 0x50
 8002ea6:	8810      	ldrh	r0, [r2, #0]
 8002ea8:	7822      	ldrb	r2, [r4, #0]
 8002eaa:	1869      	adds	r1, r5, r1
 8002eac:	00d2      	lsls	r2, r2, #3
 8002eae:	1809      	adds	r1, r1, r0
 8002eb0:	1852      	adds	r2, r2, r1
 8002eb2:	8013      	strh	r3, [r2, #0]
 8002eb4:	e7d6      	b.n	8002e64 <USB_EPStartXfer+0x104>
 8002eb6:	9a01      	ldr	r2, [sp, #4]
 8002eb8:	8812      	ldrh	r2, [r2, #0]
 8002eba:	4694      	mov	ip, r2
 8002ebc:	4a75      	ldr	r2, [pc, #468]	@ (8003094 <USB_EPStartXfer+0x334>)
 8002ebe:	18a8      	adds	r0, r5, r2
 8002ec0:	9a03      	ldr	r2, [sp, #12]
 8002ec2:	4460      	add	r0, ip
 8002ec4:	1882      	adds	r2, r0, r2
 8002ec6:	8013      	strh	r3, [r2, #0]
 8002ec8:	8922      	ldrh	r2, [r4, #8]
 8002eca:	0028      	movs	r0, r5
 8002ecc:	f7ff ff33 	bl	8002d36 <USB_WritePMA>
 8002ed0:	9b04      	ldr	r3, [sp, #16]
 8002ed2:	9a02      	ldr	r2, [sp, #8]
 8002ed4:	6163      	str	r3, [r4, #20]
 8002ed6:	9b05      	ldr	r3, [sp, #20]
 8002ed8:	42b2      	cmp	r2, r6
 8002eda:	d201      	bcs.n	8002ee0 <USB_EPStartXfer+0x180>
 8002edc:	1bf3      	subs	r3, r6, r7
 8002ede:	003e      	movs	r6, r7
 8002ee0:	7862      	ldrb	r2, [r4, #1]
 8002ee2:	6223      	str	r3, [r4, #32]
 8002ee4:	b2b3      	uxth	r3, r6
 8002ee6:	2a00      	cmp	r2, #0
 8002ee8:	d12a      	bne.n	8002f40 <USB_EPStartXfer+0x1e0>
 8002eea:	9a01      	ldr	r2, [sp, #4]
 8002eec:	496e      	ldr	r1, [pc, #440]	@ (80030a8 <USB_EPStartXfer+0x348>)
 8002eee:	8810      	ldrh	r0, [r2, #0]
 8002ef0:	7822      	ldrb	r2, [r4, #0]
 8002ef2:	1869      	adds	r1, r5, r1
 8002ef4:	1809      	adds	r1, r1, r0
 8002ef6:	00d2      	lsls	r2, r2, #3
 8002ef8:	1852      	adds	r2, r2, r1
 8002efa:	8811      	ldrh	r1, [r2, #0]
 8002efc:	0589      	lsls	r1, r1, #22
 8002efe:	0d89      	lsrs	r1, r1, #22
 8002f00:	8011      	strh	r1, [r2, #0]
 8002f02:	2e00      	cmp	r6, #0
 8002f04:	d106      	bne.n	8002f14 <USB_EPStartXfer+0x1b4>
 8002f06:	2080      	movs	r0, #128	@ 0x80
 8002f08:	8811      	ldrh	r1, [r2, #0]
 8002f0a:	0200      	lsls	r0, r0, #8
 8002f0c:	4301      	orrs	r1, r0
 8002f0e:	8011      	strh	r1, [r2, #0]
 8002f10:	8962      	ldrh	r2, [r4, #10]
 8002f12:	e7a8      	b.n	8002e66 <USB_EPStartXfer+0x106>
 8002f14:	2e3e      	cmp	r6, #62	@ 0x3e
 8002f16:	d808      	bhi.n	8002f2a <USB_EPStartXfer+0x1ca>
 8002f18:	2101      	movs	r1, #1
 8002f1a:	0870      	lsrs	r0, r6, #1
 8002f1c:	4031      	ands	r1, r6
 8002f1e:	1840      	adds	r0, r0, r1
 8002f20:	8811      	ldrh	r1, [r2, #0]
 8002f22:	0280      	lsls	r0, r0, #10
 8002f24:	4301      	orrs	r1, r0
 8002f26:	b289      	uxth	r1, r1
 8002f28:	e7f1      	b.n	8002f0e <USB_EPStartXfer+0x1ae>
 8002f2a:	201f      	movs	r0, #31
 8002f2c:	0971      	lsrs	r1, r6, #5
 8002f2e:	4006      	ands	r6, r0
 8002f30:	4270      	negs	r0, r6
 8002f32:	4146      	adcs	r6, r0
 8002f34:	8810      	ldrh	r0, [r2, #0]
 8002f36:	1b89      	subs	r1, r1, r6
 8002f38:	0289      	lsls	r1, r1, #10
 8002f3a:	4308      	orrs	r0, r1
 8002f3c:	495b      	ldr	r1, [pc, #364]	@ (80030ac <USB_EPStartXfer+0x34c>)
 8002f3e:	e7f1      	b.n	8002f24 <USB_EPStartXfer+0x1c4>
 8002f40:	2a01      	cmp	r2, #1
 8002f42:	d1e5      	bne.n	8002f10 <USB_EPStartXfer+0x1b0>
 8002f44:	002a      	movs	r2, r5
 8002f46:	4958      	ldr	r1, [pc, #352]	@ (80030a8 <USB_EPStartXfer+0x348>)
 8002f48:	3250      	adds	r2, #80	@ 0x50
 8002f4a:	8810      	ldrh	r0, [r2, #0]
 8002f4c:	7822      	ldrb	r2, [r4, #0]
 8002f4e:	1869      	adds	r1, r5, r1
 8002f50:	00d2      	lsls	r2, r2, #3
 8002f52:	1809      	adds	r1, r1, r0
 8002f54:	1852      	adds	r2, r2, r1
 8002f56:	8013      	strh	r3, [r2, #0]
 8002f58:	e7da      	b.n	8002f10 <USB_EPStartXfer+0x1b0>
 8002f5a:	8818      	ldrh	r0, [r3, #0]
 8002f5c:	4f54      	ldr	r7, [pc, #336]	@ (80030b0 <USB_EPStartXfer+0x350>)
 8002f5e:	4a4f      	ldr	r2, [pc, #316]	@ (800309c <USB_EPStartXfer+0x33c>)
 8002f60:	4038      	ands	r0, r7
 8002f62:	4310      	orrs	r0, r2
 8002f64:	b280      	uxth	r0, r0
 8002f66:	8018      	strh	r0, [r3, #0]
 8002f68:	9b01      	ldr	r3, [sp, #4]
 8002f6a:	9a03      	ldr	r2, [sp, #12]
 8002f6c:	8818      	ldrh	r0, [r3, #0]
 8002f6e:	4b49      	ldr	r3, [pc, #292]	@ (8003094 <USB_EPStartXfer+0x334>)
 8002f70:	18eb      	adds	r3, r5, r3
 8002f72:	181b      	adds	r3, r3, r0
 8002f74:	189a      	adds	r2, r3, r2
 8002f76:	b2b3      	uxth	r3, r6
 8002f78:	8013      	strh	r3, [r2, #0]
 8002f7a:	8922      	ldrh	r2, [r4, #8]
 8002f7c:	e774      	b.n	8002e68 <USB_EPStartXfer+0x108>
 8002f7e:	8818      	ldrh	r0, [r3, #0]
 8002f80:	1bf6      	subs	r6, r6, r7
 8002f82:	9a01      	ldr	r2, [sp, #4]
 8002f84:	6226      	str	r6, [r4, #32]
 8002f86:	8816      	ldrh	r6, [r2, #0]
 8002f88:	b2bb      	uxth	r3, r7
 8002f8a:	0640      	lsls	r0, r0, #25
 8002f8c:	d507      	bpl.n	8002f9e <USB_EPStartXfer+0x23e>
 8002f8e:	4a46      	ldr	r2, [pc, #280]	@ (80030a8 <USB_EPStartXfer+0x348>)
 8002f90:	18a8      	adds	r0, r5, r2
 8002f92:	9a03      	ldr	r2, [sp, #12]
 8002f94:	1980      	adds	r0, r0, r6
 8002f96:	1882      	adds	r2, r0, r2
 8002f98:	8013      	strh	r3, [r2, #0]
 8002f9a:	8962      	ldrh	r2, [r4, #10]
 8002f9c:	e764      	b.n	8002e68 <USB_EPStartXfer+0x108>
 8002f9e:	4a3d      	ldr	r2, [pc, #244]	@ (8003094 <USB_EPStartXfer+0x334>)
 8002fa0:	18a8      	adds	r0, r5, r2
 8002fa2:	9a03      	ldr	r2, [sp, #12]
 8002fa4:	1980      	adds	r0, r0, r6
 8002fa6:	1882      	adds	r2, r0, r2
 8002fa8:	e7e6      	b.n	8002f78 <USB_EPStartXfer+0x218>
 8002faa:	2a00      	cmp	r2, #0
 8002fac:	d11c      	bne.n	8002fe8 <USB_EPStartXfer+0x288>
 8002fae:	69a3      	ldr	r3, [r4, #24]
 8002fb0:	6921      	ldr	r1, [r4, #16]
 8002fb2:	428b      	cmp	r3, r1
 8002fb4:	d901      	bls.n	8002fba <USB_EPStartXfer+0x25a>
 8002fb6:	1a5a      	subs	r2, r3, r1
 8002fb8:	000b      	movs	r3, r1
 8002fba:	61a2      	str	r2, [r4, #24]
 8002fbc:	002a      	movs	r2, r5
 8002fbe:	493a      	ldr	r1, [pc, #232]	@ (80030a8 <USB_EPStartXfer+0x348>)
 8002fc0:	3250      	adds	r2, #80	@ 0x50
 8002fc2:	8810      	ldrh	r0, [r2, #0]
 8002fc4:	7822      	ldrb	r2, [r4, #0]
 8002fc6:	1869      	adds	r1, r5, r1
 8002fc8:	00d2      	lsls	r2, r2, #3
 8002fca:	1809      	adds	r1, r1, r0
 8002fcc:	1852      	adds	r2, r2, r1
 8002fce:	8811      	ldrh	r1, [r2, #0]
 8002fd0:	0589      	lsls	r1, r1, #22
 8002fd2:	0d89      	lsrs	r1, r1, #22
 8002fd4:	8011      	strh	r1, [r2, #0]
 8002fd6:	2b00      	cmp	r3, #0
 8002fd8:	d000      	beq.n	8002fdc <USB_EPStartXfer+0x27c>
 8002fda:	e0d6      	b.n	800318a <USB_EPStartXfer+0x42a>
 8002fdc:	2180      	movs	r1, #128	@ 0x80
 8002fde:	8813      	ldrh	r3, [r2, #0]
 8002fe0:	0209      	lsls	r1, r1, #8
 8002fe2:	430b      	orrs	r3, r1
 8002fe4:	8013      	strh	r3, [r2, #0]
 8002fe6:	e03d      	b.n	8003064 <USB_EPStartXfer+0x304>
 8002fe8:	78e3      	ldrb	r3, [r4, #3]
 8002fea:	2b02      	cmp	r3, #2
 8002fec:	d000      	beq.n	8002ff0 <USB_EPStartXfer+0x290>
 8002fee:	e08c      	b.n	800310a <USB_EPStartXfer+0x3aa>
 8002ff0:	2900      	cmp	r1, #0
 8002ff2:	d124      	bne.n	800303e <USB_EPStartXfer+0x2de>
 8002ff4:	0006      	movs	r6, r0
 8002ff6:	4a27      	ldr	r2, [pc, #156]	@ (8003094 <USB_EPStartXfer+0x334>)
 8002ff8:	3650      	adds	r6, #80	@ 0x50
 8002ffa:	8833      	ldrh	r3, [r6, #0]
 8002ffc:	7820      	ldrb	r0, [r4, #0]
 8002ffe:	18aa      	adds	r2, r5, r2
 8003000:	18d2      	adds	r2, r2, r3
 8003002:	00c0      	lsls	r0, r0, #3
 8003004:	1812      	adds	r2, r2, r0
 8003006:	8813      	ldrh	r3, [r2, #0]
 8003008:	059b      	lsls	r3, r3, #22
 800300a:	0d9b      	lsrs	r3, r3, #22
 800300c:	8013      	strh	r3, [r2, #0]
 800300e:	6923      	ldr	r3, [r4, #16]
 8003010:	2b00      	cmp	r3, #0
 8003012:	d134      	bne.n	800307e <USB_EPStartXfer+0x31e>
 8003014:	2780      	movs	r7, #128	@ 0x80
 8003016:	8811      	ldrh	r1, [r2, #0]
 8003018:	023f      	lsls	r7, r7, #8
 800301a:	4339      	orrs	r1, r7
 800301c:	8011      	strh	r1, [r2, #0]
 800301e:	4a22      	ldr	r2, [pc, #136]	@ (80030a8 <USB_EPStartXfer+0x348>)
 8003020:	8831      	ldrh	r1, [r6, #0]
 8003022:	18aa      	adds	r2, r5, r2
 8003024:	1852      	adds	r2, r2, r1
 8003026:	1812      	adds	r2, r2, r0
 8003028:	8811      	ldrh	r1, [r2, #0]
 800302a:	0589      	lsls	r1, r1, #22
 800302c:	0d89      	lsrs	r1, r1, #22
 800302e:	8011      	strh	r1, [r2, #0]
 8003030:	2b00      	cmp	r3, #0
 8003032:	d154      	bne.n	80030de <USB_EPStartXfer+0x37e>
 8003034:	2180      	movs	r1, #128	@ 0x80
 8003036:	8813      	ldrh	r3, [r2, #0]
 8003038:	0209      	lsls	r1, r1, #8
 800303a:	430b      	orrs	r3, r1
 800303c:	8013      	strh	r3, [r2, #0]
 800303e:	69e3      	ldr	r3, [r4, #28]
 8003040:	2b00      	cmp	r3, #0
 8003042:	d00f      	beq.n	8003064 <USB_EPStartXfer+0x304>
 8003044:	7823      	ldrb	r3, [r4, #0]
 8003046:	491b      	ldr	r1, [pc, #108]	@ (80030b4 <USB_EPStartXfer+0x354>)
 8003048:	009b      	lsls	r3, r3, #2
 800304a:	18eb      	adds	r3, r5, r3
 800304c:	881a      	ldrh	r2, [r3, #0]
 800304e:	400a      	ands	r2, r1
 8003050:	428a      	cmp	r2, r1
 8003052:	d001      	beq.n	8003058 <USB_EPStartXfer+0x2f8>
 8003054:	2a00      	cmp	r2, #0
 8003056:	d105      	bne.n	8003064 <USB_EPStartXfer+0x304>
 8003058:	881a      	ldrh	r2, [r3, #0]
 800305a:	4911      	ldr	r1, [pc, #68]	@ (80030a0 <USB_EPStartXfer+0x340>)
 800305c:	400a      	ands	r2, r1
 800305e:	4916      	ldr	r1, [pc, #88]	@ (80030b8 <USB_EPStartXfer+0x358>)
 8003060:	430a      	orrs	r2, r1
 8003062:	801a      	strh	r2, [r3, #0]
 8003064:	7823      	ldrb	r3, [r4, #0]
 8003066:	009b      	lsls	r3, r3, #2
 8003068:	18ed      	adds	r5, r5, r3
 800306a:	882a      	ldrh	r2, [r5, #0]
 800306c:	4b13      	ldr	r3, [pc, #76]	@ (80030bc <USB_EPStartXfer+0x35c>)
 800306e:	401a      	ands	r2, r3
 8003070:	23c0      	movs	r3, #192	@ 0xc0
 8003072:	019b      	lsls	r3, r3, #6
 8003074:	4053      	eors	r3, r2
 8003076:	4a12      	ldr	r2, [pc, #72]	@ (80030c0 <USB_EPStartXfer+0x360>)
 8003078:	4313      	orrs	r3, r2
 800307a:	802b      	strh	r3, [r5, #0]
 800307c:	e6a0      	b.n	8002dc0 <USB_EPStartXfer+0x60>
 800307e:	2b3e      	cmp	r3, #62	@ 0x3e
 8003080:	d820      	bhi.n	80030c4 <USB_EPStartXfer+0x364>
 8003082:	2101      	movs	r1, #1
 8003084:	085f      	lsrs	r7, r3, #1
 8003086:	4019      	ands	r1, r3
 8003088:	187f      	adds	r7, r7, r1
 800308a:	8811      	ldrh	r1, [r2, #0]
 800308c:	02bf      	lsls	r7, r7, #10
 800308e:	4339      	orrs	r1, r7
 8003090:	b289      	uxth	r1, r1
 8003092:	e7c3      	b.n	800301c <USB_EPStartXfer+0x2bc>
 8003094:	00000402 	.word	0x00000402
 8003098:	ffff8fbf 	.word	0xffff8fbf
 800309c:	ffff8080 	.word	0xffff8080
 80030a0:	ffff8f8f 	.word	0xffff8f8f
 80030a4:	00008180 	.word	0x00008180
 80030a8:	00000406 	.word	0x00000406
 80030ac:	ffff8000 	.word	0xffff8000
 80030b0:	ffff8e8f 	.word	0xffff8e8f
 80030b4:	00004040 	.word	0x00004040
 80030b8:	000080c0 	.word	0x000080c0
 80030bc:	ffffbf8f 	.word	0xffffbf8f
 80030c0:	00008080 	.word	0x00008080
 80030c4:	271f      	movs	r7, #31
 80030c6:	401f      	ands	r7, r3
 80030c8:	0039      	movs	r1, r7
 80030ca:	424f      	negs	r7, r1
 80030cc:	414f      	adcs	r7, r1
 80030ce:	0959      	lsrs	r1, r3, #5
 80030d0:	1bc9      	subs	r1, r1, r7
 80030d2:	8817      	ldrh	r7, [r2, #0]
 80030d4:	9101      	str	r1, [sp, #4]
 80030d6:	0289      	lsls	r1, r1, #10
 80030d8:	430f      	orrs	r7, r1
 80030da:	4937      	ldr	r1, [pc, #220]	@ (80031b8 <USB_EPStartXfer+0x458>)
 80030dc:	e7d7      	b.n	800308e <USB_EPStartXfer+0x32e>
 80030de:	2b3e      	cmp	r3, #62	@ 0x3e
 80030e0:	d808      	bhi.n	80030f4 <USB_EPStartXfer+0x394>
 80030e2:	2001      	movs	r0, #1
 80030e4:	0859      	lsrs	r1, r3, #1
 80030e6:	4003      	ands	r3, r0
 80030e8:	18c9      	adds	r1, r1, r3
 80030ea:	8813      	ldrh	r3, [r2, #0]
 80030ec:	0289      	lsls	r1, r1, #10
 80030ee:	430b      	orrs	r3, r1
 80030f0:	b29b      	uxth	r3, r3
 80030f2:	e7a3      	b.n	800303c <USB_EPStartXfer+0x2dc>
 80030f4:	201f      	movs	r0, #31
 80030f6:	0959      	lsrs	r1, r3, #5
 80030f8:	4003      	ands	r3, r0
 80030fa:	4258      	negs	r0, r3
 80030fc:	4143      	adcs	r3, r0
 80030fe:	1ac9      	subs	r1, r1, r3
 8003100:	8813      	ldrh	r3, [r2, #0]
 8003102:	0289      	lsls	r1, r1, #10
 8003104:	4319      	orrs	r1, r3
 8003106:	4b2c      	ldr	r3, [pc, #176]	@ (80031b8 <USB_EPStartXfer+0x458>)
 8003108:	e7f1      	b.n	80030ee <USB_EPStartXfer+0x38e>
 800310a:	2001      	movs	r0, #1
 800310c:	4283      	cmp	r3, r0
 800310e:	d000      	beq.n	8003112 <USB_EPStartXfer+0x3b2>
 8003110:	e657      	b.n	8002dc2 <USB_EPStartXfer+0x62>
 8003112:	69a3      	ldr	r3, [r4, #24]
 8003114:	6922      	ldr	r2, [r4, #16]
 8003116:	2000      	movs	r0, #0
 8003118:	4293      	cmp	r3, r2
 800311a:	d901      	bls.n	8003120 <USB_EPStartXfer+0x3c0>
 800311c:	1a98      	subs	r0, r3, r2
 800311e:	0013      	movs	r3, r2
 8003120:	61a0      	str	r0, [r4, #24]
 8003122:	2900      	cmp	r1, #0
 8003124:	d19e      	bne.n	8003064 <USB_EPStartXfer+0x304>
 8003126:	002e      	movs	r6, r5
 8003128:	4a24      	ldr	r2, [pc, #144]	@ (80031bc <USB_EPStartXfer+0x45c>)
 800312a:	3650      	adds	r6, #80	@ 0x50
 800312c:	8831      	ldrh	r1, [r6, #0]
 800312e:	7820      	ldrb	r0, [r4, #0]
 8003130:	18aa      	adds	r2, r5, r2
 8003132:	1852      	adds	r2, r2, r1
 8003134:	00c0      	lsls	r0, r0, #3
 8003136:	1812      	adds	r2, r2, r0
 8003138:	8811      	ldrh	r1, [r2, #0]
 800313a:	0589      	lsls	r1, r1, #22
 800313c:	0d89      	lsrs	r1, r1, #22
 800313e:	8011      	strh	r1, [r2, #0]
 8003140:	2b00      	cmp	r3, #0
 8003142:	d10a      	bne.n	800315a <USB_EPStartXfer+0x3fa>
 8003144:	2780      	movs	r7, #128	@ 0x80
 8003146:	8811      	ldrh	r1, [r2, #0]
 8003148:	023f      	lsls	r7, r7, #8
 800314a:	4339      	orrs	r1, r7
 800314c:	8011      	strh	r1, [r2, #0]
 800314e:	4a1c      	ldr	r2, [pc, #112]	@ (80031c0 <USB_EPStartXfer+0x460>)
 8003150:	8831      	ldrh	r1, [r6, #0]
 8003152:	18aa      	adds	r2, r5, r2
 8003154:	1852      	adds	r2, r2, r1
 8003156:	1812      	adds	r2, r2, r0
 8003158:	e739      	b.n	8002fce <USB_EPStartXfer+0x26e>
 800315a:	2b3e      	cmp	r3, #62	@ 0x3e
 800315c:	d808      	bhi.n	8003170 <USB_EPStartXfer+0x410>
 800315e:	2101      	movs	r1, #1
 8003160:	085f      	lsrs	r7, r3, #1
 8003162:	4019      	ands	r1, r3
 8003164:	187f      	adds	r7, r7, r1
 8003166:	8811      	ldrh	r1, [r2, #0]
 8003168:	02bf      	lsls	r7, r7, #10
 800316a:	4339      	orrs	r1, r7
 800316c:	b289      	uxth	r1, r1
 800316e:	e7ed      	b.n	800314c <USB_EPStartXfer+0x3ec>
 8003170:	271f      	movs	r7, #31
 8003172:	401f      	ands	r7, r3
 8003174:	0039      	movs	r1, r7
 8003176:	424f      	negs	r7, r1
 8003178:	414f      	adcs	r7, r1
 800317a:	0959      	lsrs	r1, r3, #5
 800317c:	1bc9      	subs	r1, r1, r7
 800317e:	8817      	ldrh	r7, [r2, #0]
 8003180:	9101      	str	r1, [sp, #4]
 8003182:	0289      	lsls	r1, r1, #10
 8003184:	430f      	orrs	r7, r1
 8003186:	490c      	ldr	r1, [pc, #48]	@ (80031b8 <USB_EPStartXfer+0x458>)
 8003188:	e7ef      	b.n	800316a <USB_EPStartXfer+0x40a>
 800318a:	2b3e      	cmp	r3, #62	@ 0x3e
 800318c:	d808      	bhi.n	80031a0 <USB_EPStartXfer+0x440>
 800318e:	2001      	movs	r0, #1
 8003190:	0859      	lsrs	r1, r3, #1
 8003192:	4003      	ands	r3, r0
 8003194:	18c9      	adds	r1, r1, r3
 8003196:	8813      	ldrh	r3, [r2, #0]
 8003198:	0289      	lsls	r1, r1, #10
 800319a:	430b      	orrs	r3, r1
 800319c:	b29b      	uxth	r3, r3
 800319e:	e721      	b.n	8002fe4 <USB_EPStartXfer+0x284>
 80031a0:	201f      	movs	r0, #31
 80031a2:	0959      	lsrs	r1, r3, #5
 80031a4:	4003      	ands	r3, r0
 80031a6:	4258      	negs	r0, r3
 80031a8:	4143      	adcs	r3, r0
 80031aa:	1ac9      	subs	r1, r1, r3
 80031ac:	8813      	ldrh	r3, [r2, #0]
 80031ae:	0289      	lsls	r1, r1, #10
 80031b0:	4319      	orrs	r1, r3
 80031b2:	4b01      	ldr	r3, [pc, #4]	@ (80031b8 <USB_EPStartXfer+0x458>)
 80031b4:	e7f1      	b.n	800319a <USB_EPStartXfer+0x43a>
 80031b6:	46c0      	nop			@ (mov r8, r8)
 80031b8:	ffff8000 	.word	0xffff8000
 80031bc:	00000402 	.word	0x00000402
 80031c0:	00000406 	.word	0x00000406

080031c4 <USB_ReadPMA>:
 80031c4:	b5f0      	push	{r4, r5, r6, r7, lr}
 80031c6:	2580      	movs	r5, #128	@ 0x80
 80031c8:	085c      	lsrs	r4, r3, #1
 80031ca:	00ed      	lsls	r5, r5, #3
 80031cc:	1952      	adds	r2, r2, r5
 80031ce:	0026      	movs	r6, r4
 80031d0:	000d      	movs	r5, r1
 80031d2:	1880      	adds	r0, r0, r2
 80031d4:	1a47      	subs	r7, r0, r1
 80031d6:	19ea      	adds	r2, r5, r7
 80031d8:	2e00      	cmp	r6, #0
 80031da:	d106      	bne.n	80031ea <USB_ReadPMA+0x26>
 80031dc:	07db      	lsls	r3, r3, #31
 80031de:	d503      	bpl.n	80031e8 <USB_ReadPMA+0x24>
 80031e0:	0064      	lsls	r4, r4, #1
 80031e2:	1900      	adds	r0, r0, r4
 80031e4:	8803      	ldrh	r3, [r0, #0]
 80031e6:	550b      	strb	r3, [r1, r4]
 80031e8:	bdf0      	pop	{r4, r5, r6, r7, pc}
 80031ea:	8812      	ldrh	r2, [r2, #0]
 80031ec:	3e01      	subs	r6, #1
 80031ee:	b292      	uxth	r2, r2
 80031f0:	702a      	strb	r2, [r5, #0]
 80031f2:	0a12      	lsrs	r2, r2, #8
 80031f4:	706a      	strb	r2, [r5, #1]
 80031f6:	3502      	adds	r5, #2
 80031f8:	e7ed      	b.n	80031d6 <USB_ReadPMA+0x12>
	...

080031fc <USBD_CUSTOM_HID_GetFSCfgDesc>:
 80031fc:	2329      	movs	r3, #41	@ 0x29
 80031fe:	8003      	strh	r3, [r0, #0]
 8003200:	4800      	ldr	r0, [pc, #0]	@ (8003204 <USBD_CUSTOM_HID_GetFSCfgDesc+0x8>)
 8003202:	4770      	bx	lr
 8003204:	200000fc 	.word	0x200000fc

08003208 <USBD_CUSTOM_HID_GetHSCfgDesc>:
 8003208:	2329      	movs	r3, #41	@ 0x29
 800320a:	8003      	strh	r3, [r0, #0]
 800320c:	4800      	ldr	r0, [pc, #0]	@ (8003210 <USBD_CUSTOM_HID_GetHSCfgDesc+0x8>)
 800320e:	4770      	bx	lr
 8003210:	200000d0 	.word	0x200000d0

08003214 <USBD_CUSTOM_HID_GetOtherSpeedCfgDesc>:
 8003214:	2329      	movs	r3, #41	@ 0x29
 8003216:	8003      	strh	r3, [r0, #0]
 8003218:	4800      	ldr	r0, [pc, #0]	@ (800321c <USBD_CUSTOM_HID_GetOtherSpeedCfgDesc+0x8>)
 800321a:	4770      	bx	lr
 800321c:	200000a4 	.word	0x200000a4

08003220 <USBD_CUSTOM_HID_DataIn>:
 8003220:	23ae      	movs	r3, #174	@ 0xae
 8003222:	009b      	lsls	r3, r3, #2
 8003224:	58c3      	ldr	r3, [r0, r3]
 8003226:	2000      	movs	r0, #0
 8003228:	3350      	adds	r3, #80	@ 0x50
 800322a:	7018      	strb	r0, [r3, #0]
 800322c:	4770      	bx	lr

0800322e <USBD_CUSTOM_HID_EP0_RxReady>:
 800322e:	22ae      	movs	r2, #174	@ 0xae
 8003230:	0092      	lsls	r2, r2, #2
 8003232:	b510      	push	{r4, lr}
 8003234:	5884      	ldr	r4, [r0, r2]
 8003236:	0003      	movs	r3, r0
 8003238:	6ce2      	ldr	r2, [r4, #76]	@ 0x4c
 800323a:	2a01      	cmp	r2, #1
 800323c:	d108      	bne.n	8003250 <USBD_CUSTOM_HID_EP0_RxReady+0x22>
 800323e:	22af      	movs	r2, #175	@ 0xaf
 8003240:	0092      	lsls	r2, r2, #2
 8003242:	589b      	ldr	r3, [r3, r2]
 8003244:	7861      	ldrb	r1, [r4, #1]
 8003246:	68db      	ldr	r3, [r3, #12]
 8003248:	7820      	ldrb	r0, [r4, #0]
 800324a:	4798      	blx	r3
 800324c:	2300      	movs	r3, #0
 800324e:	64e3      	str	r3, [r4, #76]	@ 0x4c
 8003250:	2000      	movs	r0, #0
 8003252:	bd10      	pop	{r4, pc}

08003254 <USBD_CUSTOM_HID_GetDeviceQualifierDesc>:
 8003254:	230a      	movs	r3, #10
 8003256:	8003      	strh	r3, [r0, #0]
 8003258:	4800      	ldr	r0, [pc, #0]	@ (800325c <USBD_CUSTOM_HID_GetDeviceQualifierDesc+0x8>)
 800325a:	4770      	bx	lr
 800325c:	2000008c 	.word	0x2000008c

08003260 <USBD_CUSTOM_HID_DataOut>:
 8003260:	23ae      	movs	r3, #174	@ 0xae
 8003262:	b570      	push	{r4, r5, r6, lr}
 8003264:	0004      	movs	r4, r0
 8003266:	009b      	lsls	r3, r3, #2
 8003268:	58c5      	ldr	r5, [r0, r3]
 800326a:	3304      	adds	r3, #4
 800326c:	58e3      	ldr	r3, [r4, r3]
 800326e:	7869      	ldrb	r1, [r5, #1]
 8003270:	7828      	ldrb	r0, [r5, #0]
 8003272:	68db      	ldr	r3, [r3, #12]
 8003274:	4798      	blx	r3
 8003276:	002a      	movs	r2, r5
 8003278:	2340      	movs	r3, #64	@ 0x40
 800327a:	2101      	movs	r1, #1
 800327c:	0020      	movs	r0, r4
 800327e:	f000 feec 	bl	800405a <USBD_LL_PrepareReceive>
 8003282:	2000      	movs	r0, #0
 8003284:	bd70      	pop	{r4, r5, r6, pc}
	...

08003288 <USBD_CUSTOM_HID_Setup>:
 8003288:	22ae      	movs	r2, #174	@ 0xae
 800328a:	b573      	push	{r0, r1, r4, r5, r6, lr}
 800328c:	0092      	lsls	r2, r2, #2
 800328e:	5884      	ldr	r4, [r0, r2]
 8003290:	466a      	mov	r2, sp
 8003292:	0003      	movs	r3, r0
 8003294:	7808      	ldrb	r0, [r1, #0]
 8003296:	1d95      	adds	r5, r2, #6
 8003298:	2200      	movs	r2, #0
 800329a:	0006      	movs	r6, r0
 800329c:	802a      	strh	r2, [r5, #0]
 800329e:	3260      	adds	r2, #96	@ 0x60
 80032a0:	4016      	ands	r6, r2
 80032a2:	4210      	tst	r0, r2
 80032a4:	d026      	beq.n	80032f4 <USBD_CUSTOM_HID_Setup+0x6c>
 80032a6:	2e20      	cmp	r6, #32
 80032a8:	d137      	bne.n	800331a <USBD_CUSTOM_HID_Setup+0x92>
 80032aa:	7848      	ldrb	r0, [r1, #1]
 80032ac:	3802      	subs	r0, #2
 80032ae:	2809      	cmp	r0, #9
 80032b0:	d833      	bhi.n	800331a <USBD_CUSTOM_HID_Setup+0x92>
 80032b2:	f7fc ff45 	bl	8000140 <__gnu_thumb1_case_uqi>
 80032b6:	0914      	.short	0x0914
 80032b8:	32323232 	.word	0x32323232
 80032bc:	05101732 	.word	0x05101732
 80032c0:	788b      	ldrb	r3, [r1, #2]
 80032c2:	6423      	str	r3, [r4, #64]	@ 0x40
 80032c4:	2000      	movs	r0, #0
 80032c6:	e02c      	b.n	8003322 <USBD_CUSTOM_HID_Setup+0x9a>
 80032c8:	0021      	movs	r1, r4
 80032ca:	3140      	adds	r1, #64	@ 0x40
 80032cc:	2201      	movs	r2, #1
 80032ce:	0018      	movs	r0, r3
 80032d0:	f000 fc73 	bl	8003bba <USBD_CtlSendData>
 80032d4:	e7f6      	b.n	80032c4 <USBD_CUSTOM_HID_Setup+0x3c>
 80032d6:	884b      	ldrh	r3, [r1, #2]
 80032d8:	0a1b      	lsrs	r3, r3, #8
 80032da:	6463      	str	r3, [r4, #68]	@ 0x44
 80032dc:	e7f2      	b.n	80032c4 <USBD_CUSTOM_HID_Setup+0x3c>
 80032de:	0021      	movs	r1, r4
 80032e0:	3144      	adds	r1, #68	@ 0x44
 80032e2:	e7f3      	b.n	80032cc <USBD_CUSTOM_HID_Setup+0x44>
 80032e4:	2201      	movs	r2, #1
 80032e6:	64e2      	str	r2, [r4, #76]	@ 0x4c
 80032e8:	88ca      	ldrh	r2, [r1, #6]
 80032ea:	0018      	movs	r0, r3
 80032ec:	0021      	movs	r1, r4
 80032ee:	f000 fc7a 	bl	8003be6 <USBD_CtlPrepareRx>
 80032f2:	e7e7      	b.n	80032c4 <USBD_CUSTOM_HID_Setup+0x3c>
 80032f4:	7848      	ldrb	r0, [r1, #1]
 80032f6:	280b      	cmp	r0, #11
 80032f8:	d80f      	bhi.n	800331a <USBD_CUSTOM_HID_Setup+0x92>
 80032fa:	f7fc ff21 	bl	8000140 <__gnu_thumb1_case_uqi>
 80032fe:	0e06      	.short	0x0e06
 8003300:	0e0e0e0e 	.word	0x0e0e0e0e
 8003304:	0e0e0e13 	.word	0x0e0e0e13
 8003308:	382f      	.short	0x382f
 800330a:	22a7      	movs	r2, #167	@ 0xa7
 800330c:	0092      	lsls	r2, r2, #2
 800330e:	5c9a      	ldrb	r2, [r3, r2]
 8003310:	2a03      	cmp	r2, #3
 8003312:	d102      	bne.n	800331a <USBD_CUSTOM_HID_Setup+0x92>
 8003314:	0029      	movs	r1, r5
 8003316:	3a01      	subs	r2, #1
 8003318:	e7d9      	b.n	80032ce <USBD_CUSTOM_HID_Setup+0x46>
 800331a:	0018      	movs	r0, r3
 800331c:	f000 fc26 	bl	8003b6c <USBD_CtlError>
 8003320:	2002      	movs	r0, #2
 8003322:	bd76      	pop	{r1, r2, r4, r5, r6, pc}
 8003324:	884c      	ldrh	r4, [r1, #2]
 8003326:	0a24      	lsrs	r4, r4, #8
 8003328:	2c22      	cmp	r4, #34	@ 0x22
 800332a:	d10b      	bne.n	8003344 <USBD_CUSTOM_HID_Setup+0xbc>
 800332c:	88c9      	ldrh	r1, [r1, #6]
 800332e:	1c0a      	adds	r2, r1, #0
 8003330:	2921      	cmp	r1, #33	@ 0x21
 8003332:	d900      	bls.n	8003336 <USBD_CUSTOM_HID_Setup+0xae>
 8003334:	2221      	movs	r2, #33	@ 0x21
 8003336:	21af      	movs	r1, #175	@ 0xaf
 8003338:	0089      	lsls	r1, r1, #2
 800333a:	5859      	ldr	r1, [r3, r1]
 800333c:	b292      	uxth	r2, r2
 800333e:	6808      	ldr	r0, [r1, #0]
 8003340:	0001      	movs	r1, r0
 8003342:	e7c4      	b.n	80032ce <USBD_CUSTOM_HID_Setup+0x46>
 8003344:	2000      	movs	r0, #0
 8003346:	0002      	movs	r2, r0
 8003348:	2c21      	cmp	r4, #33	@ 0x21
 800334a:	d1f9      	bne.n	8003340 <USBD_CUSTOM_HID_Setup+0xb8>
 800334c:	88c9      	ldrh	r1, [r1, #6]
 800334e:	1c0a      	adds	r2, r1, #0
 8003350:	2909      	cmp	r1, #9
 8003352:	d900      	bls.n	8003356 <USBD_CUSTOM_HID_Setup+0xce>
 8003354:	2209      	movs	r2, #9
 8003356:	480a      	ldr	r0, [pc, #40]	@ (8003380 <USBD_CUSTOM_HID_Setup+0xf8>)
 8003358:	b292      	uxth	r2, r2
 800335a:	e7f1      	b.n	8003340 <USBD_CUSTOM_HID_Setup+0xb8>
 800335c:	22a7      	movs	r2, #167	@ 0xa7
 800335e:	0092      	lsls	r2, r2, #2
 8003360:	5c9a      	ldrb	r2, [r3, r2]
 8003362:	2a03      	cmp	r2, #3
 8003364:	d1d9      	bne.n	800331a <USBD_CUSTOM_HID_Setup+0x92>
 8003366:	0021      	movs	r1, r4
 8003368:	3a02      	subs	r2, #2
 800336a:	3148      	adds	r1, #72	@ 0x48
 800336c:	e7af      	b.n	80032ce <USBD_CUSTOM_HID_Setup+0x46>
 800336e:	22a7      	movs	r2, #167	@ 0xa7
 8003370:	0092      	lsls	r2, r2, #2
 8003372:	5c9a      	ldrb	r2, [r3, r2]
 8003374:	2a03      	cmp	r2, #3
 8003376:	d1d0      	bne.n	800331a <USBD_CUSTOM_HID_Setup+0x92>
 8003378:	788b      	ldrb	r3, [r1, #2]
 800337a:	64a3      	str	r3, [r4, #72]	@ 0x48
 800337c:	e7a2      	b.n	80032c4 <USBD_CUSTOM_HID_Setup+0x3c>
 800337e:	46c0      	nop			@ (mov r8, r8)
 8003380:	20000098 	.word	0x20000098

08003384 <USBD_CUSTOM_HID_DeInit>:
 8003384:	b570      	push	{r4, r5, r6, lr}
 8003386:	0004      	movs	r4, r0
 8003388:	2600      	movs	r6, #0
 800338a:	2181      	movs	r1, #129	@ 0x81
 800338c:	f000 fe25 	bl	8003fda <USBD_LL_CloseEP>
 8003390:	2101      	movs	r1, #1
 8003392:	0020      	movs	r0, r4
 8003394:	62e6      	str	r6, [r4, #44]	@ 0x2c
 8003396:	f000 fe20 	bl	8003fda <USBD_LL_CloseEP>
 800339a:	25ae      	movs	r5, #174	@ 0xae
 800339c:	0023      	movs	r3, r4
 800339e:	00ad      	lsls	r5, r5, #2
 80033a0:	33fc      	adds	r3, #252	@ 0xfc
 80033a2:	671e      	str	r6, [r3, #112]	@ 0x70
 80033a4:	5963      	ldr	r3, [r4, r5]
 80033a6:	42b3      	cmp	r3, r6
 80033a8:	d008      	beq.n	80033bc <USBD_CUSTOM_HID_DeInit+0x38>
 80033aa:	23af      	movs	r3, #175	@ 0xaf
 80033ac:	009b      	lsls	r3, r3, #2
 80033ae:	58e3      	ldr	r3, [r4, r3]
 80033b0:	689b      	ldr	r3, [r3, #8]
 80033b2:	4798      	blx	r3
 80033b4:	5960      	ldr	r0, [r4, r5]
 80033b6:	f000 fe5d 	bl	8004074 <USBD_static_free>
 80033ba:	5166      	str	r6, [r4, r5]
 80033bc:	2000      	movs	r0, #0
 80033be:	bd70      	pop	{r4, r5, r6, pc}

080033c0 <USBD_CUSTOM_HID_Init>:
 80033c0:	b5f8      	push	{r3, r4, r5, r6, r7, lr}
 80033c2:	0004      	movs	r4, r0
 80033c4:	2701      	movs	r7, #1
 80033c6:	2302      	movs	r3, #2
 80033c8:	2203      	movs	r2, #3
 80033ca:	2181      	movs	r1, #129	@ 0x81
 80033cc:	f000 fdf9 	bl	8003fc2 <USBD_LL_OpenEP>
 80033d0:	2302      	movs	r3, #2
 80033d2:	2203      	movs	r2, #3
 80033d4:	0039      	movs	r1, r7
 80033d6:	0020      	movs	r0, r4
 80033d8:	62e7      	str	r7, [r4, #44]	@ 0x2c
 80033da:	f000 fdf2 	bl	8003fc2 <USBD_LL_OpenEP>
 80033de:	0023      	movs	r3, r4
 80033e0:	33fc      	adds	r3, #252	@ 0xfc
 80033e2:	671f      	str	r7, [r3, #112]	@ 0x70
 80033e4:	2054      	movs	r0, #84	@ 0x54
 80033e6:	f000 fe41 	bl	800406c <USBD_static_malloc>
 80033ea:	23ae      	movs	r3, #174	@ 0xae
 80033ec:	009b      	lsls	r3, r3, #2
 80033ee:	0005      	movs	r5, r0
 80033f0:	50e0      	str	r0, [r4, r3]
 80033f2:	0038      	movs	r0, r7
 80033f4:	2d00      	cmp	r5, #0
 80033f6:	d00f      	beq.n	8003418 <USBD_CUSTOM_HID_Init+0x58>
 80033f8:	002b      	movs	r3, r5
 80033fa:	2600      	movs	r6, #0
 80033fc:	3350      	adds	r3, #80	@ 0x50
 80033fe:	701e      	strb	r6, [r3, #0]
 8003400:	23af      	movs	r3, #175	@ 0xaf
 8003402:	009b      	lsls	r3, r3, #2
 8003404:	58e3      	ldr	r3, [r4, r3]
 8003406:	685b      	ldr	r3, [r3, #4]
 8003408:	4798      	blx	r3
 800340a:	2340      	movs	r3, #64	@ 0x40
 800340c:	002a      	movs	r2, r5
 800340e:	0039      	movs	r1, r7
 8003410:	0020      	movs	r0, r4
 8003412:	f000 fe22 	bl	800405a <USBD_LL_PrepareReceive>
 8003416:	0030      	movs	r0, r6
 8003418:	bdf8      	pop	{r3, r4, r5, r6, r7, pc}

0800341a <USBD_CUSTOM_HID_SendReport>:
 800341a:	0013      	movs	r3, r2
 800341c:	22a7      	movs	r2, #167	@ 0xa7
 800341e:	b570      	push	{r4, r5, r6, lr}
 8003420:	0092      	lsls	r2, r2, #2
 8003422:	5c82      	ldrb	r2, [r0, r2]
 8003424:	2a03      	cmp	r2, #3
 8003426:	d002      	beq.n	800342e <USBD_CUSTOM_HID_SendReport+0x14>
 8003428:	2200      	movs	r2, #0
 800342a:	0010      	movs	r0, r2
 800342c:	bd70      	pop	{r4, r5, r6, pc}
 800342e:	22ae      	movs	r2, #174	@ 0xae
 8003430:	2501      	movs	r5, #1
 8003432:	0092      	lsls	r2, r2, #2
 8003434:	5884      	ldr	r4, [r0, r2]
 8003436:	002a      	movs	r2, r5
 8003438:	3450      	adds	r4, #80	@ 0x50
 800343a:	7826      	ldrb	r6, [r4, #0]
 800343c:	2e00      	cmp	r6, #0
 800343e:	d1f4      	bne.n	800342a <USBD_CUSTOM_HID_SendReport+0x10>
 8003440:	000a      	movs	r2, r1
 8003442:	7025      	strb	r5, [r4, #0]
 8003444:	2181      	movs	r1, #129	@ 0x81
 8003446:	f000 fdff 	bl	8004048 <USBD_LL_Transmit>
 800344a:	e7ed      	b.n	8003428 <USBD_CUSTOM_HID_SendReport+0xe>

0800344c <USBD_CUSTOM_HID_RegisterInterface>:
 800344c:	0003      	movs	r3, r0
 800344e:	2002      	movs	r0, #2
 8003450:	2900      	cmp	r1, #0
 8003452:	d003      	beq.n	800345c <USBD_CUSTOM_HID_RegisterInterface+0x10>
 8003454:	22af      	movs	r2, #175	@ 0xaf
 8003456:	2000      	movs	r0, #0
 8003458:	0092      	lsls	r2, r2, #2
 800345a:	5099      	str	r1, [r3, r2]
 800345c:	4770      	bx	lr

0800345e <USBD_Init>:
 800345e:	2302      	movs	r3, #2
 8003460:	b510      	push	{r4, lr}
 8003462:	2800      	cmp	r0, #0
 8003464:	d013      	beq.n	800348e <USBD_Init+0x30>
 8003466:	23ad      	movs	r3, #173	@ 0xad
 8003468:	009b      	lsls	r3, r3, #2
 800346a:	58c4      	ldr	r4, [r0, r3]
 800346c:	2c00      	cmp	r4, #0
 800346e:	d001      	beq.n	8003474 <USBD_Init+0x16>
 8003470:	2400      	movs	r4, #0
 8003472:	50c4      	str	r4, [r0, r3]
 8003474:	2900      	cmp	r1, #0
 8003476:	d002      	beq.n	800347e <USBD_Init+0x20>
 8003478:	23ac      	movs	r3, #172	@ 0xac
 800347a:	009b      	lsls	r3, r3, #2
 800347c:	50c1      	str	r1, [r0, r3]
 800347e:	23a7      	movs	r3, #167	@ 0xa7
 8003480:	2101      	movs	r1, #1
 8003482:	009b      	lsls	r3, r3, #2
 8003484:	54c1      	strb	r1, [r0, r3]
 8003486:	7002      	strb	r2, [r0, #0]
 8003488:	f000 fd5a 	bl	8003f40 <USBD_LL_Init>
 800348c:	2300      	movs	r3, #0
 800348e:	0018      	movs	r0, r3
 8003490:	bd10      	pop	{r4, pc}

08003492 <USBD_RegisterClass>:
 8003492:	0003      	movs	r3, r0
 8003494:	2002      	movs	r0, #2
 8003496:	2900      	cmp	r1, #0
 8003498:	d003      	beq.n	80034a2 <USBD_RegisterClass+0x10>
 800349a:	22ad      	movs	r2, #173	@ 0xad
 800349c:	2000      	movs	r0, #0
 800349e:	0092      	lsls	r2, r2, #2
 80034a0:	5099      	str	r1, [r3, r2]
 80034a2:	4770      	bx	lr

080034a4 <USBD_Start>:
 80034a4:	b510      	push	{r4, lr}
 80034a6:	f000 fd83 	bl	8003fb0 <USBD_LL_Start>
 80034aa:	2000      	movs	r0, #0
 80034ac:	bd10      	pop	{r4, pc}

080034ae <USBD_SetClassConfig>:
 80034ae:	23ad      	movs	r3, #173	@ 0xad
 80034b0:	009b      	lsls	r3, r3, #2
 80034b2:	58c2      	ldr	r2, [r0, r3]
 80034b4:	b510      	push	{r4, lr}
 80034b6:	2302      	movs	r3, #2
 80034b8:	2a00      	cmp	r2, #0
 80034ba:	d004      	beq.n	80034c6 <USBD_SetClassConfig+0x18>
 80034bc:	6813      	ldr	r3, [r2, #0]
 80034be:	4798      	blx	r3
 80034c0:	1e43      	subs	r3, r0, #1
 80034c2:	4198      	sbcs	r0, r3
 80034c4:	0043      	lsls	r3, r0, #1
 80034c6:	0018      	movs	r0, r3
 80034c8:	bd10      	pop	{r4, pc}

080034ca <USBD_ClrClassConfig>:
 80034ca:	23ad      	movs	r3, #173	@ 0xad
 80034cc:	b510      	push	{r4, lr}
 80034ce:	009b      	lsls	r3, r3, #2
 80034d0:	58c3      	ldr	r3, [r0, r3]
 80034d2:	685b      	ldr	r3, [r3, #4]
 80034d4:	4798      	blx	r3
 80034d6:	2000      	movs	r0, #0
 80034d8:	bd10      	pop	{r4, pc}
	...

080034dc <USBD_LL_SetupStage>:
 80034dc:	23aa      	movs	r3, #170	@ 0xaa
 80034de:	009b      	lsls	r3, r3, #2
 80034e0:	b570      	push	{r4, r5, r6, lr}
 80034e2:	18c5      	adds	r5, r0, r3
 80034e4:	0004      	movs	r4, r0
 80034e6:	0028      	movs	r0, r5
 80034e8:	f000 fb2c 	bl	8003b44 <USBD_ParseSetupRequest>
 80034ec:	23a5      	movs	r3, #165	@ 0xa5
 80034ee:	2201      	movs	r2, #1
 80034f0:	009b      	lsls	r3, r3, #2
 80034f2:	50e2      	str	r2, [r4, r3]
 80034f4:	4b11      	ldr	r3, [pc, #68]	@ (800353c <USBD_LL_SetupStage+0x60>)
 80034f6:	5ae2      	ldrh	r2, [r4, r3]
 80034f8:	3b16      	subs	r3, #22
 80034fa:	50e2      	str	r2, [r4, r3]
 80034fc:	3310      	adds	r3, #16
 80034fe:	5ce1      	ldrb	r1, [r4, r3]
 8003500:	231f      	movs	r3, #31
 8003502:	400b      	ands	r3, r1
 8003504:	2b01      	cmp	r3, #1
 8003506:	d009      	beq.n	800351c <USBD_LL_SetupStage+0x40>
 8003508:	2b02      	cmp	r3, #2
 800350a:	d00c      	beq.n	8003526 <USBD_LL_SetupStage+0x4a>
 800350c:	2b00      	cmp	r3, #0
 800350e:	d10f      	bne.n	8003530 <USBD_LL_SetupStage+0x54>
 8003510:	0029      	movs	r1, r5
 8003512:	0020      	movs	r0, r4
 8003514:	f000 f91a 	bl	800374c <USBD_StdDevReq>
 8003518:	2000      	movs	r0, #0
 800351a:	bd70      	pop	{r4, r5, r6, pc}
 800351c:	0029      	movs	r1, r5
 800351e:	0020      	movs	r0, r4
 8003520:	f000 fa54 	bl	80039cc <USBD_StdItfReq>
 8003524:	e7f8      	b.n	8003518 <USBD_LL_SetupStage+0x3c>
 8003526:	0029      	movs	r1, r5
 8003528:	0020      	movs	r0, r4
 800352a:	f000 fa77 	bl	8003a1c <USBD_StdEPReq>
 800352e:	e7f3      	b.n	8003518 <USBD_LL_SetupStage+0x3c>
 8003530:	237f      	movs	r3, #127	@ 0x7f
 8003532:	0020      	movs	r0, r4
 8003534:	4399      	bics	r1, r3
 8003536:	f000 fd59 	bl	8003fec <USBD_LL_StallEP>
 800353a:	e7ed      	b.n	8003518 <USBD_LL_SetupStage+0x3c>
 800353c:	000002ae 	.word	0x000002ae

08003540 <USBD_LL_DataOutStage>:
 8003540:	b570      	push	{r4, r5, r6, lr}
 8003542:	0004      	movs	r4, r0
 8003544:	0015      	movs	r5, r2
 8003546:	2900      	cmp	r1, #0
 8003548:	d12e      	bne.n	80035a8 <USBD_LL_DataOutStage+0x68>
 800354a:	23a5      	movs	r3, #165	@ 0xa5
 800354c:	009b      	lsls	r3, r3, #2
 800354e:	58c2      	ldr	r2, [r0, r3]
 8003550:	2a03      	cmp	r2, #3
 8003552:	d123      	bne.n	800359c <USBD_LL_DataOutStage+0x5c>
 8003554:	0002      	movs	r2, r0
 8003556:	3255      	adds	r2, #85	@ 0x55
 8003558:	32ff      	adds	r2, #255	@ 0xff
 800355a:	68d3      	ldr	r3, [r2, #12]
 800355c:	6910      	ldr	r0, [r2, #16]
 800355e:	4283      	cmp	r3, r0
 8003560:	d90b      	bls.n	800357a <USBD_LL_DataOutStage+0x3a>
 8003562:	1a1b      	subs	r3, r3, r0
 8003564:	60d3      	str	r3, [r2, #12]
 8003566:	b282      	uxth	r2, r0
 8003568:	4298      	cmp	r0, r3
 800356a:	d900      	bls.n	800356e <USBD_LL_DataOutStage+0x2e>
 800356c:	b29a      	uxth	r2, r3
 800356e:	0029      	movs	r1, r5
 8003570:	0020      	movs	r0, r4
 8003572:	f000 fb48 	bl	8003c06 <USBD_CtlContinueRx>
 8003576:	2000      	movs	r0, #0
 8003578:	bd70      	pop	{r4, r5, r6, pc}
 800357a:	23ad      	movs	r3, #173	@ 0xad
 800357c:	009b      	lsls	r3, r3, #2
 800357e:	58e3      	ldr	r3, [r4, r3]
 8003580:	691b      	ldr	r3, [r3, #16]
 8003582:	2b00      	cmp	r3, #0
 8003584:	d006      	beq.n	8003594 <USBD_LL_DataOutStage+0x54>
 8003586:	22a7      	movs	r2, #167	@ 0xa7
 8003588:	0092      	lsls	r2, r2, #2
 800358a:	5ca2      	ldrb	r2, [r4, r2]
 800358c:	2a03      	cmp	r2, #3
 800358e:	d101      	bne.n	8003594 <USBD_LL_DataOutStage+0x54>
 8003590:	0020      	movs	r0, r4
 8003592:	4798      	blx	r3
 8003594:	0020      	movs	r0, r4
 8003596:	f000 fb3e 	bl	8003c16 <USBD_CtlSendStatus>
 800359a:	e7ec      	b.n	8003576 <USBD_LL_DataOutStage+0x36>
 800359c:	2a05      	cmp	r2, #5
 800359e:	d1ea      	bne.n	8003576 <USBD_LL_DataOutStage+0x36>
 80035a0:	50c1      	str	r1, [r0, r3]
 80035a2:	f000 fd23 	bl	8003fec <USBD_LL_StallEP>
 80035a6:	e7e6      	b.n	8003576 <USBD_LL_DataOutStage+0x36>
 80035a8:	23ad      	movs	r3, #173	@ 0xad
 80035aa:	009b      	lsls	r3, r3, #2
 80035ac:	58c3      	ldr	r3, [r0, r3]
 80035ae:	2002      	movs	r0, #2
 80035b0:	699b      	ldr	r3, [r3, #24]
 80035b2:	2b00      	cmp	r3, #0
 80035b4:	d0e0      	beq.n	8003578 <USBD_LL_DataOutStage+0x38>
 80035b6:	22a7      	movs	r2, #167	@ 0xa7
 80035b8:	0092      	lsls	r2, r2, #2
 80035ba:	5ca2      	ldrb	r2, [r4, r2]
 80035bc:	2a03      	cmp	r2, #3
 80035be:	d1db      	bne.n	8003578 <USBD_LL_DataOutStage+0x38>
 80035c0:	0020      	movs	r0, r4
 80035c2:	4798      	blx	r3
 80035c4:	e7d7      	b.n	8003576 <USBD_LL_DataOutStage+0x36>

080035c6 <USBD_LL_DataInStage>:
 80035c6:	b5f8      	push	{r3, r4, r5, r6, r7, lr}
 80035c8:	000d      	movs	r5, r1
 80035ca:	0004      	movs	r4, r0
 80035cc:	0011      	movs	r1, r2
 80035ce:	2d00      	cmp	r5, #0
 80035d0:	d14d      	bne.n	800366e <USBD_LL_DataInStage+0xa8>
 80035d2:	23a5      	movs	r3, #165	@ 0xa5
 80035d4:	009b      	lsls	r3, r3, #2
 80035d6:	58c3      	ldr	r3, [r0, r3]
 80035d8:	2b02      	cmp	r3, #2
 80035da:	d13e      	bne.n	800365a <USBD_LL_DataInStage+0x94>
 80035dc:	6a03      	ldr	r3, [r0, #32]
 80035de:	6a46      	ldr	r6, [r0, #36]	@ 0x24
 80035e0:	42b3      	cmp	r3, r6
 80035e2:	d911      	bls.n	8003608 <USBD_LL_DataInStage+0x42>
 80035e4:	1b9b      	subs	r3, r3, r6
 80035e6:	6203      	str	r3, [r0, #32]
 80035e8:	b29a      	uxth	r2, r3
 80035ea:	f000 faf4 	bl	8003bd6 <USBD_CtlContinueSendData>
 80035ee:	002b      	movs	r3, r5
 80035f0:	002a      	movs	r2, r5
 80035f2:	0029      	movs	r1, r5
 80035f4:	0020      	movs	r0, r4
 80035f6:	f000 fd30 	bl	800405a <USBD_LL_PrepareReceive>
 80035fa:	23a8      	movs	r3, #168	@ 0xa8
 80035fc:	009b      	lsls	r3, r3, #2
 80035fe:	5ce2      	ldrb	r2, [r4, r3]
 8003600:	2a01      	cmp	r2, #1
 8003602:	d031      	beq.n	8003668 <USBD_LL_DataInStage+0xa2>
 8003604:	2000      	movs	r0, #0
 8003606:	bdf8      	pop	{r3, r4, r5, r6, r7, pc}
 8003608:	69c7      	ldr	r7, [r0, #28]
 800360a:	0031      	movs	r1, r6
 800360c:	0038      	movs	r0, r7
 800360e:	f7fc fe31 	bl	8000274 <__aeabi_uidivmod>
 8003612:	1e0d      	subs	r5, r1, #0
 8003614:	d10c      	bne.n	8003630 <USBD_LL_DataInStage+0x6a>
 8003616:	42be      	cmp	r6, r7
 8003618:	d80a      	bhi.n	8003630 <USBD_LL_DataInStage+0x6a>
 800361a:	26a6      	movs	r6, #166	@ 0xa6
 800361c:	00b6      	lsls	r6, r6, #2
 800361e:	59a3      	ldr	r3, [r4, r6]
 8003620:	429f      	cmp	r7, r3
 8003622:	d205      	bcs.n	8003630 <USBD_LL_DataInStage+0x6a>
 8003624:	000a      	movs	r2, r1
 8003626:	0020      	movs	r0, r4
 8003628:	f000 fad5 	bl	8003bd6 <USBD_CtlContinueSendData>
 800362c:	51a5      	str	r5, [r4, r6]
 800362e:	e7de      	b.n	80035ee <USBD_LL_DataInStage+0x28>
 8003630:	23ad      	movs	r3, #173	@ 0xad
 8003632:	009b      	lsls	r3, r3, #2
 8003634:	58e3      	ldr	r3, [r4, r3]
 8003636:	68db      	ldr	r3, [r3, #12]
 8003638:	2b00      	cmp	r3, #0
 800363a:	d006      	beq.n	800364a <USBD_LL_DataInStage+0x84>
 800363c:	22a7      	movs	r2, #167	@ 0xa7
 800363e:	0092      	lsls	r2, r2, #2
 8003640:	5ca2      	ldrb	r2, [r4, r2]
 8003642:	2a03      	cmp	r2, #3
 8003644:	d101      	bne.n	800364a <USBD_LL_DataInStage+0x84>
 8003646:	0020      	movs	r0, r4
 8003648:	4798      	blx	r3
 800364a:	2180      	movs	r1, #128	@ 0x80
 800364c:	0020      	movs	r0, r4
 800364e:	f000 fccd 	bl	8003fec <USBD_LL_StallEP>
 8003652:	0020      	movs	r0, r4
 8003654:	f000 faeb 	bl	8003c2e <USBD_CtlReceiveStatus>
 8003658:	e7cf      	b.n	80035fa <USBD_LL_DataInStage+0x34>
 800365a:	2204      	movs	r2, #4
 800365c:	4393      	bics	r3, r2
 800365e:	d1cc      	bne.n	80035fa <USBD_LL_DataInStage+0x34>
 8003660:	2180      	movs	r1, #128	@ 0x80
 8003662:	f000 fcc3 	bl	8003fec <USBD_LL_StallEP>
 8003666:	e7c8      	b.n	80035fa <USBD_LL_DataInStage+0x34>
 8003668:	2200      	movs	r2, #0
 800366a:	54e2      	strb	r2, [r4, r3]
 800366c:	e7ca      	b.n	8003604 <USBD_LL_DataInStage+0x3e>
 800366e:	23ad      	movs	r3, #173	@ 0xad
 8003670:	009b      	lsls	r3, r3, #2
 8003672:	58c3      	ldr	r3, [r0, r3]
 8003674:	2002      	movs	r0, #2
 8003676:	695b      	ldr	r3, [r3, #20]
 8003678:	2b00      	cmp	r3, #0
 800367a:	d0c4      	beq.n	8003606 <USBD_LL_DataInStage+0x40>
 800367c:	22a7      	movs	r2, #167	@ 0xa7
 800367e:	0092      	lsls	r2, r2, #2
 8003680:	5ca2      	ldrb	r2, [r4, r2]
 8003682:	2a03      	cmp	r2, #3
 8003684:	d1bf      	bne.n	8003606 <USBD_LL_DataInStage+0x40>
 8003686:	0029      	movs	r1, r5
 8003688:	0020      	movs	r0, r4
 800368a:	4798      	blx	r3
 800368c:	e7ba      	b.n	8003604 <USBD_LL_DataInStage+0x3e>

0800368e <USBD_LL_Reset>:
 800368e:	2200      	movs	r2, #0
 8003690:	b570      	push	{r4, r5, r6, lr}
 8003692:	0004      	movs	r4, r0
 8003694:	0011      	movs	r1, r2
 8003696:	2340      	movs	r3, #64	@ 0x40
 8003698:	f000 fc93 	bl	8003fc2 <USBD_LL_OpenEP>
 800369c:	0023      	movs	r3, r4
 800369e:	2501      	movs	r5, #1
 80036a0:	2640      	movs	r6, #64	@ 0x40
 80036a2:	33fc      	adds	r3, #252	@ 0xfc
 80036a4:	2180      	movs	r1, #128	@ 0x80
 80036a6:	65dd      	str	r5, [r3, #92]	@ 0x5c
 80036a8:	669e      	str	r6, [r3, #104]	@ 0x68
 80036aa:	2200      	movs	r2, #0
 80036ac:	0033      	movs	r3, r6
 80036ae:	0020      	movs	r0, r4
 80036b0:	f000 fc87 	bl	8003fc2 <USBD_LL_OpenEP>
 80036b4:	23a7      	movs	r3, #167	@ 0xa7
 80036b6:	2100      	movs	r1, #0
 80036b8:	009b      	lsls	r3, r3, #2
 80036ba:	61a5      	str	r5, [r4, #24]
 80036bc:	6266      	str	r6, [r4, #36]	@ 0x24
 80036be:	54e5      	strb	r5, [r4, r3]
 80036c0:	3b08      	subs	r3, #8
 80036c2:	50e1      	str	r1, [r4, r3]
 80036c4:	3310      	adds	r3, #16
 80036c6:	6061      	str	r1, [r4, #4]
 80036c8:	50e1      	str	r1, [r4, r3]
 80036ca:	3314      	adds	r3, #20
 80036cc:	58e3      	ldr	r3, [r4, r3]
 80036ce:	428b      	cmp	r3, r1
 80036d0:	d005      	beq.n	80036de <USBD_LL_Reset+0x50>
 80036d2:	23ad      	movs	r3, #173	@ 0xad
 80036d4:	009b      	lsls	r3, r3, #2
 80036d6:	58e3      	ldr	r3, [r4, r3]
 80036d8:	0020      	movs	r0, r4
 80036da:	685b      	ldr	r3, [r3, #4]
 80036dc:	4798      	blx	r3
 80036de:	2000      	movs	r0, #0
 80036e0:	bd70      	pop	{r4, r5, r6, pc}

080036e2 <USBD_LL_SetSpeed>:
 80036e2:	7401      	strb	r1, [r0, #16]
 80036e4:	2000      	movs	r0, #0
 80036e6:	4770      	bx	lr

080036e8 <USBD_LL_Suspend>:
 80036e8:	23a7      	movs	r3, #167	@ 0xa7
 80036ea:	009b      	lsls	r3, r3, #2
 80036ec:	5cc1      	ldrb	r1, [r0, r3]
 80036ee:	4a03      	ldr	r2, [pc, #12]	@ (80036fc <USBD_LL_Suspend+0x14>)
 80036f0:	5481      	strb	r1, [r0, r2]
 80036f2:	2204      	movs	r2, #4
 80036f4:	54c2      	strb	r2, [r0, r3]
 80036f6:	2000      	movs	r0, #0
 80036f8:	4770      	bx	lr
 80036fa:	46c0      	nop			@ (mov r8, r8)
 80036fc:	0000029d 	.word	0x0000029d

08003700 <USBD_LL_Resume>:
 8003700:	23a7      	movs	r3, #167	@ 0xa7
 8003702:	009b      	lsls	r3, r3, #2
 8003704:	5cc2      	ldrb	r2, [r0, r3]
 8003706:	2a04      	cmp	r2, #4
 8003708:	d102      	bne.n	8003710 <USBD_LL_Resume+0x10>
 800370a:	4a02      	ldr	r2, [pc, #8]	@ (8003714 <USBD_LL_Resume+0x14>)
 800370c:	5c82      	ldrb	r2, [r0, r2]
 800370e:	54c2      	strb	r2, [r0, r3]
 8003710:	2000      	movs	r0, #0
 8003712:	4770      	bx	lr
 8003714:	0000029d 	.word	0x0000029d

08003718 <USBD_LL_SOF>:
 8003718:	23a7      	movs	r3, #167	@ 0xa7
 800371a:	b510      	push	{r4, lr}
 800371c:	009b      	lsls	r3, r3, #2
 800371e:	5cc3      	ldrb	r3, [r0, r3]
 8003720:	2b03      	cmp	r3, #3
 8003722:	d106      	bne.n	8003732 <USBD_LL_SOF+0x1a>
 8003724:	23ad      	movs	r3, #173	@ 0xad
 8003726:	009b      	lsls	r3, r3, #2
 8003728:	58c3      	ldr	r3, [r0, r3]
 800372a:	69db      	ldr	r3, [r3, #28]
 800372c:	2b00      	cmp	r3, #0
 800372e:	d000      	beq.n	8003732 <USBD_LL_SOF+0x1a>
 8003730:	4798      	blx	r3
 8003732:	2000      	movs	r0, #0
 8003734:	bd10      	pop	{r4, pc}

08003736 <USBD_CtlError.constprop.0>:
 8003736:	b510      	push	{r4, lr}
 8003738:	0004      	movs	r4, r0
 800373a:	2180      	movs	r1, #128	@ 0x80
 800373c:	f000 fc56 	bl	8003fec <USBD_LL_StallEP>
 8003740:	2100      	movs	r1, #0
 8003742:	0020      	movs	r0, r4
 8003744:	f000 fc52 	bl	8003fec <USBD_LL_StallEP>
 8003748:	bd10      	pop	{r4, pc}
	...

0800374c <USBD_StdDevReq>:
 800374c:	2260      	movs	r2, #96	@ 0x60
 800374e:	780b      	ldrb	r3, [r1, #0]
 8003750:	b573      	push	{r0, r1, r4, r5, r6, lr}
 8003752:	4013      	ands	r3, r2
 8003754:	000d      	movs	r5, r1
 8003756:	0019      	movs	r1, r3
 8003758:	1892      	adds	r2, r2, r2
 800375a:	3920      	subs	r1, #32
 800375c:	0004      	movs	r4, r0
 800375e:	4211      	tst	r1, r2
 8003760:	d005      	beq.n	800376e <USBD_StdDevReq+0x22>
 8003762:	2b00      	cmp	r3, #0
 8003764:	d00b      	beq.n	800377e <USBD_StdDevReq+0x32>
 8003766:	0020      	movs	r0, r4
 8003768:	f7ff ffe5 	bl	8003736 <USBD_CtlError.constprop.0>
 800376c:	e005      	b.n	800377a <USBD_StdDevReq+0x2e>
 800376e:	23ad      	movs	r3, #173	@ 0xad
 8003770:	009b      	lsls	r3, r3, #2
 8003772:	58c3      	ldr	r3, [r0, r3]
 8003774:	0029      	movs	r1, r5
 8003776:	689b      	ldr	r3, [r3, #8]
 8003778:	4798      	blx	r3
 800377a:	2000      	movs	r0, #0
 800377c:	bd76      	pop	{r1, r2, r4, r5, r6, pc}
 800377e:	7868      	ldrb	r0, [r5, #1]
 8003780:	2809      	cmp	r0, #9
 8003782:	d8f0      	bhi.n	8003766 <USBD_StdDevReq+0x1a>
 8003784:	f7fc fce6 	bl	8000154 <__gnu_thumb1_case_shi>
 8003788:	010e00ef 	.word	0x010e00ef
 800378c:	0106ffef 	.word	0x0106ffef
 8003790:	007dffef 	.word	0x007dffef
 8003794:	ffef000a 	.word	0xffef000a
 8003798:	009f00d6 	.word	0x009f00d6
 800379c:	2300      	movs	r3, #0
 800379e:	466a      	mov	r2, sp
 80037a0:	80d3      	strh	r3, [r2, #6]
 80037a2:	886b      	ldrh	r3, [r5, #2]
 80037a4:	0a18      	lsrs	r0, r3, #8
 80037a6:	3801      	subs	r0, #1
 80037a8:	2806      	cmp	r0, #6
 80037aa:	d8dc      	bhi.n	8003766 <USBD_StdDevReq+0x1a>
 80037ac:	f7fc fcbe 	bl	800012c <__gnu_thumb1_case_sqi>
 80037b0:	db261704 	.word	0xdb261704
 80037b4:	40db      	.short	0x40db
 80037b6:	4c          	.byte	0x4c
 80037b7:	00          	.byte	0x00
 80037b8:	23ac      	movs	r3, #172	@ 0xac
 80037ba:	009b      	lsls	r3, r3, #2
 80037bc:	58e3      	ldr	r3, [r4, r3]
 80037be:	7c20      	ldrb	r0, [r4, #16]
 80037c0:	681b      	ldr	r3, [r3, #0]
 80037c2:	466a      	mov	r2, sp
 80037c4:	1d91      	adds	r1, r2, #6
 80037c6:	4798      	blx	r3
 80037c8:	466b      	mov	r3, sp
 80037ca:	88d9      	ldrh	r1, [r3, #6]
 80037cc:	88ea      	ldrh	r2, [r5, #6]
 80037ce:	2900      	cmp	r1, #0
 80037d0:	d052      	beq.n	8003878 <USBD_StdDevReq+0x12c>
 80037d2:	2a00      	cmp	r2, #0
 80037d4:	d145      	bne.n	8003862 <USBD_StdDevReq+0x116>
 80037d6:	0020      	movs	r0, r4
 80037d8:	f000 fa1d 	bl	8003c16 <USBD_CtlSendStatus>
 80037dc:	e7cd      	b.n	800377a <USBD_StdDevReq+0x2e>
 80037de:	23ad      	movs	r3, #173	@ 0xad
 80037e0:	7c22      	ldrb	r2, [r4, #16]
 80037e2:	009b      	lsls	r3, r3, #2
 80037e4:	58e3      	ldr	r3, [r4, r3]
 80037e6:	2a00      	cmp	r2, #0
 80037e8:	d106      	bne.n	80037f8 <USBD_StdDevReq+0xac>
 80037ea:	6a9b      	ldr	r3, [r3, #40]	@ 0x28
 80037ec:	466a      	mov	r2, sp
 80037ee:	1d90      	adds	r0, r2, #6
 80037f0:	4798      	blx	r3
 80037f2:	2302      	movs	r3, #2
 80037f4:	7043      	strb	r3, [r0, #1]
 80037f6:	e7e7      	b.n	80037c8 <USBD_StdDevReq+0x7c>
 80037f8:	6adb      	ldr	r3, [r3, #44]	@ 0x2c
 80037fa:	e7f7      	b.n	80037ec <USBD_StdDevReq+0xa0>
 80037fc:	b2d8      	uxtb	r0, r3
 80037fe:	2805      	cmp	r0, #5
 8003800:	d8b1      	bhi.n	8003766 <USBD_StdDevReq+0x1a>
 8003802:	23ac      	movs	r3, #172	@ 0xac
 8003804:	009b      	lsls	r3, r3, #2
 8003806:	58e3      	ldr	r3, [r4, r3]
 8003808:	f7fc fc9a 	bl	8000140 <__gnu_thumb1_case_uqi>
 800380c:	0c0a0803 	.word	0x0c0a0803
 8003810:	100e      	.short	0x100e
 8003812:	685b      	ldr	r3, [r3, #4]
 8003814:	2b00      	cmp	r3, #0
 8003816:	d0a6      	beq.n	8003766 <USBD_StdDevReq+0x1a>
 8003818:	7c20      	ldrb	r0, [r4, #16]
 800381a:	e7d2      	b.n	80037c2 <USBD_StdDevReq+0x76>
 800381c:	689b      	ldr	r3, [r3, #8]
 800381e:	e7f9      	b.n	8003814 <USBD_StdDevReq+0xc8>
 8003820:	68db      	ldr	r3, [r3, #12]
 8003822:	e7f7      	b.n	8003814 <USBD_StdDevReq+0xc8>
 8003824:	691b      	ldr	r3, [r3, #16]
 8003826:	e7f5      	b.n	8003814 <USBD_StdDevReq+0xc8>
 8003828:	695b      	ldr	r3, [r3, #20]
 800382a:	e7f3      	b.n	8003814 <USBD_StdDevReq+0xc8>
 800382c:	699b      	ldr	r3, [r3, #24]
 800382e:	e7f1      	b.n	8003814 <USBD_StdDevReq+0xc8>
 8003830:	7c23      	ldrb	r3, [r4, #16]
 8003832:	2b00      	cmp	r3, #0
 8003834:	d000      	beq.n	8003838 <USBD_StdDevReq+0xec>
 8003836:	e796      	b.n	8003766 <USBD_StdDevReq+0x1a>
 8003838:	23ad      	movs	r3, #173	@ 0xad
 800383a:	466a      	mov	r2, sp
 800383c:	009b      	lsls	r3, r3, #2
 800383e:	58e3      	ldr	r3, [r4, r3]
 8003840:	1d90      	adds	r0, r2, #6
 8003842:	6b5b      	ldr	r3, [r3, #52]	@ 0x34
 8003844:	4798      	blx	r3
 8003846:	e7bf      	b.n	80037c8 <USBD_StdDevReq+0x7c>
 8003848:	7c23      	ldrb	r3, [r4, #16]
 800384a:	2b00      	cmp	r3, #0
 800384c:	d000      	beq.n	8003850 <USBD_StdDevReq+0x104>
 800384e:	e78a      	b.n	8003766 <USBD_StdDevReq+0x1a>
 8003850:	23ad      	movs	r3, #173	@ 0xad
 8003852:	466a      	mov	r2, sp
 8003854:	009b      	lsls	r3, r3, #2
 8003856:	58e3      	ldr	r3, [r4, r3]
 8003858:	1d90      	adds	r0, r2, #6
 800385a:	6b1b      	ldr	r3, [r3, #48]	@ 0x30
 800385c:	4798      	blx	r3
 800385e:	2307      	movs	r3, #7
 8003860:	e7c8      	b.n	80037f4 <USBD_StdDevReq+0xa8>
 8003862:	1c0b      	adds	r3, r1, #0
 8003864:	4291      	cmp	r1, r2
 8003866:	d900      	bls.n	800386a <USBD_StdDevReq+0x11e>
 8003868:	1c13      	adds	r3, r2, #0
 800386a:	4669      	mov	r1, sp
 800386c:	b29a      	uxth	r2, r3
 800386e:	80cb      	strh	r3, [r1, #6]
 8003870:	0001      	movs	r1, r0
 8003872:	0020      	movs	r0, r4
 8003874:	f000 f9a1 	bl	8003bba <USBD_CtlSendData>
 8003878:	88eb      	ldrh	r3, [r5, #6]
 800387a:	2b00      	cmp	r3, #0
 800387c:	d000      	beq.n	8003880 <USBD_StdDevReq+0x134>
 800387e:	e77c      	b.n	800377a <USBD_StdDevReq+0x2e>
 8003880:	e7a9      	b.n	80037d6 <USBD_StdDevReq+0x8a>
 8003882:	88ab      	ldrh	r3, [r5, #4]
 8003884:	2b00      	cmp	r3, #0
 8003886:	d000      	beq.n	800388a <USBD_StdDevReq+0x13e>
 8003888:	e76d      	b.n	8003766 <USBD_StdDevReq+0x1a>
 800388a:	88eb      	ldrh	r3, [r5, #6]
 800388c:	2b00      	cmp	r3, #0
 800388e:	d000      	beq.n	8003892 <USBD_StdDevReq+0x146>
 8003890:	e769      	b.n	8003766 <USBD_StdDevReq+0x1a>
 8003892:	886d      	ldrh	r5, [r5, #2]
 8003894:	2d7f      	cmp	r5, #127	@ 0x7f
 8003896:	d900      	bls.n	800389a <USBD_StdDevReq+0x14e>
 8003898:	e765      	b.n	8003766 <USBD_StdDevReq+0x1a>
 800389a:	26a7      	movs	r6, #167	@ 0xa7
 800389c:	00b6      	lsls	r6, r6, #2
 800389e:	5da3      	ldrb	r3, [r4, r6]
 80038a0:	2b03      	cmp	r3, #3
 80038a2:	d100      	bne.n	80038a6 <USBD_StdDevReq+0x15a>
 80038a4:	e75f      	b.n	8003766 <USBD_StdDevReq+0x1a>
 80038a6:	4b47      	ldr	r3, [pc, #284]	@ (80039c4 <USBD_StdDevReq+0x278>)
 80038a8:	b2ed      	uxtb	r5, r5
 80038aa:	54e5      	strb	r5, [r4, r3]
 80038ac:	0029      	movs	r1, r5
 80038ae:	0020      	movs	r0, r4
 80038b0:	f000 fbc1 	bl	8004036 <USBD_LL_SetUSBAddress>
 80038b4:	0020      	movs	r0, r4
 80038b6:	f000 f9ae 	bl	8003c16 <USBD_CtlSendStatus>
 80038ba:	2302      	movs	r3, #2
 80038bc:	2d00      	cmp	r5, #0
 80038be:	d100      	bne.n	80038c2 <USBD_StdDevReq+0x176>
 80038c0:	2301      	movs	r3, #1
 80038c2:	55a3      	strb	r3, [r4, r6]
 80038c4:	e759      	b.n	800377a <USBD_StdDevReq+0x2e>
 80038c6:	78a9      	ldrb	r1, [r5, #2]
 80038c8:	4d3f      	ldr	r5, [pc, #252]	@ (80039c8 <USBD_StdDevReq+0x27c>)
 80038ca:	7029      	strb	r1, [r5, #0]
 80038cc:	2901      	cmp	r1, #1
 80038ce:	d900      	bls.n	80038d2 <USBD_StdDevReq+0x186>
 80038d0:	e749      	b.n	8003766 <USBD_StdDevReq+0x1a>
 80038d2:	23a7      	movs	r3, #167	@ 0xa7
 80038d4:	009b      	lsls	r3, r3, #2
 80038d6:	5ce2      	ldrb	r2, [r4, r3]
 80038d8:	2a02      	cmp	r2, #2
 80038da:	d009      	beq.n	80038f0 <USBD_StdDevReq+0x1a4>
 80038dc:	2a03      	cmp	r2, #3
 80038de:	d015      	beq.n	800390c <USBD_StdDevReq+0x1c0>
 80038e0:	0020      	movs	r0, r4
 80038e2:	f7ff ff28 	bl	8003736 <USBD_CtlError.constprop.0>
 80038e6:	0020      	movs	r0, r4
 80038e8:	7829      	ldrb	r1, [r5, #0]
 80038ea:	f7ff fdee 	bl	80034ca <USBD_ClrClassConfig>
 80038ee:	e744      	b.n	800377a <USBD_StdDevReq+0x2e>
 80038f0:	2900      	cmp	r1, #0
 80038f2:	d100      	bne.n	80038f6 <USBD_StdDevReq+0x1aa>
 80038f4:	e76f      	b.n	80037d6 <USBD_StdDevReq+0x8a>
 80038f6:	2101      	movs	r1, #1
 80038f8:	2203      	movs	r2, #3
 80038fa:	6061      	str	r1, [r4, #4]
 80038fc:	54e2      	strb	r2, [r4, r3]
 80038fe:	0020      	movs	r0, r4
 8003900:	f7ff fdd5 	bl	80034ae <USBD_SetClassConfig>
 8003904:	2802      	cmp	r0, #2
 8003906:	d000      	beq.n	800390a <USBD_StdDevReq+0x1be>
 8003908:	e765      	b.n	80037d6 <USBD_StdDevReq+0x8a>
 800390a:	e72c      	b.n	8003766 <USBD_StdDevReq+0x1a>
 800390c:	2900      	cmp	r1, #0
 800390e:	d106      	bne.n	800391e <USBD_StdDevReq+0x1d2>
 8003910:	2202      	movs	r2, #2
 8003912:	0020      	movs	r0, r4
 8003914:	54e2      	strb	r2, [r4, r3]
 8003916:	6061      	str	r1, [r4, #4]
 8003918:	f7ff fdd7 	bl	80034ca <USBD_ClrClassConfig>
 800391c:	e75b      	b.n	80037d6 <USBD_StdDevReq+0x8a>
 800391e:	6861      	ldr	r1, [r4, #4]
 8003920:	2901      	cmp	r1, #1
 8003922:	d100      	bne.n	8003926 <USBD_StdDevReq+0x1da>
 8003924:	e757      	b.n	80037d6 <USBD_StdDevReq+0x8a>
 8003926:	b2c9      	uxtb	r1, r1
 8003928:	0020      	movs	r0, r4
 800392a:	f7ff fdce 	bl	80034ca <USBD_ClrClassConfig>
 800392e:	7829      	ldrb	r1, [r5, #0]
 8003930:	6061      	str	r1, [r4, #4]
 8003932:	e7e4      	b.n	80038fe <USBD_StdDevReq+0x1b2>
 8003934:	88ea      	ldrh	r2, [r5, #6]
 8003936:	2a01      	cmp	r2, #1
 8003938:	d000      	beq.n	800393c <USBD_StdDevReq+0x1f0>
 800393a:	e714      	b.n	8003766 <USBD_StdDevReq+0x1a>
 800393c:	23a7      	movs	r3, #167	@ 0xa7
 800393e:	009b      	lsls	r3, r3, #2
 8003940:	5ce3      	ldrb	r3, [r4, r3]
 8003942:	2b02      	cmp	r3, #2
 8003944:	d807      	bhi.n	8003956 <USBD_StdDevReq+0x20a>
 8003946:	2b00      	cmp	r3, #0
 8003948:	d100      	bne.n	800394c <USBD_StdDevReq+0x200>
 800394a:	e70c      	b.n	8003766 <USBD_StdDevReq+0x1a>
 800394c:	2300      	movs	r3, #0
 800394e:	0021      	movs	r1, r4
 8003950:	60a3      	str	r3, [r4, #8]
 8003952:	3108      	adds	r1, #8
 8003954:	e003      	b.n	800395e <USBD_StdDevReq+0x212>
 8003956:	1d21      	adds	r1, r4, #4
 8003958:	2b03      	cmp	r3, #3
 800395a:	d000      	beq.n	800395e <USBD_StdDevReq+0x212>
 800395c:	e703      	b.n	8003766 <USBD_StdDevReq+0x1a>
 800395e:	0020      	movs	r0, r4
 8003960:	f000 f92b 	bl	8003bba <USBD_CtlSendData>
 8003964:	e709      	b.n	800377a <USBD_StdDevReq+0x2e>
 8003966:	23a7      	movs	r3, #167	@ 0xa7
 8003968:	009b      	lsls	r3, r3, #2
 800396a:	5ce3      	ldrb	r3, [r4, r3]
 800396c:	3b01      	subs	r3, #1
 800396e:	2b02      	cmp	r3, #2
 8003970:	d900      	bls.n	8003974 <USBD_StdDevReq+0x228>
 8003972:	e6f8      	b.n	8003766 <USBD_StdDevReq+0x1a>
 8003974:	88eb      	ldrh	r3, [r5, #6]
 8003976:	2b02      	cmp	r3, #2
 8003978:	d000      	beq.n	800397c <USBD_StdDevReq+0x230>
 800397a:	e6f4      	b.n	8003766 <USBD_StdDevReq+0x1a>
 800397c:	23a9      	movs	r3, #169	@ 0xa9
 800397e:	009b      	lsls	r3, r3, #2
 8003980:	58e2      	ldr	r2, [r4, r3]
 8003982:	2301      	movs	r3, #1
 8003984:	2a00      	cmp	r2, #0
 8003986:	d000      	beq.n	800398a <USBD_StdDevReq+0x23e>
 8003988:	3302      	adds	r3, #2
 800398a:	0021      	movs	r1, r4
 800398c:	2202      	movs	r2, #2
 800398e:	60e3      	str	r3, [r4, #12]
 8003990:	310c      	adds	r1, #12
 8003992:	e7e4      	b.n	800395e <USBD_StdDevReq+0x212>
 8003994:	886b      	ldrh	r3, [r5, #2]
 8003996:	2b01      	cmp	r3, #1
 8003998:	d000      	beq.n	800399c <USBD_StdDevReq+0x250>
 800399a:	e6ee      	b.n	800377a <USBD_StdDevReq+0x2e>
 800399c:	22a9      	movs	r2, #169	@ 0xa9
 800399e:	0092      	lsls	r2, r2, #2
 80039a0:	50a3      	str	r3, [r4, r2]
 80039a2:	e718      	b.n	80037d6 <USBD_StdDevReq+0x8a>
 80039a4:	23a7      	movs	r3, #167	@ 0xa7
 80039a6:	009b      	lsls	r3, r3, #2
 80039a8:	5ce3      	ldrb	r3, [r4, r3]
 80039aa:	3b01      	subs	r3, #1
 80039ac:	2b02      	cmp	r3, #2
 80039ae:	d900      	bls.n	80039b2 <USBD_StdDevReq+0x266>
 80039b0:	e6d9      	b.n	8003766 <USBD_StdDevReq+0x1a>
 80039b2:	886b      	ldrh	r3, [r5, #2]
 80039b4:	2b01      	cmp	r3, #1
 80039b6:	d000      	beq.n	80039ba <USBD_StdDevReq+0x26e>
 80039b8:	e6df      	b.n	800377a <USBD_StdDevReq+0x2e>
 80039ba:	23a9      	movs	r3, #169	@ 0xa9
 80039bc:	2200      	movs	r2, #0
 80039be:	009b      	lsls	r3, r3, #2
 80039c0:	50e2      	str	r2, [r4, r3]
 80039c2:	e708      	b.n	80037d6 <USBD_StdDevReq+0x8a>
 80039c4:	0000029e 	.word	0x0000029e
 80039c8:	200002f0 	.word	0x200002f0

080039cc <USBD_StdItfReq>:
 80039cc:	2360      	movs	r3, #96	@ 0x60
 80039ce:	780a      	ldrb	r2, [r1, #0]
 80039d0:	b570      	push	{r4, r5, r6, lr}
 80039d2:	4013      	ands	r3, r2
 80039d4:	0004      	movs	r4, r0
 80039d6:	000d      	movs	r5, r1
 80039d8:	0652      	lsls	r2, r2, #25
 80039da:	d501      	bpl.n	80039e0 <USBD_StdItfReq+0x14>
 80039dc:	2b40      	cmp	r3, #64	@ 0x40
 80039de:	d119      	bne.n	8003a14 <USBD_StdItfReq+0x48>
 80039e0:	23a7      	movs	r3, #167	@ 0xa7
 80039e2:	009b      	lsls	r3, r3, #2
 80039e4:	5ce3      	ldrb	r3, [r4, r3]
 80039e6:	3b01      	subs	r3, #1
 80039e8:	2b02      	cmp	r3, #2
 80039ea:	d813      	bhi.n	8003a14 <USBD_StdItfReq+0x48>
 80039ec:	792b      	ldrb	r3, [r5, #4]
 80039ee:	2b01      	cmp	r3, #1
 80039f0:	d810      	bhi.n	8003a14 <USBD_StdItfReq+0x48>
 80039f2:	23ad      	movs	r3, #173	@ 0xad
 80039f4:	009b      	lsls	r3, r3, #2
 80039f6:	58e3      	ldr	r3, [r4, r3]
 80039f8:	0029      	movs	r1, r5
 80039fa:	689b      	ldr	r3, [r3, #8]
 80039fc:	0020      	movs	r0, r4
 80039fe:	4798      	blx	r3
 8003a00:	88eb      	ldrh	r3, [r5, #6]
 8003a02:	2b00      	cmp	r3, #0
 8003a04:	d104      	bne.n	8003a10 <USBD_StdItfReq+0x44>
 8003a06:	2800      	cmp	r0, #0
 8003a08:	d102      	bne.n	8003a10 <USBD_StdItfReq+0x44>
 8003a0a:	0020      	movs	r0, r4
 8003a0c:	f000 f903 	bl	8003c16 <USBD_CtlSendStatus>
 8003a10:	2000      	movs	r0, #0
 8003a12:	bd70      	pop	{r4, r5, r6, pc}
 8003a14:	0020      	movs	r0, r4
 8003a16:	f7ff fe8e 	bl	8003736 <USBD_CtlError.constprop.0>
 8003a1a:	e7f9      	b.n	8003a10 <USBD_StdItfReq+0x44>

08003a1c <USBD_StdEPReq>:
 8003a1c:	b570      	push	{r4, r5, r6, lr}
 8003a1e:	0004      	movs	r4, r0
 8003a20:	2060      	movs	r0, #96	@ 0x60
 8003a22:	000b      	movs	r3, r1
 8003a24:	888a      	ldrh	r2, [r1, #4]
 8003a26:	7809      	ldrb	r1, [r1, #0]
 8003a28:	4001      	ands	r1, r0
 8003a2a:	000d      	movs	r5, r1
 8003a2c:	1800      	adds	r0, r0, r0
 8003a2e:	3d20      	subs	r5, #32
 8003a30:	4205      	tst	r5, r0
 8003a32:	d005      	beq.n	8003a40 <USBD_StdEPReq+0x24>
 8003a34:	2900      	cmp	r1, #0
 8003a36:	d00c      	beq.n	8003a52 <USBD_StdEPReq+0x36>
 8003a38:	0020      	movs	r0, r4
 8003a3a:	f7ff fe7c 	bl	8003736 <USBD_CtlError.constprop.0>
 8003a3e:	e006      	b.n	8003a4e <USBD_StdEPReq+0x32>
 8003a40:	22ad      	movs	r2, #173	@ 0xad
 8003a42:	0092      	lsls	r2, r2, #2
 8003a44:	58a2      	ldr	r2, [r4, r2]
 8003a46:	0019      	movs	r1, r3
 8003a48:	0020      	movs	r0, r4
 8003a4a:	6892      	ldr	r2, [r2, #8]
 8003a4c:	4790      	blx	r2
 8003a4e:	2000      	movs	r0, #0
 8003a50:	bd70      	pop	{r4, r5, r6, pc}
 8003a52:	7858      	ldrb	r0, [r3, #1]
 8003a54:	b2d1      	uxtb	r1, r2
 8003a56:	2801      	cmp	r0, #1
 8003a58:	d038      	beq.n	8003acc <USBD_StdEPReq+0xb0>
 8003a5a:	2803      	cmp	r0, #3
 8003a5c:	d020      	beq.n	8003aa0 <USBD_StdEPReq+0x84>
 8003a5e:	2800      	cmp	r0, #0
 8003a60:	d1ea      	bne.n	8003a38 <USBD_StdEPReq+0x1c>
 8003a62:	23a7      	movs	r3, #167	@ 0xa7
 8003a64:	009b      	lsls	r3, r3, #2
 8003a66:	5ce3      	ldrb	r3, [r4, r3]
 8003a68:	2b02      	cmp	r3, #2
 8003a6a:	d049      	beq.n	8003b00 <USBD_StdEPReq+0xe4>
 8003a6c:	2b03      	cmp	r3, #3
 8003a6e:	d1e3      	bne.n	8003a38 <USBD_StdEPReq+0x1c>
 8003a70:	230f      	movs	r3, #15
 8003a72:	2514      	movs	r5, #20
 8003a74:	400b      	ands	r3, r1
 8003a76:	436b      	muls	r3, r5
 8003a78:	18e3      	adds	r3, r4, r3
 8003a7a:	0612      	lsls	r2, r2, #24
 8003a7c:	d550      	bpl.n	8003b20 <USBD_StdEPReq+0x104>
 8003a7e:	699b      	ldr	r3, [r3, #24]
 8003a80:	2b00      	cmp	r3, #0
 8003a82:	d0d9      	beq.n	8003a38 <USBD_StdEPReq+0x1c>
 8003a84:	237f      	movs	r3, #127	@ 0x7f
 8003a86:	400b      	ands	r3, r1
 8003a88:	3301      	adds	r3, #1
 8003a8a:	435d      	muls	r5, r3
 8003a8c:	1965      	adds	r5, r4, r5
 8003a8e:	2980      	cmp	r1, #128	@ 0x80
 8003a90:	d051      	beq.n	8003b36 <USBD_StdEPReq+0x11a>
 8003a92:	0020      	movs	r0, r4
 8003a94:	f000 fabc 	bl	8004010 <USBD_LL_IsStallEP>
 8003a98:	2800      	cmp	r0, #0
 8003a9a:	d051      	beq.n	8003b40 <USBD_StdEPReq+0x124>
 8003a9c:	2301      	movs	r3, #1
 8003a9e:	e04b      	b.n	8003b38 <USBD_StdEPReq+0x11c>
 8003aa0:	22a7      	movs	r2, #167	@ 0xa7
 8003aa2:	0092      	lsls	r2, r2, #2
 8003aa4:	5ca2      	ldrb	r2, [r4, r2]
 8003aa6:	2a02      	cmp	r2, #2
 8003aa8:	d020      	beq.n	8003aec <USBD_StdEPReq+0xd0>
 8003aaa:	2a03      	cmp	r2, #3
 8003aac:	d1c4      	bne.n	8003a38 <USBD_StdEPReq+0x1c>
 8003aae:	885a      	ldrh	r2, [r3, #2]
 8003ab0:	2a00      	cmp	r2, #0
 8003ab2:	d107      	bne.n	8003ac4 <USBD_StdEPReq+0xa8>
 8003ab4:	064a      	lsls	r2, r1, #25
 8003ab6:	d005      	beq.n	8003ac4 <USBD_StdEPReq+0xa8>
 8003ab8:	88db      	ldrh	r3, [r3, #6]
 8003aba:	2b00      	cmp	r3, #0
 8003abc:	d102      	bne.n	8003ac4 <USBD_StdEPReq+0xa8>
 8003abe:	0020      	movs	r0, r4
 8003ac0:	f000 fa94 	bl	8003fec <USBD_LL_StallEP>
 8003ac4:	0020      	movs	r0, r4
 8003ac6:	f000 f8a6 	bl	8003c16 <USBD_CtlSendStatus>
 8003aca:	e7c0      	b.n	8003a4e <USBD_StdEPReq+0x32>
 8003acc:	22a7      	movs	r2, #167	@ 0xa7
 8003ace:	0092      	lsls	r2, r2, #2
 8003ad0:	5ca2      	ldrb	r2, [r4, r2]
 8003ad2:	2a02      	cmp	r2, #2
 8003ad4:	d00a      	beq.n	8003aec <USBD_StdEPReq+0xd0>
 8003ad6:	2a03      	cmp	r2, #3
 8003ad8:	d1ae      	bne.n	8003a38 <USBD_StdEPReq+0x1c>
 8003ada:	885b      	ldrh	r3, [r3, #2]
 8003adc:	2b00      	cmp	r3, #0
 8003ade:	d1b6      	bne.n	8003a4e <USBD_StdEPReq+0x32>
 8003ae0:	064b      	lsls	r3, r1, #25
 8003ae2:	d0ef      	beq.n	8003ac4 <USBD_StdEPReq+0xa8>
 8003ae4:	0020      	movs	r0, r4
 8003ae6:	f000 fa8a 	bl	8003ffe <USBD_LL_ClearStallEP>
 8003aea:	e7eb      	b.n	8003ac4 <USBD_StdEPReq+0xa8>
 8003aec:	064b      	lsls	r3, r1, #25
 8003aee:	d0a3      	beq.n	8003a38 <USBD_StdEPReq+0x1c>
 8003af0:	0020      	movs	r0, r4
 8003af2:	f000 fa7b 	bl	8003fec <USBD_LL_StallEP>
 8003af6:	2180      	movs	r1, #128	@ 0x80
 8003af8:	0020      	movs	r0, r4
 8003afa:	f000 fa77 	bl	8003fec <USBD_LL_StallEP>
 8003afe:	e7a6      	b.n	8003a4e <USBD_StdEPReq+0x32>
 8003b00:	0649      	lsls	r1, r1, #25
 8003b02:	d199      	bne.n	8003a38 <USBD_StdEPReq+0x1c>
 8003b04:	0021      	movs	r1, r4
 8003b06:	3155      	adds	r1, #85	@ 0x55
 8003b08:	31ff      	adds	r1, #255	@ 0xff
 8003b0a:	0612      	lsls	r2, r2, #24
 8003b0c:	d501      	bpl.n	8003b12 <USBD_StdEPReq+0xf6>
 8003b0e:	3941      	subs	r1, #65	@ 0x41
 8003b10:	39ff      	subs	r1, #255	@ 0xff
 8003b12:	2300      	movs	r3, #0
 8003b14:	2202      	movs	r2, #2
 8003b16:	600b      	str	r3, [r1, #0]
 8003b18:	0020      	movs	r0, r4
 8003b1a:	f000 f84e 	bl	8003bba <USBD_CtlSendData>
 8003b1e:	e796      	b.n	8003a4e <USBD_StdEPReq+0x32>
 8003b20:	33fc      	adds	r3, #252	@ 0xfc
 8003b22:	6ddb      	ldr	r3, [r3, #92]	@ 0x5c
 8003b24:	2b00      	cmp	r3, #0
 8003b26:	d100      	bne.n	8003b2a <USBD_StdEPReq+0x10e>
 8003b28:	e786      	b.n	8003a38 <USBD_StdEPReq+0x1c>
 8003b2a:	434d      	muls	r5, r1
 8003b2c:	3555      	adds	r5, #85	@ 0x55
 8003b2e:	35ff      	adds	r5, #255	@ 0xff
 8003b30:	1965      	adds	r5, r4, r5
 8003b32:	2900      	cmp	r1, #0
 8003b34:	d1ad      	bne.n	8003a92 <USBD_StdEPReq+0x76>
 8003b36:	2300      	movs	r3, #0
 8003b38:	602b      	str	r3, [r5, #0]
 8003b3a:	2202      	movs	r2, #2
 8003b3c:	0029      	movs	r1, r5
 8003b3e:	e7eb      	b.n	8003b18 <USBD_StdEPReq+0xfc>
 8003b40:	6028      	str	r0, [r5, #0]
 8003b42:	e7fa      	b.n	8003b3a <USBD_StdEPReq+0x11e>

08003b44 <USBD_ParseSetupRequest>:
 8003b44:	780b      	ldrb	r3, [r1, #0]
 8003b46:	7003      	strb	r3, [r0, #0]
 8003b48:	784b      	ldrb	r3, [r1, #1]
 8003b4a:	7043      	strb	r3, [r0, #1]
 8003b4c:	78cb      	ldrb	r3, [r1, #3]
 8003b4e:	788a      	ldrb	r2, [r1, #2]
 8003b50:	021b      	lsls	r3, r3, #8
 8003b52:	4313      	orrs	r3, r2
 8003b54:	8043      	strh	r3, [r0, #2]
 8003b56:	794b      	ldrb	r3, [r1, #5]
 8003b58:	790a      	ldrb	r2, [r1, #4]
 8003b5a:	021b      	lsls	r3, r3, #8
 8003b5c:	4313      	orrs	r3, r2
 8003b5e:	8083      	strh	r3, [r0, #4]
 8003b60:	79cb      	ldrb	r3, [r1, #7]
 8003b62:	798a      	ldrb	r2, [r1, #6]
 8003b64:	021b      	lsls	r3, r3, #8
 8003b66:	4313      	orrs	r3, r2
 8003b68:	80c3      	strh	r3, [r0, #6]
 8003b6a:	4770      	bx	lr

08003b6c <USBD_CtlError>:
 8003b6c:	b510      	push	{r4, lr}
 8003b6e:	0004      	movs	r4, r0
 8003b70:	2180      	movs	r1, #128	@ 0x80
 8003b72:	f000 fa3b 	bl	8003fec <USBD_LL_StallEP>
 8003b76:	2100      	movs	r1, #0
 8003b78:	0020      	movs	r0, r4
 8003b7a:	f000 fa37 	bl	8003fec <USBD_LL_StallEP>
 8003b7e:	bd10      	pop	{r4, pc}

08003b80 <USBD_GetString>:
 8003b80:	b570      	push	{r4, r5, r6, lr}
 8003b82:	0004      	movs	r4, r0
 8003b84:	000d      	movs	r5, r1
 8003b86:	0016      	movs	r6, r2
 8003b88:	2800      	cmp	r0, #0
 8003b8a:	d00d      	beq.n	8003ba8 <USBD_GetString+0x28>
 8003b8c:	f7fc fac6 	bl	800011c <strlen>
 8003b90:	b2c3      	uxtb	r3, r0
 8003b92:	3301      	adds	r3, #1
 8003b94:	005b      	lsls	r3, r3, #1
 8003b96:	8033      	strh	r3, [r6, #0]
 8003b98:	702b      	strb	r3, [r5, #0]
 8003b9a:	2303      	movs	r3, #3
 8003b9c:	2000      	movs	r0, #0
 8003b9e:	706b      	strb	r3, [r5, #1]
 8003ba0:	3b01      	subs	r3, #1
 8003ba2:	7821      	ldrb	r1, [r4, #0]
 8003ba4:	2900      	cmp	r1, #0
 8003ba6:	d100      	bne.n	8003baa <USBD_GetString+0x2a>
 8003ba8:	bd70      	pop	{r4, r5, r6, pc}
 8003baa:	1c5a      	adds	r2, r3, #1
 8003bac:	54e9      	strb	r1, [r5, r3]
 8003bae:	b2d2      	uxtb	r2, r2
 8003bb0:	3302      	adds	r3, #2
 8003bb2:	3401      	adds	r4, #1
 8003bb4:	b2db      	uxtb	r3, r3
 8003bb6:	54a8      	strb	r0, [r5, r2]
 8003bb8:	e7f3      	b.n	8003ba2 <USBD_GetString+0x22>

08003bba <USBD_CtlSendData>:
 8003bba:	0013      	movs	r3, r2
 8003bbc:	22a5      	movs	r2, #165	@ 0xa5
 8003bbe:	b510      	push	{r4, lr}
 8003bc0:	2402      	movs	r4, #2
 8003bc2:	0092      	lsls	r2, r2, #2
 8003bc4:	5084      	str	r4, [r0, r2]
 8003bc6:	000a      	movs	r2, r1
 8003bc8:	61c3      	str	r3, [r0, #28]
 8003bca:	2100      	movs	r1, #0
 8003bcc:	6203      	str	r3, [r0, #32]
 8003bce:	f000 fa3b 	bl	8004048 <USBD_LL_Transmit>
 8003bd2:	2000      	movs	r0, #0
 8003bd4:	bd10      	pop	{r4, pc}

08003bd6 <USBD_CtlContinueSendData>:
 8003bd6:	b510      	push	{r4, lr}
 8003bd8:	0013      	movs	r3, r2
 8003bda:	000a      	movs	r2, r1
 8003bdc:	2100      	movs	r1, #0
 8003bde:	f000 fa33 	bl	8004048 <USBD_LL_Transmit>
 8003be2:	2000      	movs	r0, #0
 8003be4:	bd10      	pop	{r4, pc}

08003be6 <USBD_CtlPrepareRx>:
 8003be6:	0013      	movs	r3, r2
 8003be8:	22a5      	movs	r2, #165	@ 0xa5
 8003bea:	b510      	push	{r4, lr}
 8003bec:	2403      	movs	r4, #3
 8003bee:	0092      	lsls	r2, r2, #2
 8003bf0:	5084      	str	r4, [r0, r2]
 8003bf2:	0002      	movs	r2, r0
 8003bf4:	32fc      	adds	r2, #252	@ 0xfc
 8003bf6:	6613      	str	r3, [r2, #96]	@ 0x60
 8003bf8:	6653      	str	r3, [r2, #100]	@ 0x64
 8003bfa:	000a      	movs	r2, r1
 8003bfc:	2100      	movs	r1, #0
 8003bfe:	f000 fa2c 	bl	800405a <USBD_LL_PrepareReceive>
 8003c02:	2000      	movs	r0, #0
 8003c04:	bd10      	pop	{r4, pc}

08003c06 <USBD_CtlContinueRx>:
 8003c06:	b510      	push	{r4, lr}
 8003c08:	0013      	movs	r3, r2
 8003c0a:	000a      	movs	r2, r1
 8003c0c:	2100      	movs	r1, #0
 8003c0e:	f000 fa24 	bl	800405a <USBD_LL_PrepareReceive>
 8003c12:	2000      	movs	r0, #0
 8003c14:	bd10      	pop	{r4, pc}

08003c16 <USBD_CtlSendStatus>:
 8003c16:	23a5      	movs	r3, #165	@ 0xa5
 8003c18:	2204      	movs	r2, #4
 8003c1a:	009b      	lsls	r3, r3, #2
 8003c1c:	b510      	push	{r4, lr}
 8003c1e:	50c2      	str	r2, [r0, r3]
 8003c20:	2300      	movs	r3, #0
 8003c22:	001a      	movs	r2, r3
 8003c24:	0019      	movs	r1, r3
 8003c26:	f000 fa0f 	bl	8004048 <USBD_LL_Transmit>
 8003c2a:	2000      	movs	r0, #0
 8003c2c:	bd10      	pop	{r4, pc}

08003c2e <USBD_CtlReceiveStatus>:
 8003c2e:	23a5      	movs	r3, #165	@ 0xa5
 8003c30:	2205      	movs	r2, #5
 8003c32:	009b      	lsls	r3, r3, #2
 8003c34:	b510      	push	{r4, lr}
 8003c36:	50c2      	str	r2, [r0, r3]
 8003c38:	2300      	movs	r3, #0
 8003c3a:	001a      	movs	r2, r3
 8003c3c:	0019      	movs	r1, r3
 8003c3e:	f000 fa0c 	bl	800405a <USBD_LL_PrepareReceive>
 8003c42:	2000      	movs	r0, #0
 8003c44:	bd10      	pop	{r4, pc}
	...

08003c48 <MX_USB_DEVICE_Init>:
 8003c48:	b510      	push	{r4, lr}
 8003c4a:	4c11      	ldr	r4, [pc, #68]	@ (8003c90 <MX_USB_DEVICE_Init+0x48>)
 8003c4c:	2200      	movs	r2, #0
 8003c4e:	0020      	movs	r0, r4
 8003c50:	4910      	ldr	r1, [pc, #64]	@ (8003c94 <MX_USB_DEVICE_Init+0x4c>)
 8003c52:	f7ff fc04 	bl	800345e <USBD_Init>
 8003c56:	2800      	cmp	r0, #0
 8003c58:	d001      	beq.n	8003c5e <MX_USB_DEVICE_Init+0x16>
 8003c5a:	f7fc feb7 	bl	80009cc <Error_Handler>
 8003c5e:	0020      	movs	r0, r4
 8003c60:	490d      	ldr	r1, [pc, #52]	@ (8003c98 <MX_USB_DEVICE_Init+0x50>)
 8003c62:	f7ff fc16 	bl	8003492 <USBD_RegisterClass>
 8003c66:	2800      	cmp	r0, #0
 8003c68:	d001      	beq.n	8003c6e <MX_USB_DEVICE_Init+0x26>
 8003c6a:	f7fc feaf 	bl	80009cc <Error_Handler>
 8003c6e:	0020      	movs	r0, r4
 8003c70:	490a      	ldr	r1, [pc, #40]	@ (8003c9c <MX_USB_DEVICE_Init+0x54>)
 8003c72:	f7ff fbeb 	bl	800344c <USBD_CUSTOM_HID_RegisterInterface>
 8003c76:	2800      	cmp	r0, #0
 8003c78:	d001      	beq.n	8003c7e <MX_USB_DEVICE_Init+0x36>
 8003c7a:	f7fc fea7 	bl	80009cc <Error_Handler>
 8003c7e:	0020      	movs	r0, r4
 8003c80:	f7ff fc10 	bl	80034a4 <USBD_Start>
 8003c84:	2800      	cmp	r0, #0
 8003c86:	d001      	beq.n	8003c8c <MX_USB_DEVICE_Init+0x44>
 8003c88:	f7fc fea0 	bl	80009cc <Error_Handler>
 8003c8c:	bd10      	pop	{r4, pc}
 8003c8e:	46c0      	nop			@ (mov r8, r8)
 8003c90:	200002f4 	.word	0x200002f4
 8003c94:	200001c8 	.word	0x200001c8
 8003c98:	20000128 	.word	0x20000128
 8003c9c:	20000160 	.word	0x20000160

08003ca0 <CUSTOM_HID_Init_FS>:
 8003ca0:	2000      	movs	r0, #0
 8003ca2:	4770      	bx	lr

08003ca4 <CUSTOM_HID_OutEvent_FS>:
 8003ca4:	22ae      	movs	r2, #174	@ 0xae
 8003ca6:	4b06      	ldr	r3, [pc, #24]	@ (8003cc0 <CUSTOM_HID_OutEvent_FS+0x1c>)
 8003ca8:	0092      	lsls	r2, r2, #2
 8003caa:	5899      	ldr	r1, [r3, r2]
 8003cac:	b510      	push	{r4, lr}
 8003cae:	2240      	movs	r2, #64	@ 0x40
 8003cb0:	4804      	ldr	r0, [pc, #16]	@ (8003cc4 <CUSTOM_HID_OutEvent_FS+0x20>)
 8003cb2:	f000 fa9d 	bl	80041f0 <memcpy>
 8003cb6:	2201      	movs	r2, #1
 8003cb8:	4b03      	ldr	r3, [pc, #12]	@ (8003cc8 <CUSTOM_HID_OutEvent_FS+0x24>)
 8003cba:	2000      	movs	r0, #0
 8003cbc:	701a      	strb	r2, [r3, #0]
 8003cbe:	bd10      	pop	{r4, pc}
 8003cc0:	200002f4 	.word	0x200002f4
 8003cc4:	200005f9 	.word	0x200005f9
 8003cc8:	200005b8 	.word	0x200005b8

08003ccc <CUSTOM_HID_DeInit_FS>:
 8003ccc:	2000      	movs	r0, #0
 8003cce:	4770      	bx	lr

08003cd0 <HID_SendData>:
 8003cd0:	b570      	push	{r4, r5, r6, lr}
 8003cd2:	000d      	movs	r5, r1
 8003cd4:	1c0c      	adds	r4, r1, #0
 8003cd6:	2940      	cmp	r1, #64	@ 0x40
 8003cd8:	d900      	bls.n	8003cdc <HID_SendData+0xc>
 8003cda:	2440      	movs	r4, #64	@ 0x40
 8003cdc:	4e0a      	ldr	r6, [pc, #40]	@ (8003d08 <HID_SendData+0x38>)
 8003cde:	b2a4      	uxth	r4, r4
 8003ce0:	0001      	movs	r1, r0
 8003ce2:	0022      	movs	r2, r4
 8003ce4:	0030      	movs	r0, r6
 8003ce6:	f000 fa83 	bl	80041f0 <memcpy>
 8003cea:	2d3f      	cmp	r5, #63	@ 0x3f
 8003cec:	d805      	bhi.n	8003cfa <HID_SendData+0x2a>
 8003cee:	2240      	movs	r2, #64	@ 0x40
 8003cf0:	2100      	movs	r1, #0
 8003cf2:	1b12      	subs	r2, r2, r4
 8003cf4:	19a0      	adds	r0, r4, r6
 8003cf6:	f000 fa21 	bl	800413c <memset>
 8003cfa:	0031      	movs	r1, r6
 8003cfc:	2240      	movs	r2, #64	@ 0x40
 8003cfe:	4803      	ldr	r0, [pc, #12]	@ (8003d0c <HID_SendData+0x3c>)
 8003d00:	f7ff fb8b 	bl	800341a <USBD_CUSTOM_HID_SendReport>
 8003d04:	bd70      	pop	{r4, r5, r6, pc}
 8003d06:	46c0      	nop			@ (mov r8, r8)
 8003d08:	200005b9 	.word	0x200005b9
 8003d0c:	200002f4 	.word	0x200002f4

08003d10 <HID_ReceiveData>:
 8003d10:	b570      	push	{r4, r5, r6, lr}
 8003d12:	4d08      	ldr	r5, [pc, #32]	@ (8003d34 <HID_ReceiveData+0x24>)
 8003d14:	000c      	movs	r4, r1
 8003d16:	782a      	ldrb	r2, [r5, #0]
 8003d18:	b2d3      	uxtb	r3, r2
 8003d1a:	2a00      	cmp	r2, #0
 8003d1c:	d008      	beq.n	8003d30 <HID_ReceiveData+0x20>
 8003d1e:	2640      	movs	r6, #64	@ 0x40
 8003d20:	4905      	ldr	r1, [pc, #20]	@ (8003d38 <HID_ReceiveData+0x28>)
 8003d22:	0032      	movs	r2, r6
 8003d24:	f000 fa64 	bl	80041f0 <memcpy>
 8003d28:	2300      	movs	r3, #0
 8003d2a:	8026      	strh	r6, [r4, #0]
 8003d2c:	702b      	strb	r3, [r5, #0]
 8003d2e:	3301      	adds	r3, #1
 8003d30:	0018      	movs	r0, r3
 8003d32:	bd70      	pop	{r4, r5, r6, pc}
 8003d34:	200005b8 	.word	0x200005b8
 8003d38:	200005f9 	.word	0x200005f9

08003d3c <HID_IsDataReceived>:
 8003d3c:	4b01      	ldr	r3, [pc, #4]	@ (8003d44 <HID_IsDataReceived+0x8>)
 8003d3e:	7818      	ldrb	r0, [r3, #0]
 8003d40:	b2c0      	uxtb	r0, r0
 8003d42:	4770      	bx	lr
 8003d44:	200005b8 	.word	0x200005b8

08003d48 <USBD_FS_DeviceDescriptor>:
 8003d48:	2312      	movs	r3, #18
 8003d4a:	4801      	ldr	r0, [pc, #4]	@ (8003d50 <USBD_FS_DeviceDescriptor+0x8>)
 8003d4c:	800b      	strh	r3, [r1, #0]
 8003d4e:	4770      	bx	lr
 8003d50:	200001b4 	.word	0x200001b4

08003d54 <USBD_FS_LangIDStrDescriptor>:
 8003d54:	2304      	movs	r3, #4
 8003d56:	4801      	ldr	r0, [pc, #4]	@ (8003d5c <USBD_FS_LangIDStrDescriptor+0x8>)
 8003d58:	800b      	strh	r3, [r1, #0]
 8003d5a:	4770      	bx	lr
 8003d5c:	200001b0 	.word	0x200001b0

08003d60 <IntToUnicode>:
 8003d60:	b570      	push	{r4, r5, r6, lr}
 8003d62:	2600      	movs	r6, #0
 8003d64:	0052      	lsls	r2, r2, #1
 8003d66:	188a      	adds	r2, r1, r2
 8003d68:	0f05      	lsrs	r5, r0, #28
 8003d6a:	b2ec      	uxtb	r4, r5
 8003d6c:	0023      	movs	r3, r4
 8003d6e:	3337      	adds	r3, #55	@ 0x37
 8003d70:	2d09      	cmp	r5, #9
 8003d72:	d800      	bhi.n	8003d76 <IntToUnicode+0x16>
 8003d74:	3b07      	subs	r3, #7
 8003d76:	700b      	strb	r3, [r1, #0]
 8003d78:	704e      	strb	r6, [r1, #1]
 8003d7a:	3102      	adds	r1, #2
 8003d7c:	0100      	lsls	r0, r0, #4
 8003d7e:	428a      	cmp	r2, r1
 8003d80:	d1f2      	bne.n	8003d68 <IntToUnicode+0x8>
 8003d82:	bd70      	pop	{r4, r5, r6, pc}

08003d84 <USBD_FS_SerialStrDescriptor>:
 8003d84:	231a      	movs	r3, #26
 8003d86:	b510      	push	{r4, lr}
 8003d88:	800b      	strh	r3, [r1, #0]
 8003d8a:	4b0a      	ldr	r3, [pc, #40]	@ (8003db4 <USBD_FS_SerialStrDescriptor+0x30>)
 8003d8c:	6818      	ldr	r0, [r3, #0]
 8003d8e:	4b0a      	ldr	r3, [pc, #40]	@ (8003db8 <USBD_FS_SerialStrDescriptor+0x34>)
 8003d90:	681b      	ldr	r3, [r3, #0]
 8003d92:	18c0      	adds	r0, r0, r3
 8003d94:	2800      	cmp	r0, #0
 8003d96:	d00a      	beq.n	8003dae <USBD_FS_SerialStrDescriptor+0x2a>
 8003d98:	4b08      	ldr	r3, [pc, #32]	@ (8003dbc <USBD_FS_SerialStrDescriptor+0x38>)
 8003d9a:	2208      	movs	r2, #8
 8003d9c:	681c      	ldr	r4, [r3, #0]
 8003d9e:	4908      	ldr	r1, [pc, #32]	@ (8003dc0 <USBD_FS_SerialStrDescriptor+0x3c>)
 8003da0:	f7ff ffde 	bl	8003d60 <IntToUnicode>
 8003da4:	2204      	movs	r2, #4
 8003da6:	0020      	movs	r0, r4
 8003da8:	4906      	ldr	r1, [pc, #24]	@ (8003dc4 <USBD_FS_SerialStrDescriptor+0x40>)
 8003daa:	f7ff ffd9 	bl	8003d60 <IntToUnicode>
 8003dae:	4806      	ldr	r0, [pc, #24]	@ (8003dc8 <USBD_FS_SerialStrDescriptor+0x44>)
 8003db0:	bd10      	pop	{r4, pc}
 8003db2:	46c0      	nop			@ (mov r8, r8)
 8003db4:	1ffff7ac 	.word	0x1ffff7ac
 8003db8:	1ffff7b4 	.word	0x1ffff7b4
 8003dbc:	1ffff7b0 	.word	0x1ffff7b0
 8003dc0:	20000196 	.word	0x20000196
 8003dc4:	200001a6 	.word	0x200001a6
 8003dc8:	20000194 	.word	0x20000194

08003dcc <USBD_FS_ManufacturerStrDescriptor>:
 8003dcc:	b510      	push	{r4, lr}
 8003dce:	4c04      	ldr	r4, [pc, #16]	@ (8003de0 <USBD_FS_ManufacturerStrDescriptor+0x14>)
 8003dd0:	000a      	movs	r2, r1
 8003dd2:	0021      	movs	r1, r4
 8003dd4:	4803      	ldr	r0, [pc, #12]	@ (8003de4 <USBD_FS_ManufacturerStrDescriptor+0x18>)
 8003dd6:	f7ff fed3 	bl	8003b80 <USBD_GetString>
 8003dda:	0020      	movs	r0, r4
 8003ddc:	bd10      	pop	{r4, pc}
 8003dde:	46c0      	nop			@ (mov r8, r8)
 8003de0:	2000063c 	.word	0x2000063c
 8003de4:	080054a5 	.word	0x080054a5

08003de8 <USBD_FS_ProductStrDescriptor>:
 8003de8:	b510      	push	{r4, lr}
 8003dea:	4c04      	ldr	r4, [pc, #16]	@ (8003dfc <USBD_FS_ProductStrDescriptor+0x14>)
 8003dec:	000a      	movs	r2, r1
 8003dee:	0021      	movs	r1, r4
 8003df0:	4803      	ldr	r0, [pc, #12]	@ (8003e00 <USBD_FS_ProductStrDescriptor+0x18>)
 8003df2:	f7ff fec5 	bl	8003b80 <USBD_GetString>
 8003df6:	0020      	movs	r0, r4
 8003df8:	bd10      	pop	{r4, pc}
 8003dfa:	46c0      	nop			@ (mov r8, r8)
 8003dfc:	2000063c 	.word	0x2000063c
 8003e00:	080054b8 	.word	0x080054b8

08003e04 <USBD_FS_ConfigStrDescriptor>:
 8003e04:	b510      	push	{r4, lr}
 8003e06:	4c04      	ldr	r4, [pc, #16]	@ (8003e18 <USBD_FS_ConfigStrDescriptor+0x14>)
 8003e08:	000a      	movs	r2, r1
 8003e0a:	0021      	movs	r1, r4
 8003e0c:	4803      	ldr	r0, [pc, #12]	@ (8003e1c <USBD_FS_ConfigStrDescriptor+0x18>)
 8003e0e:	f7ff feb7 	bl	8003b80 <USBD_GetString>
 8003e12:	0020      	movs	r0, r4
 8003e14:	bd10      	pop	{r4, pc}
 8003e16:	46c0      	nop			@ (mov r8, r8)
 8003e18:	2000063c 	.word	0x2000063c
 8003e1c:	080054d5 	.word	0x080054d5

08003e20 <USBD_FS_InterfaceStrDescriptor>:
 8003e20:	b510      	push	{r4, lr}
 8003e22:	4c04      	ldr	r4, [pc, #16]	@ (8003e34 <USBD_FS_InterfaceStrDescriptor+0x14>)
 8003e24:	000a      	movs	r2, r1
 8003e26:	0021      	movs	r1, r4
 8003e28:	4803      	ldr	r0, [pc, #12]	@ (8003e38 <USBD_FS_InterfaceStrDescriptor+0x18>)
 8003e2a:	f7ff fea9 	bl	8003b80 <USBD_GetString>
 8003e2e:	0020      	movs	r0, r4
 8003e30:	bd10      	pop	{r4, pc}
 8003e32:	46c0      	nop			@ (mov r8, r8)
 8003e34:	2000063c 	.word	0x2000063c
 8003e38:	080054e7 	.word	0x080054e7

08003e3c <USBD_Get_USB_Status>:
 8003e3c:	2800      	cmp	r0, #0
 8003e3e:	d003      	beq.n	8003e48 <USBD_Get_USB_Status+0xc>
 8003e40:	3802      	subs	r0, #2
 8003e42:	1e43      	subs	r3, r0, #1
 8003e44:	4198      	sbcs	r0, r3
 8003e46:	3001      	adds	r0, #1
 8003e48:	4770      	bx	lr
	...

08003e4c <HAL_PCD_MspInit>:
 8003e4c:	b507      	push	{r0, r1, r2, lr}
 8003e4e:	4b0b      	ldr	r3, [pc, #44]	@ (8003e7c <HAL_PCD_MspInit+0x30>)
 8003e50:	6802      	ldr	r2, [r0, #0]
 8003e52:	429a      	cmp	r2, r3
 8003e54:	d111      	bne.n	8003e7a <HAL_PCD_MspInit+0x2e>
 8003e56:	2180      	movs	r1, #128	@ 0x80
 8003e58:	4b09      	ldr	r3, [pc, #36]	@ (8003e80 <HAL_PCD_MspInit+0x34>)
 8003e5a:	0409      	lsls	r1, r1, #16
 8003e5c:	69da      	ldr	r2, [r3, #28]
 8003e5e:	201f      	movs	r0, #31
 8003e60:	430a      	orrs	r2, r1
 8003e62:	61da      	str	r2, [r3, #28]
 8003e64:	2200      	movs	r2, #0
 8003e66:	69db      	ldr	r3, [r3, #28]
 8003e68:	400b      	ands	r3, r1
 8003e6a:	9301      	str	r3, [sp, #4]
 8003e6c:	0011      	movs	r1, r2
 8003e6e:	9b01      	ldr	r3, [sp, #4]
 8003e70:	f7fc fecc 	bl	8000c0c <HAL_NVIC_SetPriority>
 8003e74:	201f      	movs	r0, #31
 8003e76:	f7fc fef3 	bl	8000c60 <HAL_NVIC_EnableIRQ>
 8003e7a:	bd07      	pop	{r0, r1, r2, pc}
 8003e7c:	40005c00 	.word	0x40005c00
 8003e80:	40021000 	.word	0x40021000

08003e84 <HAL_PCD_SetupStageCallback>:
 8003e84:	23a6      	movs	r3, #166	@ 0xa6
 8003e86:	b510      	push	{r4, lr}
 8003e88:	009b      	lsls	r3, r3, #2
 8003e8a:	18c1      	adds	r1, r0, r3
 8003e8c:	3340      	adds	r3, #64	@ 0x40
 8003e8e:	58c0      	ldr	r0, [r0, r3]
 8003e90:	f7ff fb24 	bl	80034dc <USBD_LL_SetupStage>
 8003e94:	bd10      	pop	{r4, pc}

08003e96 <HAL_PCD_DataOutStageCallback>:
 8003e96:	2328      	movs	r3, #40	@ 0x28
 8003e98:	434b      	muls	r3, r1
 8003e9a:	18c3      	adds	r3, r0, r3
 8003e9c:	33fc      	adds	r3, #252	@ 0xfc
 8003e9e:	6e9a      	ldr	r2, [r3, #104]	@ 0x68
 8003ea0:	23b6      	movs	r3, #182	@ 0xb6
 8003ea2:	b510      	push	{r4, lr}
 8003ea4:	009b      	lsls	r3, r3, #2
 8003ea6:	58c0      	ldr	r0, [r0, r3]
 8003ea8:	f7ff fb4a 	bl	8003540 <USBD_LL_DataOutStage>
 8003eac:	bd10      	pop	{r4, pc}

08003eae <HAL_PCD_DataInStageCallback>:
 8003eae:	2328      	movs	r3, #40	@ 0x28
 8003eb0:	434b      	muls	r3, r1
 8003eb2:	18c3      	adds	r3, r0, r3
 8003eb4:	6a5a      	ldr	r2, [r3, #36]	@ 0x24
 8003eb6:	23b6      	movs	r3, #182	@ 0xb6
 8003eb8:	b510      	push	{r4, lr}
 8003eba:	009b      	lsls	r3, r3, #2
 8003ebc:	58c0      	ldr	r0, [r0, r3]
 8003ebe:	f7ff fb82 	bl	80035c6 <USBD_LL_DataInStage>
 8003ec2:	bd10      	pop	{r4, pc}

08003ec4 <HAL_PCD_SOFCallback>:
 8003ec4:	23b6      	movs	r3, #182	@ 0xb6
 8003ec6:	b510      	push	{r4, lr}
 8003ec8:	009b      	lsls	r3, r3, #2
 8003eca:	58c0      	ldr	r0, [r0, r3]
 8003ecc:	f7ff fc24 	bl	8003718 <USBD_LL_SOF>
 8003ed0:	bd10      	pop	{r4, pc}

08003ed2 <HAL_PCD_ResetCallback>:
 8003ed2:	b570      	push	{r4, r5, r6, lr}
 8003ed4:	7943      	ldrb	r3, [r0, #5]
 8003ed6:	0004      	movs	r4, r0
 8003ed8:	2b02      	cmp	r3, #2
 8003eda:	d001      	beq.n	8003ee0 <HAL_PCD_ResetCallback+0xe>
 8003edc:	f7fc fd76 	bl	80009cc <Error_Handler>
 8003ee0:	25b6      	movs	r5, #182	@ 0xb6
 8003ee2:	00ad      	lsls	r5, r5, #2
 8003ee4:	2101      	movs	r1, #1
 8003ee6:	5960      	ldr	r0, [r4, r5]
 8003ee8:	f7ff fbfb 	bl	80036e2 <USBD_LL_SetSpeed>
 8003eec:	5960      	ldr	r0, [r4, r5]
 8003eee:	f7ff fbce 	bl	800368e <USBD_LL_Reset>
 8003ef2:	bd70      	pop	{r4, r5, r6, pc}

08003ef4 <HAL_PCD_SuspendCallback>:
 8003ef4:	23b6      	movs	r3, #182	@ 0xb6
 8003ef6:	b510      	push	{r4, lr}
 8003ef8:	0004      	movs	r4, r0
 8003efa:	009b      	lsls	r3, r3, #2
 8003efc:	58c0      	ldr	r0, [r0, r3]
 8003efe:	f7ff fbf3 	bl	80036e8 <USBD_LL_Suspend>
 8003f02:	7a63      	ldrb	r3, [r4, #9]
 8003f04:	2b00      	cmp	r3, #0
 8003f06:	d004      	beq.n	8003f12 <HAL_PCD_SuspendCallback+0x1e>
 8003f08:	2306      	movs	r3, #6
 8003f0a:	4a02      	ldr	r2, [pc, #8]	@ (8003f14 <HAL_PCD_SuspendCallback+0x20>)
 8003f0c:	6911      	ldr	r1, [r2, #16]
 8003f0e:	430b      	orrs	r3, r1
 8003f10:	6113      	str	r3, [r2, #16]
 8003f12:	bd10      	pop	{r4, pc}
 8003f14:	e000ed00 	.word	0xe000ed00

08003f18 <HAL_PCD_ResumeCallback>:
 8003f18:	b510      	push	{r4, lr}
 8003f1a:	7a43      	ldrb	r3, [r0, #9]
 8003f1c:	0004      	movs	r4, r0
 8003f1e:	2b00      	cmp	r3, #0
 8003f20:	d006      	beq.n	8003f30 <HAL_PCD_ResumeCallback+0x18>
 8003f22:	2106      	movs	r1, #6
 8003f24:	4a05      	ldr	r2, [pc, #20]	@ (8003f3c <HAL_PCD_ResumeCallback+0x24>)
 8003f26:	6913      	ldr	r3, [r2, #16]
 8003f28:	438b      	bics	r3, r1
 8003f2a:	6113      	str	r3, [r2, #16]
 8003f2c:	f7fc fb06 	bl	800053c <SystemClock_Config>
 8003f30:	23b6      	movs	r3, #182	@ 0xb6
 8003f32:	009b      	lsls	r3, r3, #2
 8003f34:	58e0      	ldr	r0, [r4, r3]
 8003f36:	f7ff fbe3 	bl	8003700 <USBD_LL_Resume>
 8003f3a:	bd10      	pop	{r4, pc}
 8003f3c:	e000ed00 	.word	0xe000ed00

08003f40 <USBD_LL_Init>:
 8003f40:	23b6      	movs	r3, #182	@ 0xb6
 8003f42:	b570      	push	{r4, r5, r6, lr}
 8003f44:	0004      	movs	r4, r0
 8003f46:	4818      	ldr	r0, [pc, #96]	@ (8003fa8 <USBD_LL_Init+0x68>)
 8003f48:	009b      	lsls	r3, r3, #2
 8003f4a:	50c4      	str	r4, [r0, r3]
 8003f4c:	4b17      	ldr	r3, [pc, #92]	@ (8003fac <USBD_LL_Init+0x6c>)
 8003f4e:	25b0      	movs	r5, #176	@ 0xb0
 8003f50:	6003      	str	r3, [r0, #0]
 8003f52:	2382      	movs	r3, #130	@ 0x82
 8003f54:	009b      	lsls	r3, r3, #2
 8003f56:	8083      	strh	r3, [r0, #4]
 8003f58:	2302      	movs	r3, #2
 8003f5a:	71c3      	strb	r3, [r0, #7]
 8003f5c:	2300      	movs	r3, #0
 8003f5e:	00ad      	lsls	r5, r5, #2
 8003f60:	5160      	str	r0, [r4, r5]
 8003f62:	7243      	strb	r3, [r0, #9]
 8003f64:	8143      	strh	r3, [r0, #10]
 8003f66:	f7fc ff5f 	bl	8000e28 <HAL_PCD_Init>
 8003f6a:	2800      	cmp	r0, #0
 8003f6c:	d001      	beq.n	8003f72 <USBD_LL_Init+0x32>
 8003f6e:	f7fc fd2d 	bl	80009cc <Error_Handler>
 8003f72:	2200      	movs	r2, #0
 8003f74:	5960      	ldr	r0, [r4, r5]
 8003f76:	0011      	movs	r1, r2
 8003f78:	2318      	movs	r3, #24
 8003f7a:	f7fd fd8c 	bl	8001a96 <HAL_PCDEx_PMAConfig>
 8003f7e:	5960      	ldr	r0, [r4, r5]
 8003f80:	2358      	movs	r3, #88	@ 0x58
 8003f82:	2200      	movs	r2, #0
 8003f84:	2180      	movs	r1, #128	@ 0x80
 8003f86:	f7fd fd86 	bl	8001a96 <HAL_PCDEx_PMAConfig>
 8003f8a:	5960      	ldr	r0, [r4, r5]
 8003f8c:	2398      	movs	r3, #152	@ 0x98
 8003f8e:	2200      	movs	r2, #0
 8003f90:	2181      	movs	r1, #129	@ 0x81
 8003f92:	f7fd fd80 	bl	8001a96 <HAL_PCDEx_PMAConfig>
 8003f96:	5960      	ldr	r0, [r4, r5]
 8003f98:	23d8      	movs	r3, #216	@ 0xd8
 8003f9a:	2200      	movs	r2, #0
 8003f9c:	2101      	movs	r1, #1
 8003f9e:	f7fd fd7a 	bl	8001a96 <HAL_PCDEx_PMAConfig>
 8003fa2:	2000      	movs	r0, #0
 8003fa4:	bd70      	pop	{r4, r5, r6, pc}
 8003fa6:	46c0      	nop			@ (mov r8, r8)
 8003fa8:	20000894 	.word	0x20000894
 8003fac:	40005c00 	.word	0x40005c00

08003fb0 <USBD_LL_Start>:
 8003fb0:	23b0      	movs	r3, #176	@ 0xb0
 8003fb2:	b510      	push	{r4, lr}
 8003fb4:	009b      	lsls	r3, r3, #2
 8003fb6:	58c0      	ldr	r0, [r0, r3]
 8003fb8:	f7fc ff82 	bl	8000ec0 <HAL_PCD_Start>
 8003fbc:	f7ff ff3e 	bl	8003e3c <USBD_Get_USB_Status>
 8003fc0:	bd10      	pop	{r4, pc}

08003fc2 <USBD_LL_OpenEP>:
 8003fc2:	b510      	push	{r4, lr}
 8003fc4:	0014      	movs	r4, r2
 8003fc6:	001a      	movs	r2, r3
 8003fc8:	0023      	movs	r3, r4
 8003fca:	24b0      	movs	r4, #176	@ 0xb0
 8003fcc:	00a4      	lsls	r4, r4, #2
 8003fce:	5900      	ldr	r0, [r0, r4]
 8003fd0:	f7fd fc80 	bl	80018d4 <HAL_PCD_EP_Open>
 8003fd4:	f7ff ff32 	bl	8003e3c <USBD_Get_USB_Status>
 8003fd8:	bd10      	pop	{r4, pc}

08003fda <USBD_LL_CloseEP>:
 8003fda:	23b0      	movs	r3, #176	@ 0xb0
 8003fdc:	b510      	push	{r4, lr}
 8003fde:	009b      	lsls	r3, r3, #2
 8003fe0:	58c0      	ldr	r0, [r0, r3]
 8003fe2:	f7fd fca3 	bl	800192c <HAL_PCD_EP_Close>
 8003fe6:	f7ff ff29 	bl	8003e3c <USBD_Get_USB_Status>
 8003fea:	bd10      	pop	{r4, pc}

08003fec <USBD_LL_StallEP>:
 8003fec:	23b0      	movs	r3, #176	@ 0xb0
 8003fee:	b510      	push	{r4, lr}
 8003ff0:	009b      	lsls	r3, r3, #2
 8003ff2:	58c0      	ldr	r0, [r0, r3]
 8003ff4:	f7fd fcf3 	bl	80019de <HAL_PCD_EP_SetStall>
 8003ff8:	f7ff ff20 	bl	8003e3c <USBD_Get_USB_Status>
 8003ffc:	bd10      	pop	{r4, pc}

08003ffe <USBD_LL_ClearStallEP>:
 8003ffe:	23b0      	movs	r3, #176	@ 0xb0
 8004000:	b510      	push	{r4, lr}
 8004002:	009b      	lsls	r3, r3, #2
 8004004:	58c0      	ldr	r0, [r0, r3]
 8004006:	f7fd fd18 	bl	8001a3a <HAL_PCD_EP_ClrStall>
 800400a:	f7ff ff17 	bl	8003e3c <USBD_Get_USB_Status>
 800400e:	bd10      	pop	{r4, pc}

08004010 <USBD_LL_IsStallEP>:
 8004010:	23b0      	movs	r3, #176	@ 0xb0
 8004012:	009b      	lsls	r3, r3, #2
 8004014:	58c3      	ldr	r3, [r0, r3]
 8004016:	b248      	sxtb	r0, r1
 8004018:	2228      	movs	r2, #40	@ 0x28
 800401a:	2800      	cmp	r0, #0
 800401c:	da05      	bge.n	800402a <USBD_LL_IsStallEP+0x1a>
 800401e:	207f      	movs	r0, #127	@ 0x7f
 8004020:	4001      	ands	r1, r0
 8004022:	434a      	muls	r2, r1
 8004024:	189b      	adds	r3, r3, r2
 8004026:	7c98      	ldrb	r0, [r3, #18]
 8004028:	4770      	bx	lr
 800402a:	434a      	muls	r2, r1
 800402c:	189b      	adds	r3, r3, r2
 800402e:	3353      	adds	r3, #83	@ 0x53
 8004030:	33ff      	adds	r3, #255	@ 0xff
 8004032:	7818      	ldrb	r0, [r3, #0]
 8004034:	e7f8      	b.n	8004028 <USBD_LL_IsStallEP+0x18>

08004036 <USBD_LL_SetUSBAddress>:
 8004036:	23b0      	movs	r3, #176	@ 0xb0
 8004038:	b510      	push	{r4, lr}
 800403a:	009b      	lsls	r3, r3, #2
 800403c:	58c0      	ldr	r0, [r0, r3]
 800403e:	f7fc ff52 	bl	8000ee6 <HAL_PCD_SetAddress>
 8004042:	f7ff fefb 	bl	8003e3c <USBD_Get_USB_Status>
 8004046:	bd10      	pop	{r4, pc}

08004048 <USBD_LL_Transmit>:
 8004048:	b510      	push	{r4, lr}
 800404a:	24b0      	movs	r4, #176	@ 0xb0
 800404c:	00a4      	lsls	r4, r4, #2
 800404e:	5900      	ldr	r0, [r0, r4]
 8004050:	f7fd fcad 	bl	80019ae <HAL_PCD_EP_Transmit>
 8004054:	f7ff fef2 	bl	8003e3c <USBD_Get_USB_Status>
 8004058:	bd10      	pop	{r4, pc}

0800405a <USBD_LL_PrepareReceive>:
 800405a:	b510      	push	{r4, lr}
 800405c:	24b0      	movs	r4, #176	@ 0xb0
 800405e:	00a4      	lsls	r4, r4, #2
 8004060:	5900      	ldr	r0, [r0, r4]
 8004062:	f7fd fc89 	bl	8001978 <HAL_PCD_EP_Receive>
 8004066:	f7ff fee9 	bl	8003e3c <USBD_Get_USB_Status>
 800406a:	bd10      	pop	{r4, pc}

0800406c <USBD_static_malloc>:
 800406c:	4800      	ldr	r0, [pc, #0]	@ (8004070 <USBD_static_malloc+0x4>)
 800406e:	4770      	bx	lr
 8004070:	2000083c 	.word	0x2000083c

08004074 <USBD_static_free>:
 8004074:	4770      	bx	lr
	...

08004078 <sniprintf>:
 8004078:	b40c      	push	{r2, r3}
 800407a:	b530      	push	{r4, r5, lr}
 800407c:	4b18      	ldr	r3, [pc, #96]	@ (80040e0 <sniprintf+0x68>)
 800407e:	000c      	movs	r4, r1
 8004080:	681d      	ldr	r5, [r3, #0]
 8004082:	b09d      	sub	sp, #116	@ 0x74
 8004084:	2900      	cmp	r1, #0
 8004086:	da08      	bge.n	800409a <sniprintf+0x22>
 8004088:	238b      	movs	r3, #139	@ 0x8b
 800408a:	2001      	movs	r0, #1
 800408c:	602b      	str	r3, [r5, #0]
 800408e:	4240      	negs	r0, r0
 8004090:	b01d      	add	sp, #116	@ 0x74
 8004092:	bc30      	pop	{r4, r5}
 8004094:	bc08      	pop	{r3}
 8004096:	b002      	add	sp, #8
 8004098:	4718      	bx	r3
 800409a:	2382      	movs	r3, #130	@ 0x82
 800409c:	466a      	mov	r2, sp
 800409e:	009b      	lsls	r3, r3, #2
 80040a0:	8293      	strh	r3, [r2, #20]
 80040a2:	2300      	movs	r3, #0
 80040a4:	9002      	str	r0, [sp, #8]
 80040a6:	931b      	str	r3, [sp, #108]	@ 0x6c
 80040a8:	9006      	str	r0, [sp, #24]
 80040aa:	4299      	cmp	r1, r3
 80040ac:	d000      	beq.n	80040b0 <sniprintf+0x38>
 80040ae:	1e4b      	subs	r3, r1, #1
 80040b0:	9304      	str	r3, [sp, #16]
 80040b2:	9307      	str	r3, [sp, #28]
 80040b4:	2301      	movs	r3, #1
 80040b6:	466a      	mov	r2, sp
 80040b8:	425b      	negs	r3, r3
 80040ba:	82d3      	strh	r3, [r2, #22]
 80040bc:	0028      	movs	r0, r5
 80040be:	ab21      	add	r3, sp, #132	@ 0x84
 80040c0:	9a20      	ldr	r2, [sp, #128]	@ 0x80
 80040c2:	a902      	add	r1, sp, #8
 80040c4:	9301      	str	r3, [sp, #4]
 80040c6:	f000 f9f9 	bl	80044bc <_svfiprintf_r>
 80040ca:	1c43      	adds	r3, r0, #1
 80040cc:	da01      	bge.n	80040d2 <sniprintf+0x5a>
 80040ce:	238b      	movs	r3, #139	@ 0x8b
 80040d0:	602b      	str	r3, [r5, #0]
 80040d2:	2c00      	cmp	r4, #0
 80040d4:	d0dc      	beq.n	8004090 <sniprintf+0x18>
 80040d6:	2200      	movs	r2, #0
 80040d8:	9b02      	ldr	r3, [sp, #8]
 80040da:	701a      	strb	r2, [r3, #0]
 80040dc:	e7d8      	b.n	8004090 <sniprintf+0x18>
 80040de:	46c0      	nop			@ (mov r8, r8)
 80040e0:	200001e4 	.word	0x200001e4

080040e4 <siscanf>:
 80040e4:	b40e      	push	{r1, r2, r3}
 80040e6:	b570      	push	{r4, r5, r6, lr}
 80040e8:	2381      	movs	r3, #129	@ 0x81
 80040ea:	b09d      	sub	sp, #116	@ 0x74
 80040ec:	466a      	mov	r2, sp
 80040ee:	2500      	movs	r5, #0
 80040f0:	ac21      	add	r4, sp, #132	@ 0x84
 80040f2:	009b      	lsls	r3, r3, #2
 80040f4:	cc40      	ldmia	r4!, {r6}
 80040f6:	8293      	strh	r3, [r2, #20]
 80040f8:	951b      	str	r5, [sp, #108]	@ 0x6c
 80040fa:	9002      	str	r0, [sp, #8]
 80040fc:	9006      	str	r0, [sp, #24]
 80040fe:	f7fc f80d 	bl	800011c <strlen>
 8004102:	4b0b      	ldr	r3, [pc, #44]	@ (8004130 <siscanf+0x4c>)
 8004104:	466a      	mov	r2, sp
 8004106:	930b      	str	r3, [sp, #44]	@ 0x2c
 8004108:	2301      	movs	r3, #1
 800410a:	9003      	str	r0, [sp, #12]
 800410c:	9007      	str	r0, [sp, #28]
 800410e:	4809      	ldr	r0, [pc, #36]	@ (8004134 <siscanf+0x50>)
 8004110:	425b      	negs	r3, r3
 8004112:	82d3      	strh	r3, [r2, #22]
 8004114:	a902      	add	r1, sp, #8
 8004116:	0023      	movs	r3, r4
 8004118:	0032      	movs	r2, r6
 800411a:	6800      	ldr	r0, [r0, #0]
 800411c:	950f      	str	r5, [sp, #60]	@ 0x3c
 800411e:	9514      	str	r5, [sp, #80]	@ 0x50
 8004120:	9401      	str	r4, [sp, #4]
 8004122:	f000 fb25 	bl	8004770 <__ssvfiscanf_r>
 8004126:	b01d      	add	sp, #116	@ 0x74
 8004128:	bc70      	pop	{r4, r5, r6}
 800412a:	bc08      	pop	{r3}
 800412c:	b003      	add	sp, #12
 800412e:	4718      	bx	r3
 8004130:	08004139 	.word	0x08004139
 8004134:	200001e4 	.word	0x200001e4

08004138 <__seofread>:
 8004138:	2000      	movs	r0, #0
 800413a:	4770      	bx	lr

0800413c <memset>:
 800413c:	0003      	movs	r3, r0
 800413e:	1882      	adds	r2, r0, r2
 8004140:	4293      	cmp	r3, r2
 8004142:	d100      	bne.n	8004146 <memset+0xa>
 8004144:	4770      	bx	lr
 8004146:	7019      	strb	r1, [r3, #0]
 8004148:	3301      	adds	r3, #1
 800414a:	e7f9      	b.n	8004140 <memset+0x4>

0800414c <strncmp>:
 800414c:	b530      	push	{r4, r5, lr}
 800414e:	0005      	movs	r5, r0
 8004150:	1e10      	subs	r0, r2, #0
 8004152:	d00b      	beq.n	800416c <strncmp+0x20>
 8004154:	2400      	movs	r4, #0
 8004156:	3a01      	subs	r2, #1
 8004158:	5d2b      	ldrb	r3, [r5, r4]
 800415a:	5d08      	ldrb	r0, [r1, r4]
 800415c:	4283      	cmp	r3, r0
 800415e:	d104      	bne.n	800416a <strncmp+0x1e>
 8004160:	4294      	cmp	r4, r2
 8004162:	d002      	beq.n	800416a <strncmp+0x1e>
 8004164:	3401      	adds	r4, #1
 8004166:	2b00      	cmp	r3, #0
 8004168:	d1f6      	bne.n	8004158 <strncmp+0xc>
 800416a:	1a18      	subs	r0, r3, r0
 800416c:	bd30      	pop	{r4, r5, pc}

0800416e <strncpy>:
 800416e:	0003      	movs	r3, r0
 8004170:	b530      	push	{r4, r5, lr}
 8004172:	001d      	movs	r5, r3
 8004174:	2a00      	cmp	r2, #0
 8004176:	d006      	beq.n	8004186 <strncpy+0x18>
 8004178:	780c      	ldrb	r4, [r1, #0]
 800417a:	3a01      	subs	r2, #1
 800417c:	3301      	adds	r3, #1
 800417e:	702c      	strb	r4, [r5, #0]
 8004180:	3101      	adds	r1, #1
 8004182:	2c00      	cmp	r4, #0
 8004184:	d1f5      	bne.n	8004172 <strncpy+0x4>
 8004186:	2100      	movs	r1, #0
 8004188:	189a      	adds	r2, r3, r2
 800418a:	4293      	cmp	r3, r2
 800418c:	d100      	bne.n	8004190 <strncpy+0x22>
 800418e:	bd30      	pop	{r4, r5, pc}
 8004190:	7019      	strb	r1, [r3, #0]
 8004192:	3301      	adds	r3, #1
 8004194:	e7f9      	b.n	800418a <strncpy+0x1c>
	...

08004198 <__errno>:
 8004198:	4b01      	ldr	r3, [pc, #4]	@ (80041a0 <__errno+0x8>)
 800419a:	6818      	ldr	r0, [r3, #0]
 800419c:	4770      	bx	lr
 800419e:	46c0      	nop			@ (mov r8, r8)
 80041a0:	200001e4 	.word	0x200001e4

080041a4 <__libc_init_array>:
 80041a4:	b570      	push	{r4, r5, r6, lr}
 80041a6:	2600      	movs	r6, #0
 80041a8:	4c0c      	ldr	r4, [pc, #48]	@ (80041dc <__libc_init_array+0x38>)
 80041aa:	4d0d      	ldr	r5, [pc, #52]	@ (80041e0 <__libc_init_array+0x3c>)
 80041ac:	1b64      	subs	r4, r4, r5
 80041ae:	10a4      	asrs	r4, r4, #2
 80041b0:	42a6      	cmp	r6, r4
 80041b2:	d109      	bne.n	80041c8 <__libc_init_array+0x24>
 80041b4:	2600      	movs	r6, #0
 80041b6:	f001 f90f 	bl	80053d8 <_init>
 80041ba:	4c0a      	ldr	r4, [pc, #40]	@ (80041e4 <__libc_init_array+0x40>)
 80041bc:	4d0a      	ldr	r5, [pc, #40]	@ (80041e8 <__libc_init_array+0x44>)
 80041be:	1b64      	subs	r4, r4, r5
 80041c0:	10a4      	asrs	r4, r4, #2
 80041c2:	42a6      	cmp	r6, r4
 80041c4:	d105      	bne.n	80041d2 <__libc_init_array+0x2e>
 80041c6:	bd70      	pop	{r4, r5, r6, pc}
 80041c8:	00b3      	lsls	r3, r6, #2
 80041ca:	58eb      	ldr	r3, [r5, r3]
 80041cc:	4798      	blx	r3
 80041ce:	3601      	adds	r6, #1
 80041d0:	e7ee      	b.n	80041b0 <__libc_init_array+0xc>
 80041d2:	00b3      	lsls	r3, r6, #2
 80041d4:	58eb      	ldr	r3, [r5, r3]
 80041d6:	4798      	blx	r3
 80041d8:	3601      	adds	r6, #1
 80041da:	e7f2      	b.n	80041c2 <__libc_init_array+0x1e>
 80041dc:	0800567c 	.word	0x0800567c
 80041e0:	0800567c 	.word	0x0800567c
 80041e4:	08005680 	.word	0x08005680
 80041e8:	0800567c 	.word	0x0800567c

080041ec <__retarget_lock_acquire_recursive>:
 80041ec:	4770      	bx	lr

080041ee <__retarget_lock_release_recursive>:
 80041ee:	4770      	bx	lr

080041f0 <memcpy>:
 80041f0:	2300      	movs	r3, #0
 80041f2:	b510      	push	{r4, lr}
 80041f4:	429a      	cmp	r2, r3
 80041f6:	d100      	bne.n	80041fa <memcpy+0xa>
 80041f8:	bd10      	pop	{r4, pc}
 80041fa:	5ccc      	ldrb	r4, [r1, r3]
 80041fc:	54c4      	strb	r4, [r0, r3]
 80041fe:	3301      	adds	r3, #1
 8004200:	e7f8      	b.n	80041f4 <memcpy+0x4>
	...

08004204 <_free_r>:
 8004204:	b570      	push	{r4, r5, r6, lr}
 8004206:	0005      	movs	r5, r0
 8004208:	1e0c      	subs	r4, r1, #0
 800420a:	d010      	beq.n	800422e <_free_r+0x2a>
 800420c:	3c04      	subs	r4, #4
 800420e:	6823      	ldr	r3, [r4, #0]
 8004210:	2b00      	cmp	r3, #0
 8004212:	da00      	bge.n	8004216 <_free_r+0x12>
 8004214:	18e4      	adds	r4, r4, r3
 8004216:	0028      	movs	r0, r5
 8004218:	f000 f8e0 	bl	80043dc <__malloc_lock>
 800421c:	4a1d      	ldr	r2, [pc, #116]	@ (8004294 <_free_r+0x90>)
 800421e:	6813      	ldr	r3, [r2, #0]
 8004220:	2b00      	cmp	r3, #0
 8004222:	d105      	bne.n	8004230 <_free_r+0x2c>
 8004224:	6063      	str	r3, [r4, #4]
 8004226:	6014      	str	r4, [r2, #0]
 8004228:	0028      	movs	r0, r5
 800422a:	f000 f8df 	bl	80043ec <__malloc_unlock>
 800422e:	bd70      	pop	{r4, r5, r6, pc}
 8004230:	42a3      	cmp	r3, r4
 8004232:	d908      	bls.n	8004246 <_free_r+0x42>
 8004234:	6820      	ldr	r0, [r4, #0]
 8004236:	1821      	adds	r1, r4, r0
 8004238:	428b      	cmp	r3, r1
 800423a:	d1f3      	bne.n	8004224 <_free_r+0x20>
 800423c:	6819      	ldr	r1, [r3, #0]
 800423e:	685b      	ldr	r3, [r3, #4]
 8004240:	1809      	adds	r1, r1, r0
 8004242:	6021      	str	r1, [r4, #0]
 8004244:	e7ee      	b.n	8004224 <_free_r+0x20>
 8004246:	001a      	movs	r2, r3
 8004248:	685b      	ldr	r3, [r3, #4]
 800424a:	2b00      	cmp	r3, #0
 800424c:	d001      	beq.n	8004252 <_free_r+0x4e>
 800424e:	42a3      	cmp	r3, r4
 8004250:	d9f9      	bls.n	8004246 <_free_r+0x42>
 8004252:	6811      	ldr	r1, [r2, #0]
 8004254:	1850      	adds	r0, r2, r1
 8004256:	42a0      	cmp	r0, r4
 8004258:	d10b      	bne.n	8004272 <_free_r+0x6e>
 800425a:	6820      	ldr	r0, [r4, #0]
 800425c:	1809      	adds	r1, r1, r0
 800425e:	1850      	adds	r0, r2, r1
 8004260:	6011      	str	r1, [r2, #0]
 8004262:	4283      	cmp	r3, r0
 8004264:	d1e0      	bne.n	8004228 <_free_r+0x24>
 8004266:	6818      	ldr	r0, [r3, #0]
 8004268:	685b      	ldr	r3, [r3, #4]
 800426a:	1841      	adds	r1, r0, r1
 800426c:	6011      	str	r1, [r2, #0]
 800426e:	6053      	str	r3, [r2, #4]
 8004270:	e7da      	b.n	8004228 <_free_r+0x24>
 8004272:	42a0      	cmp	r0, r4
 8004274:	d902      	bls.n	800427c <_free_r+0x78>
 8004276:	230c      	movs	r3, #12
 8004278:	602b      	str	r3, [r5, #0]
 800427a:	e7d5      	b.n	8004228 <_free_r+0x24>
 800427c:	6820      	ldr	r0, [r4, #0]
 800427e:	1821      	adds	r1, r4, r0
 8004280:	428b      	cmp	r3, r1
 8004282:	d103      	bne.n	800428c <_free_r+0x88>
 8004284:	6819      	ldr	r1, [r3, #0]
 8004286:	685b      	ldr	r3, [r3, #4]
 8004288:	1809      	adds	r1, r1, r0
 800428a:	6021      	str	r1, [r4, #0]
 800428c:	6063      	str	r3, [r4, #4]
 800428e:	6054      	str	r4, [r2, #4]
 8004290:	e7ca      	b.n	8004228 <_free_r+0x24>
 8004292:	46c0      	nop			@ (mov r8, r8)
 8004294:	20000cb4 	.word	0x20000cb4

08004298 <sbrk_aligned>:
 8004298:	b570      	push	{r4, r5, r6, lr}
 800429a:	4e0f      	ldr	r6, [pc, #60]	@ (80042d8 <sbrk_aligned+0x40>)
 800429c:	000d      	movs	r5, r1
 800429e:	6831      	ldr	r1, [r6, #0]
 80042a0:	0004      	movs	r4, r0
 80042a2:	2900      	cmp	r1, #0
 80042a4:	d102      	bne.n	80042ac <sbrk_aligned+0x14>
 80042a6:	f000 ff2d 	bl	8005104 <_sbrk_r>
 80042aa:	6030      	str	r0, [r6, #0]
 80042ac:	0029      	movs	r1, r5
 80042ae:	0020      	movs	r0, r4
 80042b0:	f000 ff28 	bl	8005104 <_sbrk_r>
 80042b4:	1c43      	adds	r3, r0, #1
 80042b6:	d103      	bne.n	80042c0 <sbrk_aligned+0x28>
 80042b8:	2501      	movs	r5, #1
 80042ba:	426d      	negs	r5, r5
 80042bc:	0028      	movs	r0, r5
 80042be:	bd70      	pop	{r4, r5, r6, pc}
 80042c0:	2303      	movs	r3, #3
 80042c2:	1cc5      	adds	r5, r0, #3
 80042c4:	439d      	bics	r5, r3
 80042c6:	42a8      	cmp	r0, r5
 80042c8:	d0f8      	beq.n	80042bc <sbrk_aligned+0x24>
 80042ca:	1a29      	subs	r1, r5, r0
 80042cc:	0020      	movs	r0, r4
 80042ce:	f000 ff19 	bl	8005104 <_sbrk_r>
 80042d2:	3001      	adds	r0, #1
 80042d4:	d1f2      	bne.n	80042bc <sbrk_aligned+0x24>
 80042d6:	e7ef      	b.n	80042b8 <sbrk_aligned+0x20>
 80042d8:	20000cb0 	.word	0x20000cb0

080042dc <_malloc_r>:
 80042dc:	b5f7      	push	{r0, r1, r2, r4, r5, r6, r7, lr}
 80042de:	2203      	movs	r2, #3
 80042e0:	1ccb      	adds	r3, r1, #3
 80042e2:	4393      	bics	r3, r2
 80042e4:	3308      	adds	r3, #8
 80042e6:	0005      	movs	r5, r0
 80042e8:	001f      	movs	r7, r3
 80042ea:	2b0c      	cmp	r3, #12
 80042ec:	d234      	bcs.n	8004358 <_malloc_r+0x7c>
 80042ee:	270c      	movs	r7, #12
 80042f0:	42b9      	cmp	r1, r7
 80042f2:	d833      	bhi.n	800435c <_malloc_r+0x80>
 80042f4:	0028      	movs	r0, r5
 80042f6:	f000 f871 	bl	80043dc <__malloc_lock>
 80042fa:	4e37      	ldr	r6, [pc, #220]	@ (80043d8 <_malloc_r+0xfc>)
 80042fc:	6833      	ldr	r3, [r6, #0]
 80042fe:	001c      	movs	r4, r3
 8004300:	2c00      	cmp	r4, #0
 8004302:	d12f      	bne.n	8004364 <_malloc_r+0x88>
 8004304:	0039      	movs	r1, r7
 8004306:	0028      	movs	r0, r5
 8004308:	f7ff ffc6 	bl	8004298 <sbrk_aligned>
 800430c:	0004      	movs	r4, r0
 800430e:	1c43      	adds	r3, r0, #1
 8004310:	d15f      	bne.n	80043d2 <_malloc_r+0xf6>
 8004312:	6834      	ldr	r4, [r6, #0]
 8004314:	9400      	str	r4, [sp, #0]
 8004316:	9b00      	ldr	r3, [sp, #0]
 8004318:	2b00      	cmp	r3, #0
 800431a:	d14a      	bne.n	80043b2 <_malloc_r+0xd6>
 800431c:	2c00      	cmp	r4, #0
 800431e:	d052      	beq.n	80043c6 <_malloc_r+0xea>
 8004320:	6823      	ldr	r3, [r4, #0]
 8004322:	0028      	movs	r0, r5
 8004324:	18e3      	adds	r3, r4, r3
 8004326:	9900      	ldr	r1, [sp, #0]
 8004328:	9301      	str	r3, [sp, #4]
 800432a:	f000 feeb 	bl	8005104 <_sbrk_r>
 800432e:	9b01      	ldr	r3, [sp, #4]
 8004330:	4283      	cmp	r3, r0
 8004332:	d148      	bne.n	80043c6 <_malloc_r+0xea>
 8004334:	6823      	ldr	r3, [r4, #0]
 8004336:	0028      	movs	r0, r5
 8004338:	1aff      	subs	r7, r7, r3
 800433a:	0039      	movs	r1, r7
 800433c:	f7ff ffac 	bl	8004298 <sbrk_aligned>
 8004340:	3001      	adds	r0, #1
 8004342:	d040      	beq.n	80043c6 <_malloc_r+0xea>
 8004344:	6823      	ldr	r3, [r4, #0]
 8004346:	19db      	adds	r3, r3, r7
 8004348:	6023      	str	r3, [r4, #0]
 800434a:	6833      	ldr	r3, [r6, #0]
 800434c:	685a      	ldr	r2, [r3, #4]
 800434e:	2a00      	cmp	r2, #0
 8004350:	d133      	bne.n	80043ba <_malloc_r+0xde>
 8004352:	9b00      	ldr	r3, [sp, #0]
 8004354:	6033      	str	r3, [r6, #0]
 8004356:	e019      	b.n	800438c <_malloc_r+0xb0>
 8004358:	2b00      	cmp	r3, #0
 800435a:	dac9      	bge.n	80042f0 <_malloc_r+0x14>
 800435c:	230c      	movs	r3, #12
 800435e:	602b      	str	r3, [r5, #0]
 8004360:	2000      	movs	r0, #0
 8004362:	bdfe      	pop	{r1, r2, r3, r4, r5, r6, r7, pc}
 8004364:	6821      	ldr	r1, [r4, #0]
 8004366:	1bc9      	subs	r1, r1, r7
 8004368:	d420      	bmi.n	80043ac <_malloc_r+0xd0>
 800436a:	290b      	cmp	r1, #11
 800436c:	d90a      	bls.n	8004384 <_malloc_r+0xa8>
 800436e:	19e2      	adds	r2, r4, r7
 8004370:	6027      	str	r7, [r4, #0]
 8004372:	42a3      	cmp	r3, r4
 8004374:	d104      	bne.n	8004380 <_malloc_r+0xa4>
 8004376:	6032      	str	r2, [r6, #0]
 8004378:	6863      	ldr	r3, [r4, #4]
 800437a:	6011      	str	r1, [r2, #0]
 800437c:	6053      	str	r3, [r2, #4]
 800437e:	e005      	b.n	800438c <_malloc_r+0xb0>
 8004380:	605a      	str	r2, [r3, #4]
 8004382:	e7f9      	b.n	8004378 <_malloc_r+0x9c>
 8004384:	6862      	ldr	r2, [r4, #4]
 8004386:	42a3      	cmp	r3, r4
 8004388:	d10e      	bne.n	80043a8 <_malloc_r+0xcc>
 800438a:	6032      	str	r2, [r6, #0]
 800438c:	0028      	movs	r0, r5
 800438e:	f000 f82d 	bl	80043ec <__malloc_unlock>
 8004392:	0020      	movs	r0, r4
 8004394:	2207      	movs	r2, #7
 8004396:	300b      	adds	r0, #11
 8004398:	1d23      	adds	r3, r4, #4
 800439a:	4390      	bics	r0, r2
 800439c:	1ac2      	subs	r2, r0, r3
 800439e:	4298      	cmp	r0, r3
 80043a0:	d0df      	beq.n	8004362 <_malloc_r+0x86>
 80043a2:	1a1b      	subs	r3, r3, r0
 80043a4:	50a3      	str	r3, [r4, r2]
 80043a6:	e7dc      	b.n	8004362 <_malloc_r+0x86>
 80043a8:	605a      	str	r2, [r3, #4]
 80043aa:	e7ef      	b.n	800438c <_malloc_r+0xb0>
 80043ac:	0023      	movs	r3, r4
 80043ae:	6864      	ldr	r4, [r4, #4]
 80043b0:	e7a6      	b.n	8004300 <_malloc_r+0x24>
 80043b2:	9c00      	ldr	r4, [sp, #0]
 80043b4:	6863      	ldr	r3, [r4, #4]
 80043b6:	9300      	str	r3, [sp, #0]
 80043b8:	e7ad      	b.n	8004316 <_malloc_r+0x3a>
 80043ba:	001a      	movs	r2, r3
 80043bc:	685b      	ldr	r3, [r3, #4]
 80043be:	42a3      	cmp	r3, r4
 80043c0:	d1fb      	bne.n	80043ba <_malloc_r+0xde>
 80043c2:	2300      	movs	r3, #0
 80043c4:	e7da      	b.n	800437c <_malloc_r+0xa0>
 80043c6:	230c      	movs	r3, #12
 80043c8:	0028      	movs	r0, r5
 80043ca:	602b      	str	r3, [r5, #0]
 80043cc:	f000 f80e 	bl	80043ec <__malloc_unlock>
 80043d0:	e7c6      	b.n	8004360 <_malloc_r+0x84>
 80043d2:	6007      	str	r7, [r0, #0]
 80043d4:	e7da      	b.n	800438c <_malloc_r+0xb0>
 80043d6:	46c0      	nop			@ (mov r8, r8)
 80043d8:	20000cb4 	.word	0x20000cb4

080043dc <__malloc_lock>:
 80043dc:	b510      	push	{r4, lr}
 80043de:	4802      	ldr	r0, [pc, #8]	@ (80043e8 <__malloc_lock+0xc>)
 80043e0:	f7ff ff04 	bl	80041ec <__retarget_lock_acquire_recursive>
 80043e4:	bd10      	pop	{r4, pc}
 80043e6:	46c0      	nop			@ (mov r8, r8)
 80043e8:	20000cac 	.word	0x20000cac

080043ec <__malloc_unlock>:
 80043ec:	b510      	push	{r4, lr}
 80043ee:	4802      	ldr	r0, [pc, #8]	@ (80043f8 <__malloc_unlock+0xc>)
 80043f0:	f7ff fefd 	bl	80041ee <__retarget_lock_release_recursive>
 80043f4:	bd10      	pop	{r4, pc}
 80043f6:	46c0      	nop			@ (mov r8, r8)
 80043f8:	20000cac 	.word	0x20000cac

080043fc <__ssputs_r>:
 80043fc:	b5f0      	push	{r4, r5, r6, r7, lr}
 80043fe:	688e      	ldr	r6, [r1, #8]
 8004400:	b085      	sub	sp, #20
 8004402:	001f      	movs	r7, r3
 8004404:	000c      	movs	r4, r1
 8004406:	680b      	ldr	r3, [r1, #0]
 8004408:	9002      	str	r0, [sp, #8]
 800440a:	9203      	str	r2, [sp, #12]
 800440c:	42be      	cmp	r6, r7
 800440e:	d830      	bhi.n	8004472 <__ssputs_r+0x76>
 8004410:	210c      	movs	r1, #12
 8004412:	5e62      	ldrsh	r2, [r4, r1]
 8004414:	2190      	movs	r1, #144	@ 0x90
 8004416:	00c9      	lsls	r1, r1, #3
 8004418:	420a      	tst	r2, r1
 800441a:	d028      	beq.n	800446e <__ssputs_r+0x72>
 800441c:	2003      	movs	r0, #3
 800441e:	6921      	ldr	r1, [r4, #16]
 8004420:	1a5b      	subs	r3, r3, r1
 8004422:	9301      	str	r3, [sp, #4]
 8004424:	6963      	ldr	r3, [r4, #20]
 8004426:	4343      	muls	r3, r0
 8004428:	9801      	ldr	r0, [sp, #4]
 800442a:	0fdd      	lsrs	r5, r3, #31
 800442c:	18ed      	adds	r5, r5, r3
 800442e:	1c7b      	adds	r3, r7, #1
 8004430:	181b      	adds	r3, r3, r0
 8004432:	106d      	asrs	r5, r5, #1
 8004434:	42ab      	cmp	r3, r5
 8004436:	d900      	bls.n	800443a <__ssputs_r+0x3e>
 8004438:	001d      	movs	r5, r3
 800443a:	0552      	lsls	r2, r2, #21
 800443c:	d528      	bpl.n	8004490 <__ssputs_r+0x94>
 800443e:	0029      	movs	r1, r5
 8004440:	9802      	ldr	r0, [sp, #8]
 8004442:	f7ff ff4b 	bl	80042dc <_malloc_r>
 8004446:	1e06      	subs	r6, r0, #0
 8004448:	d02c      	beq.n	80044a4 <__ssputs_r+0xa8>
 800444a:	9a01      	ldr	r2, [sp, #4]
 800444c:	6921      	ldr	r1, [r4, #16]
 800444e:	f7ff fecf 	bl	80041f0 <memcpy>
 8004452:	89a2      	ldrh	r2, [r4, #12]
 8004454:	4b18      	ldr	r3, [pc, #96]	@ (80044b8 <__ssputs_r+0xbc>)
 8004456:	401a      	ands	r2, r3
 8004458:	2380      	movs	r3, #128	@ 0x80
 800445a:	4313      	orrs	r3, r2
 800445c:	81a3      	strh	r3, [r4, #12]
 800445e:	9b01      	ldr	r3, [sp, #4]
 8004460:	6126      	str	r6, [r4, #16]
 8004462:	18f6      	adds	r6, r6, r3
 8004464:	6026      	str	r6, [r4, #0]
 8004466:	003e      	movs	r6, r7
 8004468:	6165      	str	r5, [r4, #20]
 800446a:	1aed      	subs	r5, r5, r3
 800446c:	60a5      	str	r5, [r4, #8]
 800446e:	42be      	cmp	r6, r7
 8004470:	d900      	bls.n	8004474 <__ssputs_r+0x78>
 8004472:	003e      	movs	r6, r7
 8004474:	0032      	movs	r2, r6
 8004476:	9903      	ldr	r1, [sp, #12]
 8004478:	6820      	ldr	r0, [r4, #0]
 800447a:	f000 fe31 	bl	80050e0 <memmove>
 800447e:	2000      	movs	r0, #0
 8004480:	68a3      	ldr	r3, [r4, #8]
 8004482:	1b9b      	subs	r3, r3, r6
 8004484:	60a3      	str	r3, [r4, #8]
 8004486:	6823      	ldr	r3, [r4, #0]
 8004488:	199b      	adds	r3, r3, r6
 800448a:	6023      	str	r3, [r4, #0]
 800448c:	b005      	add	sp, #20
 800448e:	bdf0      	pop	{r4, r5, r6, r7, pc}
 8004490:	002a      	movs	r2, r5
 8004492:	9802      	ldr	r0, [sp, #8]
 8004494:	f000 fe53 	bl	800513e <_realloc_r>
 8004498:	1e06      	subs	r6, r0, #0
 800449a:	d1e0      	bne.n	800445e <__ssputs_r+0x62>
 800449c:	6921      	ldr	r1, [r4, #16]
 800449e:	9802      	ldr	r0, [sp, #8]
 80044a0:	f7ff feb0 	bl	8004204 <_free_r>
 80044a4:	230c      	movs	r3, #12
 80044a6:	2001      	movs	r0, #1
 80044a8:	9a02      	ldr	r2, [sp, #8]
 80044aa:	4240      	negs	r0, r0
 80044ac:	6013      	str	r3, [r2, #0]
 80044ae:	89a2      	ldrh	r2, [r4, #12]
 80044b0:	3334      	adds	r3, #52	@ 0x34
 80044b2:	4313      	orrs	r3, r2
 80044b4:	81a3      	strh	r3, [r4, #12]
 80044b6:	e7e9      	b.n	800448c <__ssputs_r+0x90>
 80044b8:	fffffb7f 	.word	0xfffffb7f

080044bc <_svfiprintf_r>:
 80044bc:	b5f0      	push	{r4, r5, r6, r7, lr}
 80044be:	b0a1      	sub	sp, #132	@ 0x84
 80044c0:	9003      	str	r0, [sp, #12]
 80044c2:	001d      	movs	r5, r3
 80044c4:	898b      	ldrh	r3, [r1, #12]
 80044c6:	000f      	movs	r7, r1
 80044c8:	0016      	movs	r6, r2
 80044ca:	061b      	lsls	r3, r3, #24
 80044cc:	d511      	bpl.n	80044f2 <_svfiprintf_r+0x36>
 80044ce:	690b      	ldr	r3, [r1, #16]
 80044d0:	2b00      	cmp	r3, #0
 80044d2:	d10e      	bne.n	80044f2 <_svfiprintf_r+0x36>
 80044d4:	2140      	movs	r1, #64	@ 0x40
 80044d6:	f7ff ff01 	bl	80042dc <_malloc_r>
 80044da:	6038      	str	r0, [r7, #0]
 80044dc:	6138      	str	r0, [r7, #16]
 80044de:	2800      	cmp	r0, #0
 80044e0:	d105      	bne.n	80044ee <_svfiprintf_r+0x32>
 80044e2:	230c      	movs	r3, #12
 80044e4:	9a03      	ldr	r2, [sp, #12]
 80044e6:	6013      	str	r3, [r2, #0]
 80044e8:	2001      	movs	r0, #1
 80044ea:	4240      	negs	r0, r0
 80044ec:	e0cf      	b.n	800468e <_svfiprintf_r+0x1d2>
 80044ee:	2340      	movs	r3, #64	@ 0x40
 80044f0:	617b      	str	r3, [r7, #20]
 80044f2:	2300      	movs	r3, #0
 80044f4:	ac08      	add	r4, sp, #32
 80044f6:	6163      	str	r3, [r4, #20]
 80044f8:	3320      	adds	r3, #32
 80044fa:	7663      	strb	r3, [r4, #25]
 80044fc:	3310      	adds	r3, #16
 80044fe:	76a3      	strb	r3, [r4, #26]
 8004500:	9507      	str	r5, [sp, #28]
 8004502:	0035      	movs	r5, r6
 8004504:	782b      	ldrb	r3, [r5, #0]
 8004506:	2b00      	cmp	r3, #0
 8004508:	d001      	beq.n	800450e <_svfiprintf_r+0x52>
 800450a:	2b25      	cmp	r3, #37	@ 0x25
 800450c:	d148      	bne.n	80045a0 <_svfiprintf_r+0xe4>
 800450e:	1bab      	subs	r3, r5, r6
 8004510:	9305      	str	r3, [sp, #20]
 8004512:	42b5      	cmp	r5, r6
 8004514:	d00b      	beq.n	800452e <_svfiprintf_r+0x72>
 8004516:	0032      	movs	r2, r6
 8004518:	0039      	movs	r1, r7
 800451a:	9803      	ldr	r0, [sp, #12]
 800451c:	f7ff ff6e 	bl	80043fc <__ssputs_r>
 8004520:	3001      	adds	r0, #1
 8004522:	d100      	bne.n	8004526 <_svfiprintf_r+0x6a>
 8004524:	e0ae      	b.n	8004684 <_svfiprintf_r+0x1c8>
 8004526:	6963      	ldr	r3, [r4, #20]
 8004528:	9a05      	ldr	r2, [sp, #20]
 800452a:	189b      	adds	r3, r3, r2
 800452c:	6163      	str	r3, [r4, #20]
 800452e:	782b      	ldrb	r3, [r5, #0]
 8004530:	2b00      	cmp	r3, #0
 8004532:	d100      	bne.n	8004536 <_svfiprintf_r+0x7a>
 8004534:	e0a6      	b.n	8004684 <_svfiprintf_r+0x1c8>
 8004536:	2201      	movs	r2, #1
 8004538:	2300      	movs	r3, #0
 800453a:	4252      	negs	r2, r2
 800453c:	6062      	str	r2, [r4, #4]
 800453e:	a904      	add	r1, sp, #16
 8004540:	3254      	adds	r2, #84	@ 0x54
 8004542:	1852      	adds	r2, r2, r1
 8004544:	1c6e      	adds	r6, r5, #1
 8004546:	6023      	str	r3, [r4, #0]
 8004548:	60e3      	str	r3, [r4, #12]
 800454a:	60a3      	str	r3, [r4, #8]
 800454c:	7013      	strb	r3, [r2, #0]
 800454e:	65a3      	str	r3, [r4, #88]	@ 0x58
 8004550:	4b54      	ldr	r3, [pc, #336]	@ (80046a4 <_svfiprintf_r+0x1e8>)
 8004552:	2205      	movs	r2, #5
 8004554:	0018      	movs	r0, r3
 8004556:	7831      	ldrb	r1, [r6, #0]
 8004558:	9305      	str	r3, [sp, #20]
 800455a:	f000 fde5 	bl	8005128 <memchr>
 800455e:	1c75      	adds	r5, r6, #1
 8004560:	2800      	cmp	r0, #0
 8004562:	d11f      	bne.n	80045a4 <_svfiprintf_r+0xe8>
 8004564:	6822      	ldr	r2, [r4, #0]
 8004566:	06d3      	lsls	r3, r2, #27
 8004568:	d504      	bpl.n	8004574 <_svfiprintf_r+0xb8>
 800456a:	2353      	movs	r3, #83	@ 0x53
 800456c:	a904      	add	r1, sp, #16
 800456e:	185b      	adds	r3, r3, r1
 8004570:	2120      	movs	r1, #32
 8004572:	7019      	strb	r1, [r3, #0]
 8004574:	0713      	lsls	r3, r2, #28
 8004576:	d504      	bpl.n	8004582 <_svfiprintf_r+0xc6>
 8004578:	2353      	movs	r3, #83	@ 0x53
 800457a:	a904      	add	r1, sp, #16
 800457c:	185b      	adds	r3, r3, r1
 800457e:	212b      	movs	r1, #43	@ 0x2b
 8004580:	7019      	strb	r1, [r3, #0]
 8004582:	7833      	ldrb	r3, [r6, #0]
 8004584:	2b2a      	cmp	r3, #42	@ 0x2a
 8004586:	d016      	beq.n	80045b6 <_svfiprintf_r+0xfa>
 8004588:	0035      	movs	r5, r6
 800458a:	2100      	movs	r1, #0
 800458c:	200a      	movs	r0, #10
 800458e:	68e3      	ldr	r3, [r4, #12]
 8004590:	782a      	ldrb	r2, [r5, #0]
 8004592:	1c6e      	adds	r6, r5, #1
 8004594:	3a30      	subs	r2, #48	@ 0x30
 8004596:	2a09      	cmp	r2, #9
 8004598:	d950      	bls.n	800463c <_svfiprintf_r+0x180>
 800459a:	2900      	cmp	r1, #0
 800459c:	d111      	bne.n	80045c2 <_svfiprintf_r+0x106>
 800459e:	e017      	b.n	80045d0 <_svfiprintf_r+0x114>
 80045a0:	3501      	adds	r5, #1
 80045a2:	e7af      	b.n	8004504 <_svfiprintf_r+0x48>
 80045a4:	9b05      	ldr	r3, [sp, #20]
 80045a6:	6822      	ldr	r2, [r4, #0]
 80045a8:	1ac0      	subs	r0, r0, r3
 80045aa:	2301      	movs	r3, #1
 80045ac:	4083      	lsls	r3, r0
 80045ae:	4313      	orrs	r3, r2
 80045b0:	002e      	movs	r6, r5
 80045b2:	6023      	str	r3, [r4, #0]
 80045b4:	e7cc      	b.n	8004550 <_svfiprintf_r+0x94>
 80045b6:	9b07      	ldr	r3, [sp, #28]
 80045b8:	1d19      	adds	r1, r3, #4
 80045ba:	681b      	ldr	r3, [r3, #0]
 80045bc:	9107      	str	r1, [sp, #28]
 80045be:	2b00      	cmp	r3, #0
 80045c0:	db01      	blt.n	80045c6 <_svfiprintf_r+0x10a>
 80045c2:	930b      	str	r3, [sp, #44]	@ 0x2c
 80045c4:	e004      	b.n	80045d0 <_svfiprintf_r+0x114>
 80045c6:	425b      	negs	r3, r3
 80045c8:	60e3      	str	r3, [r4, #12]
 80045ca:	2302      	movs	r3, #2
 80045cc:	4313      	orrs	r3, r2
 80045ce:	6023      	str	r3, [r4, #0]
 80045d0:	782b      	ldrb	r3, [r5, #0]
 80045d2:	2b2e      	cmp	r3, #46	@ 0x2e
 80045d4:	d10c      	bne.n	80045f0 <_svfiprintf_r+0x134>
 80045d6:	786b      	ldrb	r3, [r5, #1]
 80045d8:	2b2a      	cmp	r3, #42	@ 0x2a
 80045da:	d134      	bne.n	8004646 <_svfiprintf_r+0x18a>
 80045dc:	9b07      	ldr	r3, [sp, #28]
 80045de:	3502      	adds	r5, #2
 80045e0:	1d1a      	adds	r2, r3, #4
 80045e2:	681b      	ldr	r3, [r3, #0]
 80045e4:	9207      	str	r2, [sp, #28]
 80045e6:	2b00      	cmp	r3, #0
 80045e8:	da01      	bge.n	80045ee <_svfiprintf_r+0x132>
 80045ea:	2301      	movs	r3, #1
 80045ec:	425b      	negs	r3, r3
 80045ee:	9309      	str	r3, [sp, #36]	@ 0x24
 80045f0:	4e2d      	ldr	r6, [pc, #180]	@ (80046a8 <_svfiprintf_r+0x1ec>)
 80045f2:	2203      	movs	r2, #3
 80045f4:	0030      	movs	r0, r6
 80045f6:	7829      	ldrb	r1, [r5, #0]
 80045f8:	f000 fd96 	bl	8005128 <memchr>
 80045fc:	2800      	cmp	r0, #0
 80045fe:	d006      	beq.n	800460e <_svfiprintf_r+0x152>
 8004600:	2340      	movs	r3, #64	@ 0x40
 8004602:	1b80      	subs	r0, r0, r6
 8004604:	4083      	lsls	r3, r0
 8004606:	6822      	ldr	r2, [r4, #0]
 8004608:	3501      	adds	r5, #1
 800460a:	4313      	orrs	r3, r2
 800460c:	6023      	str	r3, [r4, #0]
 800460e:	7829      	ldrb	r1, [r5, #0]
 8004610:	2206      	movs	r2, #6
 8004612:	4826      	ldr	r0, [pc, #152]	@ (80046ac <_svfiprintf_r+0x1f0>)
 8004614:	1c6e      	adds	r6, r5, #1
 8004616:	7621      	strb	r1, [r4, #24]
 8004618:	f000 fd86 	bl	8005128 <memchr>
 800461c:	2800      	cmp	r0, #0
 800461e:	d038      	beq.n	8004692 <_svfiprintf_r+0x1d6>
 8004620:	4b23      	ldr	r3, [pc, #140]	@ (80046b0 <_svfiprintf_r+0x1f4>)
 8004622:	2b00      	cmp	r3, #0
 8004624:	d122      	bne.n	800466c <_svfiprintf_r+0x1b0>
 8004626:	2207      	movs	r2, #7
 8004628:	9b07      	ldr	r3, [sp, #28]
 800462a:	3307      	adds	r3, #7
 800462c:	4393      	bics	r3, r2
 800462e:	3308      	adds	r3, #8
 8004630:	9307      	str	r3, [sp, #28]
 8004632:	6963      	ldr	r3, [r4, #20]
 8004634:	9a04      	ldr	r2, [sp, #16]
 8004636:	189b      	adds	r3, r3, r2
 8004638:	6163      	str	r3, [r4, #20]
 800463a:	e762      	b.n	8004502 <_svfiprintf_r+0x46>
 800463c:	4343      	muls	r3, r0
 800463e:	0035      	movs	r5, r6
 8004640:	2101      	movs	r1, #1
 8004642:	189b      	adds	r3, r3, r2
 8004644:	e7a4      	b.n	8004590 <_svfiprintf_r+0xd4>
 8004646:	2300      	movs	r3, #0
 8004648:	200a      	movs	r0, #10
 800464a:	0019      	movs	r1, r3
 800464c:	3501      	adds	r5, #1
 800464e:	6063      	str	r3, [r4, #4]
 8004650:	782a      	ldrb	r2, [r5, #0]
 8004652:	1c6e      	adds	r6, r5, #1
 8004654:	3a30      	subs	r2, #48	@ 0x30
 8004656:	2a09      	cmp	r2, #9
 8004658:	d903      	bls.n	8004662 <_svfiprintf_r+0x1a6>
 800465a:	2b00      	cmp	r3, #0
 800465c:	d0c8      	beq.n	80045f0 <_svfiprintf_r+0x134>
 800465e:	9109      	str	r1, [sp, #36]	@ 0x24
 8004660:	e7c6      	b.n	80045f0 <_svfiprintf_r+0x134>
 8004662:	4341      	muls	r1, r0
 8004664:	0035      	movs	r5, r6
 8004666:	2301      	movs	r3, #1
 8004668:	1889      	adds	r1, r1, r2
 800466a:	e7f1      	b.n	8004650 <_svfiprintf_r+0x194>
 800466c:	aa07      	add	r2, sp, #28
 800466e:	9200      	str	r2, [sp, #0]
 8004670:	0021      	movs	r1, r4
 8004672:	003a      	movs	r2, r7
 8004674:	4b0f      	ldr	r3, [pc, #60]	@ (80046b4 <_svfiprintf_r+0x1f8>)
 8004676:	9803      	ldr	r0, [sp, #12]
 8004678:	e000      	b.n	800467c <_svfiprintf_r+0x1c0>
 800467a:	bf00      	nop
 800467c:	9004      	str	r0, [sp, #16]
 800467e:	9b04      	ldr	r3, [sp, #16]
 8004680:	3301      	adds	r3, #1
 8004682:	d1d6      	bne.n	8004632 <_svfiprintf_r+0x176>
 8004684:	89bb      	ldrh	r3, [r7, #12]
 8004686:	980d      	ldr	r0, [sp, #52]	@ 0x34
 8004688:	065b      	lsls	r3, r3, #25
 800468a:	d500      	bpl.n	800468e <_svfiprintf_r+0x1d2>
 800468c:	e72c      	b.n	80044e8 <_svfiprintf_r+0x2c>
 800468e:	b021      	add	sp, #132	@ 0x84
 8004690:	bdf0      	pop	{r4, r5, r6, r7, pc}
 8004692:	aa07      	add	r2, sp, #28
 8004694:	9200      	str	r2, [sp, #0]
 8004696:	0021      	movs	r1, r4
 8004698:	003a      	movs	r2, r7
 800469a:	4b06      	ldr	r3, [pc, #24]	@ (80046b4 <_svfiprintf_r+0x1f8>)
 800469c:	9803      	ldr	r0, [sp, #12]
 800469e:	f000 fa3b 	bl	8004b18 <_printf_i>
 80046a2:	e7eb      	b.n	800467c <_svfiprintf_r+0x1c0>
 80046a4:	080054fc 	.word	0x080054fc
 80046a8:	08005502 	.word	0x08005502
 80046ac:	08005506 	.word	0x08005506
 80046b0:	00000000 	.word	0x00000000
 80046b4:	080043fd 	.word	0x080043fd

080046b8 <_sungetc_r>:
 80046b8:	b570      	push	{r4, r5, r6, lr}
 80046ba:	0014      	movs	r4, r2
 80046bc:	1c4b      	adds	r3, r1, #1
 80046be:	d103      	bne.n	80046c8 <_sungetc_r+0x10>
 80046c0:	2501      	movs	r5, #1
 80046c2:	426d      	negs	r5, r5
 80046c4:	0028      	movs	r0, r5
 80046c6:	bd70      	pop	{r4, r5, r6, pc}
 80046c8:	8993      	ldrh	r3, [r2, #12]
 80046ca:	2220      	movs	r2, #32
 80046cc:	4393      	bics	r3, r2
 80046ce:	6b62      	ldr	r2, [r4, #52]	@ 0x34
 80046d0:	81a3      	strh	r3, [r4, #12]
 80046d2:	b2ce      	uxtb	r6, r1
 80046d4:	6863      	ldr	r3, [r4, #4]
 80046d6:	b2cd      	uxtb	r5, r1
 80046d8:	2a00      	cmp	r2, #0
 80046da:	d010      	beq.n	80046fe <_sungetc_r+0x46>
 80046dc:	6ba2      	ldr	r2, [r4, #56]	@ 0x38
 80046de:	429a      	cmp	r2, r3
 80046e0:	dd07      	ble.n	80046f2 <_sungetc_r+0x3a>
 80046e2:	6823      	ldr	r3, [r4, #0]
 80046e4:	3b01      	subs	r3, #1
 80046e6:	6023      	str	r3, [r4, #0]
 80046e8:	701e      	strb	r6, [r3, #0]
 80046ea:	6863      	ldr	r3, [r4, #4]
 80046ec:	3301      	adds	r3, #1
 80046ee:	6063      	str	r3, [r4, #4]
 80046f0:	e7e8      	b.n	80046c4 <_sungetc_r+0xc>
 80046f2:	0021      	movs	r1, r4
 80046f4:	f000 fcb6 	bl	8005064 <__submore>
 80046f8:	2800      	cmp	r0, #0
 80046fa:	d0f2      	beq.n	80046e2 <_sungetc_r+0x2a>
 80046fc:	e7e0      	b.n	80046c0 <_sungetc_r+0x8>
 80046fe:	6921      	ldr	r1, [r4, #16]
 8004700:	6822      	ldr	r2, [r4, #0]
 8004702:	2900      	cmp	r1, #0
 8004704:	d007      	beq.n	8004716 <_sungetc_r+0x5e>
 8004706:	4291      	cmp	r1, r2
 8004708:	d205      	bcs.n	8004716 <_sungetc_r+0x5e>
 800470a:	1e51      	subs	r1, r2, #1
 800470c:	7808      	ldrb	r0, [r1, #0]
 800470e:	42a8      	cmp	r0, r5
 8004710:	d101      	bne.n	8004716 <_sungetc_r+0x5e>
 8004712:	6021      	str	r1, [r4, #0]
 8004714:	e7ea      	b.n	80046ec <_sungetc_r+0x34>
 8004716:	6423      	str	r3, [r4, #64]	@ 0x40
 8004718:	0023      	movs	r3, r4
 800471a:	3344      	adds	r3, #68	@ 0x44
 800471c:	6363      	str	r3, [r4, #52]	@ 0x34
 800471e:	2303      	movs	r3, #3
 8004720:	63a3      	str	r3, [r4, #56]	@ 0x38
 8004722:	0023      	movs	r3, r4
 8004724:	3346      	adds	r3, #70	@ 0x46
 8004726:	63e2      	str	r2, [r4, #60]	@ 0x3c
 8004728:	701e      	strb	r6, [r3, #0]
 800472a:	6023      	str	r3, [r4, #0]
 800472c:	2301      	movs	r3, #1
 800472e:	e7de      	b.n	80046ee <_sungetc_r+0x36>

08004730 <__ssrefill_r>:
 8004730:	b510      	push	{r4, lr}
 8004732:	000c      	movs	r4, r1
 8004734:	6b49      	ldr	r1, [r1, #52]	@ 0x34
 8004736:	2900      	cmp	r1, #0
 8004738:	d00e      	beq.n	8004758 <__ssrefill_r+0x28>
 800473a:	0023      	movs	r3, r4
 800473c:	3344      	adds	r3, #68	@ 0x44
 800473e:	4299      	cmp	r1, r3
 8004740:	d001      	beq.n	8004746 <__ssrefill_r+0x16>
 8004742:	f7ff fd5f 	bl	8004204 <_free_r>
 8004746:	2000      	movs	r0, #0
 8004748:	6c23      	ldr	r3, [r4, #64]	@ 0x40
 800474a:	6360      	str	r0, [r4, #52]	@ 0x34
 800474c:	6063      	str	r3, [r4, #4]
 800474e:	4283      	cmp	r3, r0
 8004750:	d002      	beq.n	8004758 <__ssrefill_r+0x28>
 8004752:	6be3      	ldr	r3, [r4, #60]	@ 0x3c
 8004754:	6023      	str	r3, [r4, #0]
 8004756:	bd10      	pop	{r4, pc}
 8004758:	6923      	ldr	r3, [r4, #16]
 800475a:	2001      	movs	r0, #1
 800475c:	6023      	str	r3, [r4, #0]
 800475e:	2300      	movs	r3, #0
 8004760:	89a2      	ldrh	r2, [r4, #12]
 8004762:	6063      	str	r3, [r4, #4]
 8004764:	3320      	adds	r3, #32
 8004766:	4313      	orrs	r3, r2
 8004768:	81a3      	strh	r3, [r4, #12]
 800476a:	4240      	negs	r0, r0
 800476c:	e7f3      	b.n	8004756 <__ssrefill_r+0x26>
	...

08004770 <__ssvfiscanf_r>:
 8004770:	b5f0      	push	{r4, r5, r6, r7, lr}
 8004772:	4cab      	ldr	r4, [pc, #684]	@ (8004a20 <__ssvfiscanf_r+0x2b0>)
 8004774:	44a5      	add	sp, r4
 8004776:	000c      	movs	r4, r1
 8004778:	2100      	movs	r1, #0
 800477a:	9000      	str	r0, [sp, #0]
 800477c:	20be      	movs	r0, #190	@ 0xbe
 800477e:	9146      	str	r1, [sp, #280]	@ 0x118
 8004780:	9147      	str	r1, [sp, #284]	@ 0x11c
 8004782:	a903      	add	r1, sp, #12
 8004784:	9148      	str	r1, [sp, #288]	@ 0x120
 8004786:	49a7      	ldr	r1, [pc, #668]	@ (8004a24 <__ssvfiscanf_r+0x2b4>)
 8004788:	0040      	lsls	r0, r0, #1
 800478a:	ad43      	add	r5, sp, #268	@ 0x10c
 800478c:	5029      	str	r1, [r5, r0]
 800478e:	49a6      	ldr	r1, [pc, #664]	@ (8004a28 <__ssvfiscanf_r+0x2b8>)
 8004790:	3004      	adds	r0, #4
 8004792:	ad43      	add	r5, sp, #268	@ 0x10c
 8004794:	5029      	str	r1, [r5, r0]
 8004796:	9302      	str	r3, [sp, #8]
 8004798:	7816      	ldrb	r6, [r2, #0]
 800479a:	2e00      	cmp	r6, #0
 800479c:	d100      	bne.n	80047a0 <__ssvfiscanf_r+0x30>
 800479e:	e13c      	b.n	8004a1a <__ssvfiscanf_r+0x2aa>
 80047a0:	2308      	movs	r3, #8
 80047a2:	2008      	movs	r0, #8
 80047a4:	4da1      	ldr	r5, [pc, #644]	@ (8004a2c <__ssvfiscanf_r+0x2bc>)
 80047a6:	1c57      	adds	r7, r2, #1
 80047a8:	5da9      	ldrb	r1, [r5, r6]
 80047aa:	400b      	ands	r3, r1
 80047ac:	4201      	tst	r1, r0
 80047ae:	d01d      	beq.n	80047ec <__ssvfiscanf_r+0x7c>
 80047b0:	0006      	movs	r6, r0
 80047b2:	6863      	ldr	r3, [r4, #4]
 80047b4:	2b00      	cmp	r3, #0
 80047b6:	dd0f      	ble.n	80047d8 <__ssvfiscanf_r+0x68>
 80047b8:	6823      	ldr	r3, [r4, #0]
 80047ba:	781a      	ldrb	r2, [r3, #0]
 80047bc:	5caa      	ldrb	r2, [r5, r2]
 80047be:	4232      	tst	r2, r6
 80047c0:	d101      	bne.n	80047c6 <__ssvfiscanf_r+0x56>
 80047c2:	003a      	movs	r2, r7
 80047c4:	e7e8      	b.n	8004798 <__ssvfiscanf_r+0x28>
 80047c6:	9a47      	ldr	r2, [sp, #284]	@ 0x11c
 80047c8:	3301      	adds	r3, #1
 80047ca:	3201      	adds	r2, #1
 80047cc:	9247      	str	r2, [sp, #284]	@ 0x11c
 80047ce:	6862      	ldr	r2, [r4, #4]
 80047d0:	6023      	str	r3, [r4, #0]
 80047d2:	3a01      	subs	r2, #1
 80047d4:	6062      	str	r2, [r4, #4]
 80047d6:	e7ec      	b.n	80047b2 <__ssvfiscanf_r+0x42>
 80047d8:	22c0      	movs	r2, #192	@ 0xc0
 80047da:	ab43      	add	r3, sp, #268	@ 0x10c
 80047dc:	0052      	lsls	r2, r2, #1
 80047de:	0021      	movs	r1, r4
 80047e0:	589b      	ldr	r3, [r3, r2]
 80047e2:	9800      	ldr	r0, [sp, #0]
 80047e4:	4798      	blx	r3
 80047e6:	2800      	cmp	r0, #0
 80047e8:	d0e6      	beq.n	80047b8 <__ssvfiscanf_r+0x48>
 80047ea:	e7ea      	b.n	80047c2 <__ssvfiscanf_r+0x52>
 80047ec:	2e25      	cmp	r6, #37	@ 0x25
 80047ee:	d162      	bne.n	80048b6 <__ssvfiscanf_r+0x146>
 80047f0:	9345      	str	r3, [sp, #276]	@ 0x114
 80047f2:	9343      	str	r3, [sp, #268]	@ 0x10c
 80047f4:	7853      	ldrb	r3, [r2, #1]
 80047f6:	2b2a      	cmp	r3, #42	@ 0x2a
 80047f8:	d102      	bne.n	8004800 <__ssvfiscanf_r+0x90>
 80047fa:	3b1a      	subs	r3, #26
 80047fc:	9343      	str	r3, [sp, #268]	@ 0x10c
 80047fe:	1c97      	adds	r7, r2, #2
 8004800:	003d      	movs	r5, r7
 8004802:	220a      	movs	r2, #10
 8004804:	7829      	ldrb	r1, [r5, #0]
 8004806:	1c6f      	adds	r7, r5, #1
 8004808:	000b      	movs	r3, r1
 800480a:	3b30      	subs	r3, #48	@ 0x30
 800480c:	2b09      	cmp	r3, #9
 800480e:	d91f      	bls.n	8004850 <__ssvfiscanf_r+0xe0>
 8004810:	4b87      	ldr	r3, [pc, #540]	@ (8004a30 <__ssvfiscanf_r+0x2c0>)
 8004812:	2203      	movs	r2, #3
 8004814:	0018      	movs	r0, r3
 8004816:	9301      	str	r3, [sp, #4]
 8004818:	f000 fc86 	bl	8005128 <memchr>
 800481c:	2800      	cmp	r0, #0
 800481e:	d007      	beq.n	8004830 <__ssvfiscanf_r+0xc0>
 8004820:	9b01      	ldr	r3, [sp, #4]
 8004822:	003d      	movs	r5, r7
 8004824:	1ac0      	subs	r0, r0, r3
 8004826:	2301      	movs	r3, #1
 8004828:	4083      	lsls	r3, r0
 800482a:	9a43      	ldr	r2, [sp, #268]	@ 0x10c
 800482c:	4313      	orrs	r3, r2
 800482e:	9343      	str	r3, [sp, #268]	@ 0x10c
 8004830:	782b      	ldrb	r3, [r5, #0]
 8004832:	1c6f      	adds	r7, r5, #1
 8004834:	2b78      	cmp	r3, #120	@ 0x78
 8004836:	d806      	bhi.n	8004846 <__ssvfiscanf_r+0xd6>
 8004838:	2b57      	cmp	r3, #87	@ 0x57
 800483a:	d810      	bhi.n	800485e <__ssvfiscanf_r+0xee>
 800483c:	2b25      	cmp	r3, #37	@ 0x25
 800483e:	d03a      	beq.n	80048b6 <__ssvfiscanf_r+0x146>
 8004840:	d834      	bhi.n	80048ac <__ssvfiscanf_r+0x13c>
 8004842:	2b00      	cmp	r3, #0
 8004844:	d055      	beq.n	80048f2 <__ssvfiscanf_r+0x182>
 8004846:	2303      	movs	r3, #3
 8004848:	9349      	str	r3, [sp, #292]	@ 0x124
 800484a:	3307      	adds	r3, #7
 800484c:	9344      	str	r3, [sp, #272]	@ 0x110
 800484e:	e069      	b.n	8004924 <__ssvfiscanf_r+0x1b4>
 8004850:	9b45      	ldr	r3, [sp, #276]	@ 0x114
 8004852:	003d      	movs	r5, r7
 8004854:	4353      	muls	r3, r2
 8004856:	3b30      	subs	r3, #48	@ 0x30
 8004858:	185b      	adds	r3, r3, r1
 800485a:	9345      	str	r3, [sp, #276]	@ 0x114
 800485c:	e7d2      	b.n	8004804 <__ssvfiscanf_r+0x94>
 800485e:	0018      	movs	r0, r3
 8004860:	3858      	subs	r0, #88	@ 0x58
 8004862:	2820      	cmp	r0, #32
 8004864:	d8ef      	bhi.n	8004846 <__ssvfiscanf_r+0xd6>
 8004866:	f7fb fc75 	bl	8000154 <__gnu_thumb1_case_shi>
 800486a:	004b      	.short	0x004b
 800486c:	ffeeffee 	.word	0xffeeffee
 8004870:	ffee007d 	.word	0xffee007d
 8004874:	ffeeffee 	.word	0xffeeffee
 8004878:	ffeeffee 	.word	0xffeeffee
 800487c:	ffeeffee 	.word	0xffeeffee
 8004880:	007b0088 	.word	0x007b0088
 8004884:	00240024 	.word	0x00240024
 8004888:	ffee0024 	.word	0xffee0024
 800488c:	ffee0055 	.word	0xffee0055
 8004890:	ffeeffee 	.word	0xffeeffee
 8004894:	0090ffee 	.word	0x0090ffee
 8004898:	00470059 	.word	0x00470059
 800489c:	ffeeffee 	.word	0xffeeffee
 80048a0:	ffee008e 	.word	0xffee008e
 80048a4:	ffee007b 	.word	0xffee007b
 80048a8:	004bffee 	.word	0x004bffee
 80048ac:	3b45      	subs	r3, #69	@ 0x45
 80048ae:	2b02      	cmp	r3, #2
 80048b0:	d8c9      	bhi.n	8004846 <__ssvfiscanf_r+0xd6>
 80048b2:	2305      	movs	r3, #5
 80048b4:	e035      	b.n	8004922 <__ssvfiscanf_r+0x1b2>
 80048b6:	6863      	ldr	r3, [r4, #4]
 80048b8:	2b00      	cmp	r3, #0
 80048ba:	dd0d      	ble.n	80048d8 <__ssvfiscanf_r+0x168>
 80048bc:	6823      	ldr	r3, [r4, #0]
 80048be:	781a      	ldrb	r2, [r3, #0]
 80048c0:	42b2      	cmp	r2, r6
 80048c2:	d000      	beq.n	80048c6 <__ssvfiscanf_r+0x156>
 80048c4:	e0a9      	b.n	8004a1a <__ssvfiscanf_r+0x2aa>
 80048c6:	3301      	adds	r3, #1
 80048c8:	6862      	ldr	r2, [r4, #4]
 80048ca:	6023      	str	r3, [r4, #0]
 80048cc:	9b47      	ldr	r3, [sp, #284]	@ 0x11c
 80048ce:	3a01      	subs	r2, #1
 80048d0:	3301      	adds	r3, #1
 80048d2:	6062      	str	r2, [r4, #4]
 80048d4:	9347      	str	r3, [sp, #284]	@ 0x11c
 80048d6:	e774      	b.n	80047c2 <__ssvfiscanf_r+0x52>
 80048d8:	23c0      	movs	r3, #192	@ 0xc0
 80048da:	aa43      	add	r2, sp, #268	@ 0x10c
 80048dc:	005b      	lsls	r3, r3, #1
 80048de:	0021      	movs	r1, r4
 80048e0:	58d3      	ldr	r3, [r2, r3]
 80048e2:	9800      	ldr	r0, [sp, #0]
 80048e4:	4798      	blx	r3
 80048e6:	2800      	cmp	r0, #0
 80048e8:	d0e8      	beq.n	80048bc <__ssvfiscanf_r+0x14c>
 80048ea:	9846      	ldr	r0, [sp, #280]	@ 0x118
 80048ec:	2800      	cmp	r0, #0
 80048ee:	d000      	beq.n	80048f2 <__ssvfiscanf_r+0x182>
 80048f0:	e08b      	b.n	8004a0a <__ssvfiscanf_r+0x29a>
 80048f2:	2001      	movs	r0, #1
 80048f4:	4240      	negs	r0, r0
 80048f6:	e08c      	b.n	8004a12 <__ssvfiscanf_r+0x2a2>
 80048f8:	2220      	movs	r2, #32
 80048fa:	9943      	ldr	r1, [sp, #268]	@ 0x10c
 80048fc:	430a      	orrs	r2, r1
 80048fe:	9243      	str	r2, [sp, #268]	@ 0x10c
 8004900:	2280      	movs	r2, #128	@ 0x80
 8004902:	9943      	ldr	r1, [sp, #268]	@ 0x10c
 8004904:	0092      	lsls	r2, r2, #2
 8004906:	430a      	orrs	r2, r1
 8004908:	9243      	str	r2, [sp, #268]	@ 0x10c
 800490a:	2210      	movs	r2, #16
 800490c:	9244      	str	r2, [sp, #272]	@ 0x110
 800490e:	2b6e      	cmp	r3, #110	@ 0x6e
 8004910:	d902      	bls.n	8004918 <__ssvfiscanf_r+0x1a8>
 8004912:	e005      	b.n	8004920 <__ssvfiscanf_r+0x1b0>
 8004914:	2300      	movs	r3, #0
 8004916:	9344      	str	r3, [sp, #272]	@ 0x110
 8004918:	2303      	movs	r3, #3
 800491a:	e002      	b.n	8004922 <__ssvfiscanf_r+0x1b2>
 800491c:	2308      	movs	r3, #8
 800491e:	9344      	str	r3, [sp, #272]	@ 0x110
 8004920:	2304      	movs	r3, #4
 8004922:	9349      	str	r3, [sp, #292]	@ 0x124
 8004924:	6863      	ldr	r3, [r4, #4]
 8004926:	2b00      	cmp	r3, #0
 8004928:	dd3e      	ble.n	80049a8 <__ssvfiscanf_r+0x238>
 800492a:	9b43      	ldr	r3, [sp, #268]	@ 0x10c
 800492c:	065b      	lsls	r3, r3, #25
 800492e:	d408      	bmi.n	8004942 <__ssvfiscanf_r+0x1d2>
 8004930:	26c0      	movs	r6, #192	@ 0xc0
 8004932:	2508      	movs	r5, #8
 8004934:	0076      	lsls	r6, r6, #1
 8004936:	6823      	ldr	r3, [r4, #0]
 8004938:	493c      	ldr	r1, [pc, #240]	@ (8004a2c <__ssvfiscanf_r+0x2bc>)
 800493a:	781a      	ldrb	r2, [r3, #0]
 800493c:	5c8a      	ldrb	r2, [r1, r2]
 800493e:	422a      	tst	r2, r5
 8004940:	d13c      	bne.n	80049bc <__ssvfiscanf_r+0x24c>
 8004942:	9b49      	ldr	r3, [sp, #292]	@ 0x124
 8004944:	2b02      	cmp	r3, #2
 8004946:	dc4c      	bgt.n	80049e2 <__ssvfiscanf_r+0x272>
 8004948:	0022      	movs	r2, r4
 800494a:	9800      	ldr	r0, [sp, #0]
 800494c:	ab02      	add	r3, sp, #8
 800494e:	a943      	add	r1, sp, #268	@ 0x10c
 8004950:	f000 f9ee 	bl	8004d30 <_scanf_chars>
 8004954:	2801      	cmp	r0, #1
 8004956:	d060      	beq.n	8004a1a <__ssvfiscanf_r+0x2aa>
 8004958:	2802      	cmp	r0, #2
 800495a:	d000      	beq.n	800495e <__ssvfiscanf_r+0x1ee>
 800495c:	e731      	b.n	80047c2 <__ssvfiscanf_r+0x52>
 800495e:	e7c4      	b.n	80048ea <__ssvfiscanf_r+0x17a>
 8004960:	220a      	movs	r2, #10
 8004962:	e7d3      	b.n	800490c <__ssvfiscanf_r+0x19c>
 8004964:	0039      	movs	r1, r7
 8004966:	a803      	add	r0, sp, #12
 8004968:	f000 fb42 	bl	8004ff0 <__sccl>
 800496c:	2340      	movs	r3, #64	@ 0x40
 800496e:	9a43      	ldr	r2, [sp, #268]	@ 0x10c
 8004970:	0007      	movs	r7, r0
 8004972:	4313      	orrs	r3, r2
 8004974:	9343      	str	r3, [sp, #268]	@ 0x10c
 8004976:	2301      	movs	r3, #1
 8004978:	e7d3      	b.n	8004922 <__ssvfiscanf_r+0x1b2>
 800497a:	2340      	movs	r3, #64	@ 0x40
 800497c:	9a43      	ldr	r2, [sp, #268]	@ 0x10c
 800497e:	4313      	orrs	r3, r2
 8004980:	9343      	str	r3, [sp, #268]	@ 0x10c
 8004982:	2300      	movs	r3, #0
 8004984:	e7cd      	b.n	8004922 <__ssvfiscanf_r+0x1b2>
 8004986:	2302      	movs	r3, #2
 8004988:	e7cb      	b.n	8004922 <__ssvfiscanf_r+0x1b2>
 800498a:	9a43      	ldr	r2, [sp, #268]	@ 0x10c
 800498c:	06d3      	lsls	r3, r2, #27
 800498e:	d500      	bpl.n	8004992 <__ssvfiscanf_r+0x222>
 8004990:	e717      	b.n	80047c2 <__ssvfiscanf_r+0x52>
 8004992:	9b02      	ldr	r3, [sp, #8]
 8004994:	9947      	ldr	r1, [sp, #284]	@ 0x11c
 8004996:	1d18      	adds	r0, r3, #4
 8004998:	9002      	str	r0, [sp, #8]
 800499a:	681b      	ldr	r3, [r3, #0]
 800499c:	07d5      	lsls	r5, r2, #31
 800499e:	d501      	bpl.n	80049a4 <__ssvfiscanf_r+0x234>
 80049a0:	8019      	strh	r1, [r3, #0]
 80049a2:	e70e      	b.n	80047c2 <__ssvfiscanf_r+0x52>
 80049a4:	6019      	str	r1, [r3, #0]
 80049a6:	e70c      	b.n	80047c2 <__ssvfiscanf_r+0x52>
 80049a8:	23c0      	movs	r3, #192	@ 0xc0
 80049aa:	aa43      	add	r2, sp, #268	@ 0x10c
 80049ac:	005b      	lsls	r3, r3, #1
 80049ae:	0021      	movs	r1, r4
 80049b0:	58d3      	ldr	r3, [r2, r3]
 80049b2:	9800      	ldr	r0, [sp, #0]
 80049b4:	4798      	blx	r3
 80049b6:	2800      	cmp	r0, #0
 80049b8:	d0b7      	beq.n	800492a <__ssvfiscanf_r+0x1ba>
 80049ba:	e796      	b.n	80048ea <__ssvfiscanf_r+0x17a>
 80049bc:	9a47      	ldr	r2, [sp, #284]	@ 0x11c
 80049be:	3201      	adds	r2, #1
 80049c0:	9247      	str	r2, [sp, #284]	@ 0x11c
 80049c2:	6862      	ldr	r2, [r4, #4]
 80049c4:	3a01      	subs	r2, #1
 80049c6:	6062      	str	r2, [r4, #4]
 80049c8:	2a00      	cmp	r2, #0
 80049ca:	dd02      	ble.n	80049d2 <__ssvfiscanf_r+0x262>
 80049cc:	3301      	adds	r3, #1
 80049ce:	6023      	str	r3, [r4, #0]
 80049d0:	e7b1      	b.n	8004936 <__ssvfiscanf_r+0x1c6>
 80049d2:	ab43      	add	r3, sp, #268	@ 0x10c
 80049d4:	0021      	movs	r1, r4
 80049d6:	599b      	ldr	r3, [r3, r6]
 80049d8:	9800      	ldr	r0, [sp, #0]
 80049da:	4798      	blx	r3
 80049dc:	2800      	cmp	r0, #0
 80049de:	d0aa      	beq.n	8004936 <__ssvfiscanf_r+0x1c6>
 80049e0:	e783      	b.n	80048ea <__ssvfiscanf_r+0x17a>
 80049e2:	2b04      	cmp	r3, #4
 80049e4:	dc06      	bgt.n	80049f4 <__ssvfiscanf_r+0x284>
 80049e6:	0022      	movs	r2, r4
 80049e8:	9800      	ldr	r0, [sp, #0]
 80049ea:	ab02      	add	r3, sp, #8
 80049ec:	a943      	add	r1, sp, #268	@ 0x10c
 80049ee:	f000 f9ff 	bl	8004df0 <_scanf_i>
 80049f2:	e7af      	b.n	8004954 <__ssvfiscanf_r+0x1e4>
 80049f4:	4b0f      	ldr	r3, [pc, #60]	@ (8004a34 <__ssvfiscanf_r+0x2c4>)
 80049f6:	2b00      	cmp	r3, #0
 80049f8:	d100      	bne.n	80049fc <__ssvfiscanf_r+0x28c>
 80049fa:	e6e2      	b.n	80047c2 <__ssvfiscanf_r+0x52>
 80049fc:	0022      	movs	r2, r4
 80049fe:	9800      	ldr	r0, [sp, #0]
 8004a00:	ab02      	add	r3, sp, #8
 8004a02:	a943      	add	r1, sp, #268	@ 0x10c
 8004a04:	e000      	b.n	8004a08 <__ssvfiscanf_r+0x298>
 8004a06:	bf00      	nop
 8004a08:	e7a4      	b.n	8004954 <__ssvfiscanf_r+0x1e4>
 8004a0a:	89a3      	ldrh	r3, [r4, #12]
 8004a0c:	065b      	lsls	r3, r3, #25
 8004a0e:	d500      	bpl.n	8004a12 <__ssvfiscanf_r+0x2a2>
 8004a10:	e76f      	b.n	80048f2 <__ssvfiscanf_r+0x182>
 8004a12:	23a5      	movs	r3, #165	@ 0xa5
 8004a14:	009b      	lsls	r3, r3, #2
 8004a16:	449d      	add	sp, r3
 8004a18:	bdf0      	pop	{r4, r5, r6, r7, pc}
 8004a1a:	9846      	ldr	r0, [sp, #280]	@ 0x118
 8004a1c:	e7f9      	b.n	8004a12 <__ssvfiscanf_r+0x2a2>
 8004a1e:	46c0      	nop			@ (mov r8, r8)
 8004a20:	fffffd6c 	.word	0xfffffd6c
 8004a24:	080046b9 	.word	0x080046b9
 8004a28:	08004731 	.word	0x08004731
 8004a2c:	0800557b 	.word	0x0800557b
 8004a30:	08005502 	.word	0x08005502
 8004a34:	00000000 	.word	0x00000000

08004a38 <_printf_common>:
 8004a38:	b5f7      	push	{r0, r1, r2, r4, r5, r6, r7, lr}
 8004a3a:	0016      	movs	r6, r2
 8004a3c:	9301      	str	r3, [sp, #4]
 8004a3e:	688a      	ldr	r2, [r1, #8]
 8004a40:	690b      	ldr	r3, [r1, #16]
 8004a42:	000c      	movs	r4, r1
 8004a44:	9000      	str	r0, [sp, #0]
 8004a46:	4293      	cmp	r3, r2
 8004a48:	da00      	bge.n	8004a4c <_printf_common+0x14>
 8004a4a:	0013      	movs	r3, r2
 8004a4c:	0022      	movs	r2, r4
 8004a4e:	6033      	str	r3, [r6, #0]
 8004a50:	3243      	adds	r2, #67	@ 0x43
 8004a52:	7812      	ldrb	r2, [r2, #0]
 8004a54:	2a00      	cmp	r2, #0
 8004a56:	d001      	beq.n	8004a5c <_printf_common+0x24>
 8004a58:	3301      	adds	r3, #1
 8004a5a:	6033      	str	r3, [r6, #0]
 8004a5c:	6823      	ldr	r3, [r4, #0]
 8004a5e:	069b      	lsls	r3, r3, #26
 8004a60:	d502      	bpl.n	8004a68 <_printf_common+0x30>
 8004a62:	6833      	ldr	r3, [r6, #0]
 8004a64:	3302      	adds	r3, #2
 8004a66:	6033      	str	r3, [r6, #0]
 8004a68:	6822      	ldr	r2, [r4, #0]
 8004a6a:	2306      	movs	r3, #6
 8004a6c:	0015      	movs	r5, r2
 8004a6e:	401d      	ands	r5, r3
 8004a70:	421a      	tst	r2, r3
 8004a72:	d027      	beq.n	8004ac4 <_printf_common+0x8c>
 8004a74:	0023      	movs	r3, r4
 8004a76:	3343      	adds	r3, #67	@ 0x43
 8004a78:	781b      	ldrb	r3, [r3, #0]
 8004a7a:	1e5a      	subs	r2, r3, #1
 8004a7c:	4193      	sbcs	r3, r2
 8004a7e:	6822      	ldr	r2, [r4, #0]
 8004a80:	0692      	lsls	r2, r2, #26
 8004a82:	d430      	bmi.n	8004ae6 <_printf_common+0xae>
 8004a84:	0022      	movs	r2, r4
 8004a86:	9901      	ldr	r1, [sp, #4]
 8004a88:	9800      	ldr	r0, [sp, #0]
 8004a8a:	9d08      	ldr	r5, [sp, #32]
 8004a8c:	3243      	adds	r2, #67	@ 0x43
 8004a8e:	47a8      	blx	r5
 8004a90:	3001      	adds	r0, #1
 8004a92:	d025      	beq.n	8004ae0 <_printf_common+0xa8>
 8004a94:	2206      	movs	r2, #6
 8004a96:	6823      	ldr	r3, [r4, #0]
 8004a98:	2500      	movs	r5, #0
 8004a9a:	4013      	ands	r3, r2
 8004a9c:	2b04      	cmp	r3, #4
 8004a9e:	d105      	bne.n	8004aac <_printf_common+0x74>
 8004aa0:	6833      	ldr	r3, [r6, #0]
 8004aa2:	68e5      	ldr	r5, [r4, #12]
 8004aa4:	1aed      	subs	r5, r5, r3
 8004aa6:	43eb      	mvns	r3, r5
 8004aa8:	17db      	asrs	r3, r3, #31
 8004aaa:	401d      	ands	r5, r3
 8004aac:	68a3      	ldr	r3, [r4, #8]
 8004aae:	6922      	ldr	r2, [r4, #16]
 8004ab0:	4293      	cmp	r3, r2
 8004ab2:	dd01      	ble.n	8004ab8 <_printf_common+0x80>
 8004ab4:	1a9b      	subs	r3, r3, r2
 8004ab6:	18ed      	adds	r5, r5, r3
 8004ab8:	2600      	movs	r6, #0
 8004aba:	42b5      	cmp	r5, r6
 8004abc:	d120      	bne.n	8004b00 <_printf_common+0xc8>
 8004abe:	2000      	movs	r0, #0
 8004ac0:	e010      	b.n	8004ae4 <_printf_common+0xac>
 8004ac2:	3501      	adds	r5, #1
 8004ac4:	68e3      	ldr	r3, [r4, #12]
 8004ac6:	6832      	ldr	r2, [r6, #0]
 8004ac8:	1a9b      	subs	r3, r3, r2
 8004aca:	42ab      	cmp	r3, r5
 8004acc:	ddd2      	ble.n	8004a74 <_printf_common+0x3c>
 8004ace:	0022      	movs	r2, r4
 8004ad0:	2301      	movs	r3, #1
 8004ad2:	9901      	ldr	r1, [sp, #4]
 8004ad4:	9800      	ldr	r0, [sp, #0]
 8004ad6:	9f08      	ldr	r7, [sp, #32]
 8004ad8:	3219      	adds	r2, #25
 8004ada:	47b8      	blx	r7
 8004adc:	3001      	adds	r0, #1
 8004ade:	d1f0      	bne.n	8004ac2 <_printf_common+0x8a>
 8004ae0:	2001      	movs	r0, #1
 8004ae2:	4240      	negs	r0, r0
 8004ae4:	bdfe      	pop	{r1, r2, r3, r4, r5, r6, r7, pc}
 8004ae6:	2030      	movs	r0, #48	@ 0x30
 8004ae8:	18e1      	adds	r1, r4, r3
 8004aea:	3143      	adds	r1, #67	@ 0x43
 8004aec:	7008      	strb	r0, [r1, #0]
 8004aee:	0021      	movs	r1, r4
 8004af0:	1c5a      	adds	r2, r3, #1
 8004af2:	3145      	adds	r1, #69	@ 0x45
 8004af4:	7809      	ldrb	r1, [r1, #0]
 8004af6:	18a2      	adds	r2, r4, r2
 8004af8:	3243      	adds	r2, #67	@ 0x43
 8004afa:	3302      	adds	r3, #2
 8004afc:	7011      	strb	r1, [r2, #0]
 8004afe:	e7c1      	b.n	8004a84 <_printf_common+0x4c>
 8004b00:	0022      	movs	r2, r4
 8004b02:	2301      	movs	r3, #1
 8004b04:	9901      	ldr	r1, [sp, #4]
 8004b06:	9800      	ldr	r0, [sp, #0]
 8004b08:	9f08      	ldr	r7, [sp, #32]
 8004b0a:	321a      	adds	r2, #26
 8004b0c:	47b8      	blx	r7
 8004b0e:	3001      	adds	r0, #1
 8004b10:	d0e6      	beq.n	8004ae0 <_printf_common+0xa8>
 8004b12:	3601      	adds	r6, #1
 8004b14:	e7d1      	b.n	8004aba <_printf_common+0x82>
	...

08004b18 <_printf_i>:
 8004b18:	b5f0      	push	{r4, r5, r6, r7, lr}
 8004b1a:	b08b      	sub	sp, #44	@ 0x2c
 8004b1c:	9206      	str	r2, [sp, #24]
 8004b1e:	000a      	movs	r2, r1
 8004b20:	3243      	adds	r2, #67	@ 0x43
 8004b22:	9307      	str	r3, [sp, #28]
 8004b24:	9005      	str	r0, [sp, #20]
 8004b26:	9203      	str	r2, [sp, #12]
 8004b28:	7e0a      	ldrb	r2, [r1, #24]
 8004b2a:	000c      	movs	r4, r1
 8004b2c:	9b10      	ldr	r3, [sp, #64]	@ 0x40
 8004b2e:	2a78      	cmp	r2, #120	@ 0x78
 8004b30:	d809      	bhi.n	8004b46 <_printf_i+0x2e>
 8004b32:	2a62      	cmp	r2, #98	@ 0x62
 8004b34:	d80b      	bhi.n	8004b4e <_printf_i+0x36>
 8004b36:	2a00      	cmp	r2, #0
 8004b38:	d100      	bne.n	8004b3c <_printf_i+0x24>
 8004b3a:	e0ba      	b.n	8004cb2 <_printf_i+0x19a>
 8004b3c:	497a      	ldr	r1, [pc, #488]	@ (8004d28 <_printf_i+0x210>)
 8004b3e:	9104      	str	r1, [sp, #16]
 8004b40:	2a58      	cmp	r2, #88	@ 0x58
 8004b42:	d100      	bne.n	8004b46 <_printf_i+0x2e>
 8004b44:	e08e      	b.n	8004c64 <_printf_i+0x14c>
 8004b46:	0025      	movs	r5, r4
 8004b48:	3542      	adds	r5, #66	@ 0x42
 8004b4a:	702a      	strb	r2, [r5, #0]
 8004b4c:	e022      	b.n	8004b94 <_printf_i+0x7c>
 8004b4e:	0010      	movs	r0, r2
 8004b50:	3863      	subs	r0, #99	@ 0x63
 8004b52:	2815      	cmp	r0, #21
 8004b54:	d8f7      	bhi.n	8004b46 <_printf_i+0x2e>
 8004b56:	f7fb fafd 	bl	8000154 <__gnu_thumb1_case_shi>
 8004b5a:	0016      	.short	0x0016
 8004b5c:	fff6001f 	.word	0xfff6001f
 8004b60:	fff6fff6 	.word	0xfff6fff6
 8004b64:	001ffff6 	.word	0x001ffff6
 8004b68:	fff6fff6 	.word	0xfff6fff6
 8004b6c:	fff6fff6 	.word	0xfff6fff6
 8004b70:	0036009f 	.word	0x0036009f
 8004b74:	fff6007e 	.word	0xfff6007e
 8004b78:	00b0fff6 	.word	0x00b0fff6
 8004b7c:	0036fff6 	.word	0x0036fff6
 8004b80:	fff6fff6 	.word	0xfff6fff6
 8004b84:	0082      	.short	0x0082
 8004b86:	0025      	movs	r5, r4
 8004b88:	681a      	ldr	r2, [r3, #0]
 8004b8a:	3542      	adds	r5, #66	@ 0x42
 8004b8c:	1d11      	adds	r1, r2, #4
 8004b8e:	6019      	str	r1, [r3, #0]
 8004b90:	6813      	ldr	r3, [r2, #0]
 8004b92:	702b      	strb	r3, [r5, #0]
 8004b94:	2301      	movs	r3, #1
 8004b96:	e09e      	b.n	8004cd6 <_printf_i+0x1be>
 8004b98:	6818      	ldr	r0, [r3, #0]
 8004b9a:	6809      	ldr	r1, [r1, #0]
 8004b9c:	1d02      	adds	r2, r0, #4
 8004b9e:	060d      	lsls	r5, r1, #24
 8004ba0:	d50b      	bpl.n	8004bba <_printf_i+0xa2>
 8004ba2:	6806      	ldr	r6, [r0, #0]
 8004ba4:	601a      	str	r2, [r3, #0]
 8004ba6:	2e00      	cmp	r6, #0
 8004ba8:	da03      	bge.n	8004bb2 <_printf_i+0x9a>
 8004baa:	232d      	movs	r3, #45	@ 0x2d
 8004bac:	9a03      	ldr	r2, [sp, #12]
 8004bae:	4276      	negs	r6, r6
 8004bb0:	7013      	strb	r3, [r2, #0]
 8004bb2:	4b5d      	ldr	r3, [pc, #372]	@ (8004d28 <_printf_i+0x210>)
 8004bb4:	270a      	movs	r7, #10
 8004bb6:	9304      	str	r3, [sp, #16]
 8004bb8:	e018      	b.n	8004bec <_printf_i+0xd4>
 8004bba:	6806      	ldr	r6, [r0, #0]
 8004bbc:	601a      	str	r2, [r3, #0]
 8004bbe:	0649      	lsls	r1, r1, #25
 8004bc0:	d5f1      	bpl.n	8004ba6 <_printf_i+0x8e>
 8004bc2:	b236      	sxth	r6, r6
 8004bc4:	e7ef      	b.n	8004ba6 <_printf_i+0x8e>
 8004bc6:	6808      	ldr	r0, [r1, #0]
 8004bc8:	6819      	ldr	r1, [r3, #0]
 8004bca:	c940      	ldmia	r1!, {r6}
 8004bcc:	0605      	lsls	r5, r0, #24
 8004bce:	d402      	bmi.n	8004bd6 <_printf_i+0xbe>
 8004bd0:	0640      	lsls	r0, r0, #25
 8004bd2:	d500      	bpl.n	8004bd6 <_printf_i+0xbe>
 8004bd4:	b2b6      	uxth	r6, r6
 8004bd6:	6019      	str	r1, [r3, #0]
 8004bd8:	4b53      	ldr	r3, [pc, #332]	@ (8004d28 <_printf_i+0x210>)
 8004bda:	270a      	movs	r7, #10
 8004bdc:	9304      	str	r3, [sp, #16]
 8004bde:	2a6f      	cmp	r2, #111	@ 0x6f
 8004be0:	d100      	bne.n	8004be4 <_printf_i+0xcc>
 8004be2:	3f02      	subs	r7, #2
 8004be4:	0023      	movs	r3, r4
 8004be6:	2200      	movs	r2, #0
 8004be8:	3343      	adds	r3, #67	@ 0x43
 8004bea:	701a      	strb	r2, [r3, #0]
 8004bec:	6863      	ldr	r3, [r4, #4]
 8004bee:	60a3      	str	r3, [r4, #8]
 8004bf0:	2b00      	cmp	r3, #0
 8004bf2:	db06      	blt.n	8004c02 <_printf_i+0xea>
 8004bf4:	2104      	movs	r1, #4
 8004bf6:	6822      	ldr	r2, [r4, #0]
 8004bf8:	9d03      	ldr	r5, [sp, #12]
 8004bfa:	438a      	bics	r2, r1
 8004bfc:	6022      	str	r2, [r4, #0]
 8004bfe:	4333      	orrs	r3, r6
 8004c00:	d00c      	beq.n	8004c1c <_printf_i+0x104>
 8004c02:	9d03      	ldr	r5, [sp, #12]
 8004c04:	0030      	movs	r0, r6
 8004c06:	0039      	movs	r1, r7
 8004c08:	f7fb fb34 	bl	8000274 <__aeabi_uidivmod>
 8004c0c:	9b04      	ldr	r3, [sp, #16]
 8004c0e:	3d01      	subs	r5, #1
 8004c10:	5c5b      	ldrb	r3, [r3, r1]
 8004c12:	702b      	strb	r3, [r5, #0]
 8004c14:	0033      	movs	r3, r6
 8004c16:	0006      	movs	r6, r0
 8004c18:	429f      	cmp	r7, r3
 8004c1a:	d9f3      	bls.n	8004c04 <_printf_i+0xec>
 8004c1c:	2f08      	cmp	r7, #8
 8004c1e:	d109      	bne.n	8004c34 <_printf_i+0x11c>
 8004c20:	6823      	ldr	r3, [r4, #0]
 8004c22:	07db      	lsls	r3, r3, #31
 8004c24:	d506      	bpl.n	8004c34 <_printf_i+0x11c>
 8004c26:	6862      	ldr	r2, [r4, #4]
 8004c28:	6923      	ldr	r3, [r4, #16]
 8004c2a:	429a      	cmp	r2, r3
 8004c2c:	dc02      	bgt.n	8004c34 <_printf_i+0x11c>
 8004c2e:	2330      	movs	r3, #48	@ 0x30
 8004c30:	3d01      	subs	r5, #1
 8004c32:	702b      	strb	r3, [r5, #0]
 8004c34:	9b03      	ldr	r3, [sp, #12]
 8004c36:	1b5b      	subs	r3, r3, r5
 8004c38:	6123      	str	r3, [r4, #16]
 8004c3a:	9b07      	ldr	r3, [sp, #28]
 8004c3c:	0021      	movs	r1, r4
 8004c3e:	9300      	str	r3, [sp, #0]
 8004c40:	9805      	ldr	r0, [sp, #20]
 8004c42:	9b06      	ldr	r3, [sp, #24]
 8004c44:	aa09      	add	r2, sp, #36	@ 0x24
 8004c46:	f7ff fef7 	bl	8004a38 <_printf_common>
 8004c4a:	3001      	adds	r0, #1
 8004c4c:	d148      	bne.n	8004ce0 <_printf_i+0x1c8>
 8004c4e:	2001      	movs	r0, #1
 8004c50:	4240      	negs	r0, r0
 8004c52:	b00b      	add	sp, #44	@ 0x2c
 8004c54:	bdf0      	pop	{r4, r5, r6, r7, pc}
 8004c56:	2220      	movs	r2, #32
 8004c58:	6809      	ldr	r1, [r1, #0]
 8004c5a:	430a      	orrs	r2, r1
 8004c5c:	6022      	str	r2, [r4, #0]
 8004c5e:	2278      	movs	r2, #120	@ 0x78
 8004c60:	4932      	ldr	r1, [pc, #200]	@ (8004d2c <_printf_i+0x214>)
 8004c62:	9104      	str	r1, [sp, #16]
 8004c64:	0021      	movs	r1, r4
 8004c66:	3145      	adds	r1, #69	@ 0x45
 8004c68:	700a      	strb	r2, [r1, #0]
 8004c6a:	6819      	ldr	r1, [r3, #0]
 8004c6c:	6822      	ldr	r2, [r4, #0]
 8004c6e:	c940      	ldmia	r1!, {r6}
 8004c70:	0610      	lsls	r0, r2, #24
 8004c72:	d402      	bmi.n	8004c7a <_printf_i+0x162>
 8004c74:	0650      	lsls	r0, r2, #25
 8004c76:	d500      	bpl.n	8004c7a <_printf_i+0x162>
 8004c78:	b2b6      	uxth	r6, r6
 8004c7a:	6019      	str	r1, [r3, #0]
 8004c7c:	07d3      	lsls	r3, r2, #31
 8004c7e:	d502      	bpl.n	8004c86 <_printf_i+0x16e>
 8004c80:	2320      	movs	r3, #32
 8004c82:	4313      	orrs	r3, r2
 8004c84:	6023      	str	r3, [r4, #0]
 8004c86:	2e00      	cmp	r6, #0
 8004c88:	d001      	beq.n	8004c8e <_printf_i+0x176>
 8004c8a:	2710      	movs	r7, #16
 8004c8c:	e7aa      	b.n	8004be4 <_printf_i+0xcc>
 8004c8e:	2220      	movs	r2, #32
 8004c90:	6823      	ldr	r3, [r4, #0]
 8004c92:	4393      	bics	r3, r2
 8004c94:	6023      	str	r3, [r4, #0]
 8004c96:	e7f8      	b.n	8004c8a <_printf_i+0x172>
 8004c98:	681a      	ldr	r2, [r3, #0]
 8004c9a:	680d      	ldr	r5, [r1, #0]
 8004c9c:	1d10      	adds	r0, r2, #4
 8004c9e:	6949      	ldr	r1, [r1, #20]
 8004ca0:	6018      	str	r0, [r3, #0]
 8004ca2:	6813      	ldr	r3, [r2, #0]
 8004ca4:	062e      	lsls	r6, r5, #24
 8004ca6:	d501      	bpl.n	8004cac <_printf_i+0x194>
 8004ca8:	6019      	str	r1, [r3, #0]
 8004caa:	e002      	b.n	8004cb2 <_printf_i+0x19a>
 8004cac:	066d      	lsls	r5, r5, #25
 8004cae:	d5fb      	bpl.n	8004ca8 <_printf_i+0x190>
 8004cb0:	8019      	strh	r1, [r3, #0]
 8004cb2:	2300      	movs	r3, #0
 8004cb4:	9d03      	ldr	r5, [sp, #12]
 8004cb6:	6123      	str	r3, [r4, #16]
 8004cb8:	e7bf      	b.n	8004c3a <_printf_i+0x122>
 8004cba:	681a      	ldr	r2, [r3, #0]
 8004cbc:	1d11      	adds	r1, r2, #4
 8004cbe:	6019      	str	r1, [r3, #0]
 8004cc0:	6815      	ldr	r5, [r2, #0]
 8004cc2:	2100      	movs	r1, #0
 8004cc4:	0028      	movs	r0, r5
 8004cc6:	6862      	ldr	r2, [r4, #4]
 8004cc8:	f000 fa2e 	bl	8005128 <memchr>
 8004ccc:	2800      	cmp	r0, #0
 8004cce:	d001      	beq.n	8004cd4 <_printf_i+0x1bc>
 8004cd0:	1b40      	subs	r0, r0, r5
 8004cd2:	6060      	str	r0, [r4, #4]
 8004cd4:	6863      	ldr	r3, [r4, #4]
 8004cd6:	6123      	str	r3, [r4, #16]
 8004cd8:	2300      	movs	r3, #0
 8004cda:	9a03      	ldr	r2, [sp, #12]
 8004cdc:	7013      	strb	r3, [r2, #0]
 8004cde:	e7ac      	b.n	8004c3a <_printf_i+0x122>
 8004ce0:	002a      	movs	r2, r5
 8004ce2:	6923      	ldr	r3, [r4, #16]
 8004ce4:	9906      	ldr	r1, [sp, #24]
 8004ce6:	9805      	ldr	r0, [sp, #20]
 8004ce8:	9d07      	ldr	r5, [sp, #28]
 8004cea:	47a8      	blx	r5
 8004cec:	3001      	adds	r0, #1
 8004cee:	d0ae      	beq.n	8004c4e <_printf_i+0x136>
 8004cf0:	6823      	ldr	r3, [r4, #0]
 8004cf2:	079b      	lsls	r3, r3, #30
 8004cf4:	d415      	bmi.n	8004d22 <_printf_i+0x20a>
 8004cf6:	9b09      	ldr	r3, [sp, #36]	@ 0x24
 8004cf8:	68e0      	ldr	r0, [r4, #12]
 8004cfa:	4298      	cmp	r0, r3
 8004cfc:	daa9      	bge.n	8004c52 <_printf_i+0x13a>
 8004cfe:	0018      	movs	r0, r3
 8004d00:	e7a7      	b.n	8004c52 <_printf_i+0x13a>
 8004d02:	0022      	movs	r2, r4
 8004d04:	2301      	movs	r3, #1
 8004d06:	9906      	ldr	r1, [sp, #24]
 8004d08:	9805      	ldr	r0, [sp, #20]
 8004d0a:	9e07      	ldr	r6, [sp, #28]
 8004d0c:	3219      	adds	r2, #25
 8004d0e:	47b0      	blx	r6
 8004d10:	3001      	adds	r0, #1
 8004d12:	d09c      	beq.n	8004c4e <_printf_i+0x136>
 8004d14:	3501      	adds	r5, #1
 8004d16:	68e3      	ldr	r3, [r4, #12]
 8004d18:	9a09      	ldr	r2, [sp, #36]	@ 0x24
 8004d1a:	1a9b      	subs	r3, r3, r2
 8004d1c:	42ab      	cmp	r3, r5
 8004d1e:	dcf0      	bgt.n	8004d02 <_printf_i+0x1ea>
 8004d20:	e7e9      	b.n	8004cf6 <_printf_i+0x1de>
 8004d22:	2500      	movs	r5, #0
 8004d24:	e7f7      	b.n	8004d16 <_printf_i+0x1fe>
 8004d26:	46c0      	nop			@ (mov r8, r8)
 8004d28:	0800550d 	.word	0x0800550d
 8004d2c:	0800551e 	.word	0x0800551e

08004d30 <_scanf_chars>:
 8004d30:	b5f7      	push	{r0, r1, r2, r4, r5, r6, r7, lr}
 8004d32:	0015      	movs	r5, r2
 8004d34:	688a      	ldr	r2, [r1, #8]
 8004d36:	000c      	movs	r4, r1
 8004d38:	9001      	str	r0, [sp, #4]
 8004d3a:	2a00      	cmp	r2, #0
 8004d3c:	d104      	bne.n	8004d48 <_scanf_chars+0x18>
 8004d3e:	698a      	ldr	r2, [r1, #24]
 8004d40:	2a00      	cmp	r2, #0
 8004d42:	d117      	bne.n	8004d74 <_scanf_chars+0x44>
 8004d44:	3201      	adds	r2, #1
 8004d46:	60a2      	str	r2, [r4, #8]
 8004d48:	6822      	ldr	r2, [r4, #0]
 8004d4a:	06d2      	lsls	r2, r2, #27
 8004d4c:	d403      	bmi.n	8004d56 <_scanf_chars+0x26>
 8004d4e:	681a      	ldr	r2, [r3, #0]
 8004d50:	1d11      	adds	r1, r2, #4
 8004d52:	6019      	str	r1, [r3, #0]
 8004d54:	6817      	ldr	r7, [r2, #0]
 8004d56:	2600      	movs	r6, #0
 8004d58:	69a0      	ldr	r0, [r4, #24]
 8004d5a:	2800      	cmp	r0, #0
 8004d5c:	d016      	beq.n	8004d8c <_scanf_chars+0x5c>
 8004d5e:	2801      	cmp	r0, #1
 8004d60:	d10b      	bne.n	8004d7a <_scanf_chars+0x4a>
 8004d62:	682b      	ldr	r3, [r5, #0]
 8004d64:	6962      	ldr	r2, [r4, #20]
 8004d66:	781b      	ldrb	r3, [r3, #0]
 8004d68:	5cd3      	ldrb	r3, [r2, r3]
 8004d6a:	2b00      	cmp	r3, #0
 8004d6c:	d10e      	bne.n	8004d8c <_scanf_chars+0x5c>
 8004d6e:	2e00      	cmp	r6, #0
 8004d70:	d03b      	beq.n	8004dea <_scanf_chars+0xba>
 8004d72:	e029      	b.n	8004dc8 <_scanf_chars+0x98>
 8004d74:	2201      	movs	r2, #1
 8004d76:	4252      	negs	r2, r2
 8004d78:	e7e5      	b.n	8004d46 <_scanf_chars+0x16>
 8004d7a:	2802      	cmp	r0, #2
 8004d7c:	d124      	bne.n	8004dc8 <_scanf_chars+0x98>
 8004d7e:	682b      	ldr	r3, [r5, #0]
 8004d80:	4a1a      	ldr	r2, [pc, #104]	@ (8004dec <_scanf_chars+0xbc>)
 8004d82:	781b      	ldrb	r3, [r3, #0]
 8004d84:	5cd3      	ldrb	r3, [r2, r3]
 8004d86:	2208      	movs	r2, #8
 8004d88:	4213      	tst	r3, r2
 8004d8a:	d11d      	bne.n	8004dc8 <_scanf_chars+0x98>
 8004d8c:	2210      	movs	r2, #16
 8004d8e:	6823      	ldr	r3, [r4, #0]
 8004d90:	3601      	adds	r6, #1
 8004d92:	4213      	tst	r3, r2
 8004d94:	d103      	bne.n	8004d9e <_scanf_chars+0x6e>
 8004d96:	682b      	ldr	r3, [r5, #0]
 8004d98:	781b      	ldrb	r3, [r3, #0]
 8004d9a:	703b      	strb	r3, [r7, #0]
 8004d9c:	3701      	adds	r7, #1
 8004d9e:	682a      	ldr	r2, [r5, #0]
 8004da0:	686b      	ldr	r3, [r5, #4]
 8004da2:	3201      	adds	r2, #1
 8004da4:	602a      	str	r2, [r5, #0]
 8004da6:	68a2      	ldr	r2, [r4, #8]
 8004da8:	3b01      	subs	r3, #1
 8004daa:	3a01      	subs	r2, #1
 8004dac:	606b      	str	r3, [r5, #4]
 8004dae:	60a2      	str	r2, [r4, #8]
 8004db0:	2a00      	cmp	r2, #0
 8004db2:	d009      	beq.n	8004dc8 <_scanf_chars+0x98>
 8004db4:	2b00      	cmp	r3, #0
 8004db6:	dccf      	bgt.n	8004d58 <_scanf_chars+0x28>
 8004db8:	23c0      	movs	r3, #192	@ 0xc0
 8004dba:	005b      	lsls	r3, r3, #1
 8004dbc:	0029      	movs	r1, r5
 8004dbe:	58e3      	ldr	r3, [r4, r3]
 8004dc0:	9801      	ldr	r0, [sp, #4]
 8004dc2:	4798      	blx	r3
 8004dc4:	2800      	cmp	r0, #0
 8004dc6:	d0c7      	beq.n	8004d58 <_scanf_chars+0x28>
 8004dc8:	6822      	ldr	r2, [r4, #0]
 8004dca:	2310      	movs	r3, #16
 8004dcc:	0011      	movs	r1, r2
 8004dce:	4019      	ands	r1, r3
 8004dd0:	421a      	tst	r2, r3
 8004dd2:	d106      	bne.n	8004de2 <_scanf_chars+0xb2>
 8004dd4:	68e3      	ldr	r3, [r4, #12]
 8004dd6:	3301      	adds	r3, #1
 8004dd8:	60e3      	str	r3, [r4, #12]
 8004dda:	69a3      	ldr	r3, [r4, #24]
 8004ddc:	2b00      	cmp	r3, #0
 8004dde:	d000      	beq.n	8004de2 <_scanf_chars+0xb2>
 8004de0:	7039      	strb	r1, [r7, #0]
 8004de2:	2000      	movs	r0, #0
 8004de4:	6923      	ldr	r3, [r4, #16]
 8004de6:	199b      	adds	r3, r3, r6
 8004de8:	6123      	str	r3, [r4, #16]
 8004dea:	bdfe      	pop	{r1, r2, r3, r4, r5, r6, r7, pc}
 8004dec:	0800557b 	.word	0x0800557b

08004df0 <_scanf_i>:
 8004df0:	b5f0      	push	{r4, r5, r6, r7, lr}
 8004df2:	b08b      	sub	sp, #44	@ 0x2c
 8004df4:	9301      	str	r3, [sp, #4]
 8004df6:	4b78      	ldr	r3, [pc, #480]	@ (8004fd8 <_scanf_i+0x1e8>)
 8004df8:	0016      	movs	r6, r2
 8004dfa:	9004      	str	r0, [sp, #16]
 8004dfc:	aa07      	add	r2, sp, #28
 8004dfe:	cba1      	ldmia	r3!, {r0, r5, r7}
 8004e00:	c2a1      	stmia	r2!, {r0, r5, r7}
 8004e02:	4a76      	ldr	r2, [pc, #472]	@ (8004fdc <_scanf_i+0x1ec>)
 8004e04:	698b      	ldr	r3, [r1, #24]
 8004e06:	000c      	movs	r4, r1
 8004e08:	9205      	str	r2, [sp, #20]
 8004e0a:	2b03      	cmp	r3, #3
 8004e0c:	d101      	bne.n	8004e12 <_scanf_i+0x22>
 8004e0e:	4b74      	ldr	r3, [pc, #464]	@ (8004fe0 <_scanf_i+0x1f0>)
 8004e10:	9305      	str	r3, [sp, #20]
 8004e12:	22ae      	movs	r2, #174	@ 0xae
 8004e14:	2000      	movs	r0, #0
 8004e16:	68a3      	ldr	r3, [r4, #8]
 8004e18:	0052      	lsls	r2, r2, #1
 8004e1a:	1e59      	subs	r1, r3, #1
 8004e1c:	9003      	str	r0, [sp, #12]
 8004e1e:	4291      	cmp	r1, r2
 8004e20:	d905      	bls.n	8004e2e <_scanf_i+0x3e>
 8004e22:	3b5e      	subs	r3, #94	@ 0x5e
 8004e24:	3bff      	subs	r3, #255	@ 0xff
 8004e26:	9303      	str	r3, [sp, #12]
 8004e28:	235e      	movs	r3, #94	@ 0x5e
 8004e2a:	33ff      	adds	r3, #255	@ 0xff
 8004e2c:	60a3      	str	r3, [r4, #8]
 8004e2e:	0023      	movs	r3, r4
 8004e30:	331c      	adds	r3, #28
 8004e32:	9300      	str	r3, [sp, #0]
 8004e34:	23d0      	movs	r3, #208	@ 0xd0
 8004e36:	2700      	movs	r7, #0
 8004e38:	6822      	ldr	r2, [r4, #0]
 8004e3a:	011b      	lsls	r3, r3, #4
 8004e3c:	4313      	orrs	r3, r2
 8004e3e:	6023      	str	r3, [r4, #0]
 8004e40:	9b00      	ldr	r3, [sp, #0]
 8004e42:	9302      	str	r3, [sp, #8]
 8004e44:	6833      	ldr	r3, [r6, #0]
 8004e46:	a807      	add	r0, sp, #28
 8004e48:	7819      	ldrb	r1, [r3, #0]
 8004e4a:	00bb      	lsls	r3, r7, #2
 8004e4c:	2202      	movs	r2, #2
 8004e4e:	5818      	ldr	r0, [r3, r0]
 8004e50:	f000 f96a 	bl	8005128 <memchr>
 8004e54:	2800      	cmp	r0, #0
 8004e56:	d029      	beq.n	8004eac <_scanf_i+0xbc>
 8004e58:	2f01      	cmp	r7, #1
 8004e5a:	d15e      	bne.n	8004f1a <_scanf_i+0x12a>
 8004e5c:	6863      	ldr	r3, [r4, #4]
 8004e5e:	2b00      	cmp	r3, #0
 8004e60:	d106      	bne.n	8004e70 <_scanf_i+0x80>
 8004e62:	3308      	adds	r3, #8
 8004e64:	6822      	ldr	r2, [r4, #0]
 8004e66:	6063      	str	r3, [r4, #4]
 8004e68:	33f9      	adds	r3, #249	@ 0xf9
 8004e6a:	33ff      	adds	r3, #255	@ 0xff
 8004e6c:	4313      	orrs	r3, r2
 8004e6e:	6023      	str	r3, [r4, #0]
 8004e70:	6823      	ldr	r3, [r4, #0]
 8004e72:	4a5c      	ldr	r2, [pc, #368]	@ (8004fe4 <_scanf_i+0x1f4>)
 8004e74:	4013      	ands	r3, r2
 8004e76:	6023      	str	r3, [r4, #0]
 8004e78:	68a3      	ldr	r3, [r4, #8]
 8004e7a:	1e5a      	subs	r2, r3, #1
 8004e7c:	60a2      	str	r2, [r4, #8]
 8004e7e:	2b00      	cmp	r3, #0
 8004e80:	d014      	beq.n	8004eac <_scanf_i+0xbc>
 8004e82:	6833      	ldr	r3, [r6, #0]
 8004e84:	1c5a      	adds	r2, r3, #1
 8004e86:	6032      	str	r2, [r6, #0]
 8004e88:	781b      	ldrb	r3, [r3, #0]
 8004e8a:	9a02      	ldr	r2, [sp, #8]
 8004e8c:	7013      	strb	r3, [r2, #0]
 8004e8e:	6873      	ldr	r3, [r6, #4]
 8004e90:	1c55      	adds	r5, r2, #1
 8004e92:	3b01      	subs	r3, #1
 8004e94:	6073      	str	r3, [r6, #4]
 8004e96:	2b00      	cmp	r3, #0
 8004e98:	dc07      	bgt.n	8004eaa <_scanf_i+0xba>
 8004e9a:	23c0      	movs	r3, #192	@ 0xc0
 8004e9c:	005b      	lsls	r3, r3, #1
 8004e9e:	0031      	movs	r1, r6
 8004ea0:	58e3      	ldr	r3, [r4, r3]
 8004ea2:	9804      	ldr	r0, [sp, #16]
 8004ea4:	4798      	blx	r3
 8004ea6:	2800      	cmp	r0, #0
 8004ea8:	d17e      	bne.n	8004fa8 <_scanf_i+0x1b8>
 8004eaa:	9502      	str	r5, [sp, #8]
 8004eac:	3701      	adds	r7, #1
 8004eae:	2f03      	cmp	r7, #3
 8004eb0:	d1c8      	bne.n	8004e44 <_scanf_i+0x54>
 8004eb2:	6863      	ldr	r3, [r4, #4]
 8004eb4:	2b00      	cmp	r3, #0
 8004eb6:	d101      	bne.n	8004ebc <_scanf_i+0xcc>
 8004eb8:	330a      	adds	r3, #10
 8004eba:	6063      	str	r3, [r4, #4]
 8004ebc:	2700      	movs	r7, #0
 8004ebe:	6863      	ldr	r3, [r4, #4]
 8004ec0:	4949      	ldr	r1, [pc, #292]	@ (8004fe8 <_scanf_i+0x1f8>)
 8004ec2:	6960      	ldr	r0, [r4, #20]
 8004ec4:	1ac9      	subs	r1, r1, r3
 8004ec6:	f000 f893 	bl	8004ff0 <__sccl>
 8004eca:	9d02      	ldr	r5, [sp, #8]
 8004ecc:	68a3      	ldr	r3, [r4, #8]
 8004ece:	6820      	ldr	r0, [r4, #0]
 8004ed0:	9302      	str	r3, [sp, #8]
 8004ed2:	2b00      	cmp	r3, #0
 8004ed4:	d03f      	beq.n	8004f56 <_scanf_i+0x166>
 8004ed6:	6831      	ldr	r1, [r6, #0]
 8004ed8:	6963      	ldr	r3, [r4, #20]
 8004eda:	780a      	ldrb	r2, [r1, #0]
 8004edc:	5c9b      	ldrb	r3, [r3, r2]
 8004ede:	2b00      	cmp	r3, #0
 8004ee0:	d039      	beq.n	8004f56 <_scanf_i+0x166>
 8004ee2:	2a30      	cmp	r2, #48	@ 0x30
 8004ee4:	d128      	bne.n	8004f38 <_scanf_i+0x148>
 8004ee6:	2380      	movs	r3, #128	@ 0x80
 8004ee8:	011b      	lsls	r3, r3, #4
 8004eea:	4218      	tst	r0, r3
 8004eec:	d024      	beq.n	8004f38 <_scanf_i+0x148>
 8004eee:	9b03      	ldr	r3, [sp, #12]
 8004ef0:	3701      	adds	r7, #1
 8004ef2:	2b00      	cmp	r3, #0
 8004ef4:	d005      	beq.n	8004f02 <_scanf_i+0x112>
 8004ef6:	001a      	movs	r2, r3
 8004ef8:	9b02      	ldr	r3, [sp, #8]
 8004efa:	3a01      	subs	r2, #1
 8004efc:	3301      	adds	r3, #1
 8004efe:	9203      	str	r2, [sp, #12]
 8004f00:	60a3      	str	r3, [r4, #8]
 8004f02:	6873      	ldr	r3, [r6, #4]
 8004f04:	3b01      	subs	r3, #1
 8004f06:	6073      	str	r3, [r6, #4]
 8004f08:	2b00      	cmp	r3, #0
 8004f0a:	dd1c      	ble.n	8004f46 <_scanf_i+0x156>
 8004f0c:	6833      	ldr	r3, [r6, #0]
 8004f0e:	3301      	adds	r3, #1
 8004f10:	6033      	str	r3, [r6, #0]
 8004f12:	68a3      	ldr	r3, [r4, #8]
 8004f14:	3b01      	subs	r3, #1
 8004f16:	60a3      	str	r3, [r4, #8]
 8004f18:	e7d8      	b.n	8004ecc <_scanf_i+0xdc>
 8004f1a:	2f02      	cmp	r7, #2
 8004f1c:	d1ac      	bne.n	8004e78 <_scanf_i+0x88>
 8004f1e:	23c0      	movs	r3, #192	@ 0xc0
 8004f20:	2180      	movs	r1, #128	@ 0x80
 8004f22:	6822      	ldr	r2, [r4, #0]
 8004f24:	00db      	lsls	r3, r3, #3
 8004f26:	4013      	ands	r3, r2
 8004f28:	0089      	lsls	r1, r1, #2
 8004f2a:	428b      	cmp	r3, r1
 8004f2c:	d1c1      	bne.n	8004eb2 <_scanf_i+0xc2>
 8004f2e:	2310      	movs	r3, #16
 8004f30:	6063      	str	r3, [r4, #4]
 8004f32:	33f0      	adds	r3, #240	@ 0xf0
 8004f34:	4313      	orrs	r3, r2
 8004f36:	e79e      	b.n	8004e76 <_scanf_i+0x86>
 8004f38:	4b2c      	ldr	r3, [pc, #176]	@ (8004fec <_scanf_i+0x1fc>)
 8004f3a:	4003      	ands	r3, r0
 8004f3c:	6023      	str	r3, [r4, #0]
 8004f3e:	780b      	ldrb	r3, [r1, #0]
 8004f40:	702b      	strb	r3, [r5, #0]
 8004f42:	3501      	adds	r5, #1
 8004f44:	e7dd      	b.n	8004f02 <_scanf_i+0x112>
 8004f46:	23c0      	movs	r3, #192	@ 0xc0
 8004f48:	005b      	lsls	r3, r3, #1
 8004f4a:	0031      	movs	r1, r6
 8004f4c:	58e3      	ldr	r3, [r4, r3]
 8004f4e:	9804      	ldr	r0, [sp, #16]
 8004f50:	4798      	blx	r3
 8004f52:	2800      	cmp	r0, #0
 8004f54:	d0dd      	beq.n	8004f12 <_scanf_i+0x122>
 8004f56:	6823      	ldr	r3, [r4, #0]
 8004f58:	05db      	lsls	r3, r3, #23
 8004f5a:	d50e      	bpl.n	8004f7a <_scanf_i+0x18a>
 8004f5c:	9b00      	ldr	r3, [sp, #0]
 8004f5e:	429d      	cmp	r5, r3
 8004f60:	d907      	bls.n	8004f72 <_scanf_i+0x182>
 8004f62:	23be      	movs	r3, #190	@ 0xbe
 8004f64:	3d01      	subs	r5, #1
 8004f66:	005b      	lsls	r3, r3, #1
 8004f68:	0032      	movs	r2, r6
 8004f6a:	7829      	ldrb	r1, [r5, #0]
 8004f6c:	58e3      	ldr	r3, [r4, r3]
 8004f6e:	9804      	ldr	r0, [sp, #16]
 8004f70:	4798      	blx	r3
 8004f72:	9b00      	ldr	r3, [sp, #0]
 8004f74:	2001      	movs	r0, #1
 8004f76:	429d      	cmp	r5, r3
 8004f78:	d029      	beq.n	8004fce <_scanf_i+0x1de>
 8004f7a:	6821      	ldr	r1, [r4, #0]
 8004f7c:	2310      	movs	r3, #16
 8004f7e:	000a      	movs	r2, r1
 8004f80:	401a      	ands	r2, r3
 8004f82:	4219      	tst	r1, r3
 8004f84:	d11c      	bne.n	8004fc0 <_scanf_i+0x1d0>
 8004f86:	702a      	strb	r2, [r5, #0]
 8004f88:	6863      	ldr	r3, [r4, #4]
 8004f8a:	9900      	ldr	r1, [sp, #0]
 8004f8c:	9804      	ldr	r0, [sp, #16]
 8004f8e:	9e05      	ldr	r6, [sp, #20]
 8004f90:	47b0      	blx	r6
 8004f92:	9b01      	ldr	r3, [sp, #4]
 8004f94:	6822      	ldr	r2, [r4, #0]
 8004f96:	681b      	ldr	r3, [r3, #0]
 8004f98:	0691      	lsls	r1, r2, #26
 8004f9a:	d507      	bpl.n	8004fac <_scanf_i+0x1bc>
 8004f9c:	9901      	ldr	r1, [sp, #4]
 8004f9e:	1d1a      	adds	r2, r3, #4
 8004fa0:	600a      	str	r2, [r1, #0]
 8004fa2:	681b      	ldr	r3, [r3, #0]
 8004fa4:	6018      	str	r0, [r3, #0]
 8004fa6:	e008      	b.n	8004fba <_scanf_i+0x1ca>
 8004fa8:	2700      	movs	r7, #0
 8004faa:	e7d4      	b.n	8004f56 <_scanf_i+0x166>
 8004fac:	1d19      	adds	r1, r3, #4
 8004fae:	07d6      	lsls	r6, r2, #31
 8004fb0:	d50f      	bpl.n	8004fd2 <_scanf_i+0x1e2>
 8004fb2:	9a01      	ldr	r2, [sp, #4]
 8004fb4:	6011      	str	r1, [r2, #0]
 8004fb6:	681b      	ldr	r3, [r3, #0]
 8004fb8:	8018      	strh	r0, [r3, #0]
 8004fba:	68e3      	ldr	r3, [r4, #12]
 8004fbc:	3301      	adds	r3, #1
 8004fbe:	60e3      	str	r3, [r4, #12]
 8004fc0:	2000      	movs	r0, #0
 8004fc2:	9b00      	ldr	r3, [sp, #0]
 8004fc4:	1aed      	subs	r5, r5, r3
 8004fc6:	6923      	ldr	r3, [r4, #16]
 8004fc8:	19ed      	adds	r5, r5, r7
 8004fca:	195b      	adds	r3, r3, r5
 8004fcc:	6123      	str	r3, [r4, #16]
 8004fce:	b00b      	add	sp, #44	@ 0x2c
 8004fd0:	bdf0      	pop	{r4, r5, r6, r7, pc}
 8004fd2:	9a01      	ldr	r2, [sp, #4]
 8004fd4:	6011      	str	r1, [r2, #0]
 8004fd6:	e7e4      	b.n	8004fa2 <_scanf_i+0x1b2>
 8004fd8:	080053f0 	.word	0x080053f0
 8004fdc:	080053c1 	.word	0x080053c1
 8004fe0:	080052b5 	.word	0x080052b5
 8004fe4:	fffffaff 	.word	0xfffffaff
 8004fe8:	0800553f 	.word	0x0800553f
 8004fec:	fffff6ff 	.word	0xfffff6ff

08004ff0 <__sccl>:
 8004ff0:	b570      	push	{r4, r5, r6, lr}
 8004ff2:	780b      	ldrb	r3, [r1, #0]
 8004ff4:	0004      	movs	r4, r0
 8004ff6:	2b5e      	cmp	r3, #94	@ 0x5e
 8004ff8:	d019      	beq.n	800502e <__sccl+0x3e>
 8004ffa:	1c4d      	adds	r5, r1, #1
 8004ffc:	2100      	movs	r1, #0
 8004ffe:	0022      	movs	r2, r4
 8005000:	1c60      	adds	r0, r4, #1
 8005002:	30ff      	adds	r0, #255	@ 0xff
 8005004:	7011      	strb	r1, [r2, #0]
 8005006:	3201      	adds	r2, #1
 8005008:	4282      	cmp	r2, r0
 800500a:	d1fb      	bne.n	8005004 <__sccl+0x14>
 800500c:	1e68      	subs	r0, r5, #1
 800500e:	2b00      	cmp	r3, #0
 8005010:	d026      	beq.n	8005060 <__sccl+0x70>
 8005012:	2601      	movs	r6, #1
 8005014:	404e      	eors	r6, r1
 8005016:	0028      	movs	r0, r5
 8005018:	54e6      	strb	r6, [r4, r3]
 800501a:	7801      	ldrb	r1, [r0, #0]
 800501c:	1c45      	adds	r5, r0, #1
 800501e:	292d      	cmp	r1, #45	@ 0x2d
 8005020:	d009      	beq.n	8005036 <__sccl+0x46>
 8005022:	295d      	cmp	r1, #93	@ 0x5d
 8005024:	d01b      	beq.n	800505e <__sccl+0x6e>
 8005026:	2900      	cmp	r1, #0
 8005028:	d01a      	beq.n	8005060 <__sccl+0x70>
 800502a:	000b      	movs	r3, r1
 800502c:	e7f3      	b.n	8005016 <__sccl+0x26>
 800502e:	784b      	ldrb	r3, [r1, #1]
 8005030:	1c8d      	adds	r5, r1, #2
 8005032:	2101      	movs	r1, #1
 8005034:	e7e3      	b.n	8004ffe <__sccl+0xe>
 8005036:	7842      	ldrb	r2, [r0, #1]
 8005038:	2a5d      	cmp	r2, #93	@ 0x5d
 800503a:	d0f6      	beq.n	800502a <__sccl+0x3a>
 800503c:	4293      	cmp	r3, r2
 800503e:	dcf4      	bgt.n	800502a <__sccl+0x3a>
 8005040:	0019      	movs	r1, r3
 8005042:	3002      	adds	r0, #2
 8005044:	3101      	adds	r1, #1
 8005046:	5466      	strb	r6, [r4, r1]
 8005048:	428a      	cmp	r2, r1
 800504a:	dcfb      	bgt.n	8005044 <__sccl+0x54>
 800504c:	1c59      	adds	r1, r3, #1
 800504e:	4293      	cmp	r3, r2
 8005050:	db02      	blt.n	8005058 <__sccl+0x68>
 8005052:	2200      	movs	r2, #0
 8005054:	188b      	adds	r3, r1, r2
 8005056:	e7e0      	b.n	800501a <__sccl+0x2a>
 8005058:	1ad2      	subs	r2, r2, r3
 800505a:	3a01      	subs	r2, #1
 800505c:	e7fa      	b.n	8005054 <__sccl+0x64>
 800505e:	0028      	movs	r0, r5
 8005060:	bd70      	pop	{r4, r5, r6, pc}
	...

08005064 <__submore>:
 8005064:	000b      	movs	r3, r1
 8005066:	b5f7      	push	{r0, r1, r2, r4, r5, r6, r7, lr}
 8005068:	6b4d      	ldr	r5, [r1, #52]	@ 0x34
 800506a:	3344      	adds	r3, #68	@ 0x44
 800506c:	000c      	movs	r4, r1
 800506e:	429d      	cmp	r5, r3
 8005070:	d11c      	bne.n	80050ac <__submore+0x48>
 8005072:	2680      	movs	r6, #128	@ 0x80
 8005074:	00f6      	lsls	r6, r6, #3
 8005076:	0031      	movs	r1, r6
 8005078:	f7ff f930 	bl	80042dc <_malloc_r>
 800507c:	2800      	cmp	r0, #0
 800507e:	d102      	bne.n	8005086 <__submore+0x22>
 8005080:	2001      	movs	r0, #1
 8005082:	4240      	negs	r0, r0
 8005084:	bdfe      	pop	{r1, r2, r3, r4, r5, r6, r7, pc}
 8005086:	0023      	movs	r3, r4
 8005088:	6360      	str	r0, [r4, #52]	@ 0x34
 800508a:	63a6      	str	r6, [r4, #56]	@ 0x38
 800508c:	3346      	adds	r3, #70	@ 0x46
 800508e:	781a      	ldrb	r2, [r3, #0]
 8005090:	4b10      	ldr	r3, [pc, #64]	@ (80050d4 <__submore+0x70>)
 8005092:	54c2      	strb	r2, [r0, r3]
 8005094:	0023      	movs	r3, r4
 8005096:	3345      	adds	r3, #69	@ 0x45
 8005098:	781a      	ldrb	r2, [r3, #0]
 800509a:	4b0f      	ldr	r3, [pc, #60]	@ (80050d8 <__submore+0x74>)
 800509c:	54c2      	strb	r2, [r0, r3]
 800509e:	782a      	ldrb	r2, [r5, #0]
 80050a0:	4b0e      	ldr	r3, [pc, #56]	@ (80050dc <__submore+0x78>)
 80050a2:	54c2      	strb	r2, [r0, r3]
 80050a4:	18c0      	adds	r0, r0, r3
 80050a6:	6020      	str	r0, [r4, #0]
 80050a8:	2000      	movs	r0, #0
 80050aa:	e7eb      	b.n	8005084 <__submore+0x20>
 80050ac:	6b8e      	ldr	r6, [r1, #56]	@ 0x38
 80050ae:	0029      	movs	r1, r5
 80050b0:	0073      	lsls	r3, r6, #1
 80050b2:	001a      	movs	r2, r3
 80050b4:	9301      	str	r3, [sp, #4]
 80050b6:	f000 f842 	bl	800513e <_realloc_r>
 80050ba:	1e05      	subs	r5, r0, #0
 80050bc:	d0e0      	beq.n	8005080 <__submore+0x1c>
 80050be:	1987      	adds	r7, r0, r6
 80050c0:	0001      	movs	r1, r0
 80050c2:	0032      	movs	r2, r6
 80050c4:	0038      	movs	r0, r7
 80050c6:	f7ff f893 	bl	80041f0 <memcpy>
 80050ca:	9b01      	ldr	r3, [sp, #4]
 80050cc:	6027      	str	r7, [r4, #0]
 80050ce:	6365      	str	r5, [r4, #52]	@ 0x34
 80050d0:	63a3      	str	r3, [r4, #56]	@ 0x38
 80050d2:	e7e9      	b.n	80050a8 <__submore+0x44>
 80050d4:	000003ff 	.word	0x000003ff
 80050d8:	000003fe 	.word	0x000003fe
 80050dc:	000003fd 	.word	0x000003fd

080050e0 <memmove>:
 80050e0:	b510      	push	{r4, lr}
 80050e2:	4288      	cmp	r0, r1
 80050e4:	d902      	bls.n	80050ec <memmove+0xc>
 80050e6:	188b      	adds	r3, r1, r2
 80050e8:	4298      	cmp	r0, r3
 80050ea:	d308      	bcc.n	80050fe <memmove+0x1e>
 80050ec:	2300      	movs	r3, #0
 80050ee:	429a      	cmp	r2, r3
 80050f0:	d007      	beq.n	8005102 <memmove+0x22>
 80050f2:	5ccc      	ldrb	r4, [r1, r3]
 80050f4:	54c4      	strb	r4, [r0, r3]
 80050f6:	3301      	adds	r3, #1
 80050f8:	e7f9      	b.n	80050ee <memmove+0xe>
 80050fa:	5c8b      	ldrb	r3, [r1, r2]
 80050fc:	5483      	strb	r3, [r0, r2]
 80050fe:	3a01      	subs	r2, #1
 8005100:	d2fb      	bcs.n	80050fa <memmove+0x1a>
 8005102:	bd10      	pop	{r4, pc}

08005104 <_sbrk_r>:
 8005104:	2300      	movs	r3, #0
 8005106:	b570      	push	{r4, r5, r6, lr}
 8005108:	4d06      	ldr	r5, [pc, #24]	@ (8005124 <_sbrk_r+0x20>)
 800510a:	0004      	movs	r4, r0
 800510c:	0008      	movs	r0, r1
 800510e:	602b      	str	r3, [r5, #0]
 8005110:	f7fb fcc0 	bl	8000a94 <_sbrk>
 8005114:	1c43      	adds	r3, r0, #1
 8005116:	d103      	bne.n	8005120 <_sbrk_r+0x1c>
 8005118:	682b      	ldr	r3, [r5, #0]
 800511a:	2b00      	cmp	r3, #0
 800511c:	d000      	beq.n	8005120 <_sbrk_r+0x1c>
 800511e:	6023      	str	r3, [r4, #0]
 8005120:	bd70      	pop	{r4, r5, r6, pc}
 8005122:	46c0      	nop			@ (mov r8, r8)
 8005124:	20000ca8 	.word	0x20000ca8

08005128 <memchr>:
 8005128:	b2c9      	uxtb	r1, r1
 800512a:	1882      	adds	r2, r0, r2
 800512c:	4290      	cmp	r0, r2
 800512e:	d101      	bne.n	8005134 <memchr+0xc>
 8005130:	2000      	movs	r0, #0
 8005132:	4770      	bx	lr
 8005134:	7803      	ldrb	r3, [r0, #0]
 8005136:	428b      	cmp	r3, r1
 8005138:	d0fb      	beq.n	8005132 <memchr+0xa>
 800513a:	3001      	adds	r0, #1
 800513c:	e7f6      	b.n	800512c <memchr+0x4>

0800513e <_realloc_r>:
 800513e:	b5f7      	push	{r0, r1, r2, r4, r5, r6, r7, lr}
 8005140:	0006      	movs	r6, r0
 8005142:	000c      	movs	r4, r1
 8005144:	0015      	movs	r5, r2
 8005146:	2900      	cmp	r1, #0
 8005148:	d105      	bne.n	8005156 <_realloc_r+0x18>
 800514a:	0011      	movs	r1, r2
 800514c:	f7ff f8c6 	bl	80042dc <_malloc_r>
 8005150:	0004      	movs	r4, r0
 8005152:	0020      	movs	r0, r4
 8005154:	bdfe      	pop	{r1, r2, r3, r4, r5, r6, r7, pc}
 8005156:	2a00      	cmp	r2, #0
 8005158:	d103      	bne.n	8005162 <_realloc_r+0x24>
 800515a:	f7ff f853 	bl	8004204 <_free_r>
 800515e:	002c      	movs	r4, r5
 8005160:	e7f7      	b.n	8005152 <_realloc_r+0x14>
 8005162:	f000 f931 	bl	80053c8 <_malloc_usable_size_r>
 8005166:	0007      	movs	r7, r0
 8005168:	4285      	cmp	r5, r0
 800516a:	d802      	bhi.n	8005172 <_realloc_r+0x34>
 800516c:	0843      	lsrs	r3, r0, #1
 800516e:	42ab      	cmp	r3, r5
 8005170:	d3ef      	bcc.n	8005152 <_realloc_r+0x14>
 8005172:	0029      	movs	r1, r5
 8005174:	0030      	movs	r0, r6
 8005176:	f7ff f8b1 	bl	80042dc <_malloc_r>
 800517a:	9001      	str	r0, [sp, #4]
 800517c:	2800      	cmp	r0, #0
 800517e:	d101      	bne.n	8005184 <_realloc_r+0x46>
 8005180:	9c01      	ldr	r4, [sp, #4]
 8005182:	e7e6      	b.n	8005152 <_realloc_r+0x14>
 8005184:	002a      	movs	r2, r5
 8005186:	42bd      	cmp	r5, r7
 8005188:	d900      	bls.n	800518c <_realloc_r+0x4e>
 800518a:	003a      	movs	r2, r7
 800518c:	0021      	movs	r1, r4
 800518e:	9801      	ldr	r0, [sp, #4]
 8005190:	f7ff f82e 	bl	80041f0 <memcpy>
 8005194:	0021      	movs	r1, r4
 8005196:	0030      	movs	r0, r6
 8005198:	f7ff f834 	bl	8004204 <_free_r>
 800519c:	e7f0      	b.n	8005180 <_realloc_r+0x42>
	...

080051a0 <_strtol_l.isra.0>:
 80051a0:	b5f0      	push	{r4, r5, r6, r7, lr}
 80051a2:	b085      	sub	sp, #20
 80051a4:	0017      	movs	r7, r2
 80051a6:	001e      	movs	r6, r3
 80051a8:	9003      	str	r0, [sp, #12]
 80051aa:	9101      	str	r1, [sp, #4]
 80051ac:	2b24      	cmp	r3, #36	@ 0x24
 80051ae:	d823      	bhi.n	80051f8 <_strtol_l.isra.0+0x58>
 80051b0:	000c      	movs	r4, r1
 80051b2:	2b01      	cmp	r3, #1
 80051b4:	d020      	beq.n	80051f8 <_strtol_l.isra.0+0x58>
 80051b6:	4b3d      	ldr	r3, [pc, #244]	@ (80052ac <_strtol_l.isra.0+0x10c>)
 80051b8:	2208      	movs	r2, #8
 80051ba:	469c      	mov	ip, r3
 80051bc:	0023      	movs	r3, r4
 80051be:	4661      	mov	r1, ip
 80051c0:	781d      	ldrb	r5, [r3, #0]
 80051c2:	3401      	adds	r4, #1
 80051c4:	5d48      	ldrb	r0, [r1, r5]
 80051c6:	0001      	movs	r1, r0
 80051c8:	4011      	ands	r1, r2
 80051ca:	4210      	tst	r0, r2
 80051cc:	d1f6      	bne.n	80051bc <_strtol_l.isra.0+0x1c>
 80051ce:	2d2d      	cmp	r5, #45	@ 0x2d
 80051d0:	d119      	bne.n	8005206 <_strtol_l.isra.0+0x66>
 80051d2:	7825      	ldrb	r5, [r4, #0]
 80051d4:	1c9c      	adds	r4, r3, #2
 80051d6:	2301      	movs	r3, #1
 80051d8:	9300      	str	r3, [sp, #0]
 80051da:	2210      	movs	r2, #16
 80051dc:	0033      	movs	r3, r6
 80051de:	4393      	bics	r3, r2
 80051e0:	d11d      	bne.n	800521e <_strtol_l.isra.0+0x7e>
 80051e2:	2d30      	cmp	r5, #48	@ 0x30
 80051e4:	d115      	bne.n	8005212 <_strtol_l.isra.0+0x72>
 80051e6:	2120      	movs	r1, #32
 80051e8:	7823      	ldrb	r3, [r4, #0]
 80051ea:	438b      	bics	r3, r1
 80051ec:	2b58      	cmp	r3, #88	@ 0x58
 80051ee:	d110      	bne.n	8005212 <_strtol_l.isra.0+0x72>
 80051f0:	7865      	ldrb	r5, [r4, #1]
 80051f2:	3402      	adds	r4, #2
 80051f4:	2610      	movs	r6, #16
 80051f6:	e012      	b.n	800521e <_strtol_l.isra.0+0x7e>
 80051f8:	f7fe ffce 	bl	8004198 <__errno>
 80051fc:	2316      	movs	r3, #22
 80051fe:	6003      	str	r3, [r0, #0]
 8005200:	2000      	movs	r0, #0
 8005202:	b005      	add	sp, #20
 8005204:	bdf0      	pop	{r4, r5, r6, r7, pc}
 8005206:	9100      	str	r1, [sp, #0]
 8005208:	2d2b      	cmp	r5, #43	@ 0x2b
 800520a:	d1e6      	bne.n	80051da <_strtol_l.isra.0+0x3a>
 800520c:	7825      	ldrb	r5, [r4, #0]
 800520e:	1c9c      	adds	r4, r3, #2
 8005210:	e7e3      	b.n	80051da <_strtol_l.isra.0+0x3a>
 8005212:	2e00      	cmp	r6, #0
 8005214:	d1ee      	bne.n	80051f4 <_strtol_l.isra.0+0x54>
 8005216:	360a      	adds	r6, #10
 8005218:	2d30      	cmp	r5, #48	@ 0x30
 800521a:	d100      	bne.n	800521e <_strtol_l.isra.0+0x7e>
 800521c:	3e02      	subs	r6, #2
 800521e:	4a24      	ldr	r2, [pc, #144]	@ (80052b0 <_strtol_l.isra.0+0x110>)
 8005220:	9b00      	ldr	r3, [sp, #0]
 8005222:	4694      	mov	ip, r2
 8005224:	4463      	add	r3, ip
 8005226:	0031      	movs	r1, r6
 8005228:	0018      	movs	r0, r3
 800522a:	9302      	str	r3, [sp, #8]
 800522c:	f7fb f822 	bl	8000274 <__aeabi_uidivmod>
 8005230:	2200      	movs	r2, #0
 8005232:	4684      	mov	ip, r0
 8005234:	0010      	movs	r0, r2
 8005236:	002b      	movs	r3, r5
 8005238:	3b30      	subs	r3, #48	@ 0x30
 800523a:	2b09      	cmp	r3, #9
 800523c:	d811      	bhi.n	8005262 <_strtol_l.isra.0+0xc2>
 800523e:	001d      	movs	r5, r3
 8005240:	42ae      	cmp	r6, r5
 8005242:	dd1d      	ble.n	8005280 <_strtol_l.isra.0+0xe0>
 8005244:	1c53      	adds	r3, r2, #1
 8005246:	d009      	beq.n	800525c <_strtol_l.isra.0+0xbc>
 8005248:	2201      	movs	r2, #1
 800524a:	4252      	negs	r2, r2
 800524c:	4584      	cmp	ip, r0
 800524e:	d305      	bcc.n	800525c <_strtol_l.isra.0+0xbc>
 8005250:	d101      	bne.n	8005256 <_strtol_l.isra.0+0xb6>
 8005252:	42a9      	cmp	r1, r5
 8005254:	db11      	blt.n	800527a <_strtol_l.isra.0+0xda>
 8005256:	2201      	movs	r2, #1
 8005258:	4370      	muls	r0, r6
 800525a:	1828      	adds	r0, r5, r0
 800525c:	7825      	ldrb	r5, [r4, #0]
 800525e:	3401      	adds	r4, #1
 8005260:	e7e9      	b.n	8005236 <_strtol_l.isra.0+0x96>
 8005262:	002b      	movs	r3, r5
 8005264:	3b41      	subs	r3, #65	@ 0x41
 8005266:	2b19      	cmp	r3, #25
 8005268:	d801      	bhi.n	800526e <_strtol_l.isra.0+0xce>
 800526a:	3d37      	subs	r5, #55	@ 0x37
 800526c:	e7e8      	b.n	8005240 <_strtol_l.isra.0+0xa0>
 800526e:	002b      	movs	r3, r5
 8005270:	3b61      	subs	r3, #97	@ 0x61
 8005272:	2b19      	cmp	r3, #25
 8005274:	d804      	bhi.n	8005280 <_strtol_l.isra.0+0xe0>
 8005276:	3d57      	subs	r5, #87	@ 0x57
 8005278:	e7e2      	b.n	8005240 <_strtol_l.isra.0+0xa0>
 800527a:	2201      	movs	r2, #1
 800527c:	4252      	negs	r2, r2
 800527e:	e7ed      	b.n	800525c <_strtol_l.isra.0+0xbc>
 8005280:	1c53      	adds	r3, r2, #1
 8005282:	d108      	bne.n	8005296 <_strtol_l.isra.0+0xf6>
 8005284:	2322      	movs	r3, #34	@ 0x22
 8005286:	9a03      	ldr	r2, [sp, #12]
 8005288:	9802      	ldr	r0, [sp, #8]
 800528a:	6013      	str	r3, [r2, #0]
 800528c:	2f00      	cmp	r7, #0
 800528e:	d0b8      	beq.n	8005202 <_strtol_l.isra.0+0x62>
 8005290:	1e63      	subs	r3, r4, #1
 8005292:	9301      	str	r3, [sp, #4]
 8005294:	e007      	b.n	80052a6 <_strtol_l.isra.0+0x106>
 8005296:	9b00      	ldr	r3, [sp, #0]
 8005298:	2b00      	cmp	r3, #0
 800529a:	d000      	beq.n	800529e <_strtol_l.isra.0+0xfe>
 800529c:	4240      	negs	r0, r0
 800529e:	2f00      	cmp	r7, #0
 80052a0:	d0af      	beq.n	8005202 <_strtol_l.isra.0+0x62>
 80052a2:	2a00      	cmp	r2, #0
 80052a4:	d1f4      	bne.n	8005290 <_strtol_l.isra.0+0xf0>
 80052a6:	9b01      	ldr	r3, [sp, #4]
 80052a8:	603b      	str	r3, [r7, #0]
 80052aa:	e7aa      	b.n	8005202 <_strtol_l.isra.0+0x62>
 80052ac:	0800557b 	.word	0x0800557b
 80052b0:	7fffffff 	.word	0x7fffffff

080052b4 <_strtol_r>:
 80052b4:	b510      	push	{r4, lr}
 80052b6:	f7ff ff73 	bl	80051a0 <_strtol_l.isra.0>
 80052ba:	bd10      	pop	{r4, pc}

080052bc <_strtoul_l.isra.0>:
 80052bc:	b5f0      	push	{r4, r5, r6, r7, lr}
 80052be:	001e      	movs	r6, r3
 80052c0:	4b3e      	ldr	r3, [pc, #248]	@ (80053bc <_strtoul_l.isra.0+0x100>)
 80052c2:	0017      	movs	r7, r2
 80052c4:	000c      	movs	r4, r1
 80052c6:	469c      	mov	ip, r3
 80052c8:	2208      	movs	r2, #8
 80052ca:	b085      	sub	sp, #20
 80052cc:	9003      	str	r0, [sp, #12]
 80052ce:	9100      	str	r1, [sp, #0]
 80052d0:	0023      	movs	r3, r4
 80052d2:	4661      	mov	r1, ip
 80052d4:	781d      	ldrb	r5, [r3, #0]
 80052d6:	3401      	adds	r4, #1
 80052d8:	5d48      	ldrb	r0, [r1, r5]
 80052da:	0001      	movs	r1, r0
 80052dc:	4011      	ands	r1, r2
 80052de:	4210      	tst	r0, r2
 80052e0:	d1f6      	bne.n	80052d0 <_strtoul_l.isra.0+0x14>
 80052e2:	2d2d      	cmp	r5, #45	@ 0x2d
 80052e4:	d112      	bne.n	800530c <_strtoul_l.isra.0+0x50>
 80052e6:	7825      	ldrb	r5, [r4, #0]
 80052e8:	1c9c      	adds	r4, r3, #2
 80052ea:	2301      	movs	r3, #1
 80052ec:	9302      	str	r3, [sp, #8]
 80052ee:	2210      	movs	r2, #16
 80052f0:	0033      	movs	r3, r6
 80052f2:	4393      	bics	r3, r2
 80052f4:	d116      	bne.n	8005324 <_strtoul_l.isra.0+0x68>
 80052f6:	2d30      	cmp	r5, #48	@ 0x30
 80052f8:	d10e      	bne.n	8005318 <_strtoul_l.isra.0+0x5c>
 80052fa:	2120      	movs	r1, #32
 80052fc:	7823      	ldrb	r3, [r4, #0]
 80052fe:	438b      	bics	r3, r1
 8005300:	2b58      	cmp	r3, #88	@ 0x58
 8005302:	d109      	bne.n	8005318 <_strtoul_l.isra.0+0x5c>
 8005304:	7865      	ldrb	r5, [r4, #1]
 8005306:	3402      	adds	r4, #2
 8005308:	2610      	movs	r6, #16
 800530a:	e00b      	b.n	8005324 <_strtoul_l.isra.0+0x68>
 800530c:	9102      	str	r1, [sp, #8]
 800530e:	2d2b      	cmp	r5, #43	@ 0x2b
 8005310:	d1ed      	bne.n	80052ee <_strtoul_l.isra.0+0x32>
 8005312:	7825      	ldrb	r5, [r4, #0]
 8005314:	1c9c      	adds	r4, r3, #2
 8005316:	e7ea      	b.n	80052ee <_strtoul_l.isra.0+0x32>
 8005318:	2e00      	cmp	r6, #0
 800531a:	d1f5      	bne.n	8005308 <_strtoul_l.isra.0+0x4c>
 800531c:	360a      	adds	r6, #10
 800531e:	2d30      	cmp	r5, #48	@ 0x30
 8005320:	d100      	bne.n	8005324 <_strtoul_l.isra.0+0x68>
 8005322:	3e02      	subs	r6, #2
 8005324:	2001      	movs	r0, #1
 8005326:	0031      	movs	r1, r6
 8005328:	4240      	negs	r0, r0
 800532a:	f7fa ff1d 	bl	8000168 <__udivsi3>
 800532e:	9001      	str	r0, [sp, #4]
 8005330:	2001      	movs	r0, #1
 8005332:	0031      	movs	r1, r6
 8005334:	4240      	negs	r0, r0
 8005336:	f7fa ff9d 	bl	8000274 <__aeabi_uidivmod>
 800533a:	2300      	movs	r3, #0
 800533c:	2201      	movs	r2, #1
 800533e:	0018      	movs	r0, r3
 8005340:	4694      	mov	ip, r2
 8005342:	002a      	movs	r2, r5
 8005344:	3a30      	subs	r2, #48	@ 0x30
 8005346:	2a09      	cmp	r2, #9
 8005348:	d812      	bhi.n	8005370 <_strtoul_l.isra.0+0xb4>
 800534a:	0015      	movs	r5, r2
 800534c:	42ae      	cmp	r6, r5
 800534e:	dd1e      	ble.n	800538e <_strtoul_l.isra.0+0xd2>
 8005350:	1c5a      	adds	r2, r3, #1
 8005352:	d00a      	beq.n	800536a <_strtoul_l.isra.0+0xae>
 8005354:	2301      	movs	r3, #1
 8005356:	9a01      	ldr	r2, [sp, #4]
 8005358:	425b      	negs	r3, r3
 800535a:	4282      	cmp	r2, r0
 800535c:	d305      	bcc.n	800536a <_strtoul_l.isra.0+0xae>
 800535e:	d101      	bne.n	8005364 <_strtoul_l.isra.0+0xa8>
 8005360:	42a9      	cmp	r1, r5
 8005362:	db11      	blt.n	8005388 <_strtoul_l.isra.0+0xcc>
 8005364:	4663      	mov	r3, ip
 8005366:	4370      	muls	r0, r6
 8005368:	1828      	adds	r0, r5, r0
 800536a:	7825      	ldrb	r5, [r4, #0]
 800536c:	3401      	adds	r4, #1
 800536e:	e7e8      	b.n	8005342 <_strtoul_l.isra.0+0x86>
 8005370:	002a      	movs	r2, r5
 8005372:	3a41      	subs	r2, #65	@ 0x41
 8005374:	2a19      	cmp	r2, #25
 8005376:	d801      	bhi.n	800537c <_strtoul_l.isra.0+0xc0>
 8005378:	3d37      	subs	r5, #55	@ 0x37
 800537a:	e7e7      	b.n	800534c <_strtoul_l.isra.0+0x90>
 800537c:	002a      	movs	r2, r5
 800537e:	3a61      	subs	r2, #97	@ 0x61
 8005380:	2a19      	cmp	r2, #25
 8005382:	d804      	bhi.n	800538e <_strtoul_l.isra.0+0xd2>
 8005384:	3d57      	subs	r5, #87	@ 0x57
 8005386:	e7e1      	b.n	800534c <_strtoul_l.isra.0+0x90>
 8005388:	2301      	movs	r3, #1
 800538a:	425b      	negs	r3, r3
 800538c:	e7ed      	b.n	800536a <_strtoul_l.isra.0+0xae>
 800538e:	1c5a      	adds	r2, r3, #1
 8005390:	d107      	bne.n	80053a2 <_strtoul_l.isra.0+0xe6>
 8005392:	2222      	movs	r2, #34	@ 0x22
 8005394:	9903      	ldr	r1, [sp, #12]
 8005396:	0018      	movs	r0, r3
 8005398:	600a      	str	r2, [r1, #0]
 800539a:	2f00      	cmp	r7, #0
 800539c:	d109      	bne.n	80053b2 <_strtoul_l.isra.0+0xf6>
 800539e:	b005      	add	sp, #20
 80053a0:	bdf0      	pop	{r4, r5, r6, r7, pc}
 80053a2:	9a02      	ldr	r2, [sp, #8]
 80053a4:	2a00      	cmp	r2, #0
 80053a6:	d000      	beq.n	80053aa <_strtoul_l.isra.0+0xee>
 80053a8:	4240      	negs	r0, r0
 80053aa:	2f00      	cmp	r7, #0
 80053ac:	d0f7      	beq.n	800539e <_strtoul_l.isra.0+0xe2>
 80053ae:	2b00      	cmp	r3, #0
 80053b0:	d001      	beq.n	80053b6 <_strtoul_l.isra.0+0xfa>
 80053b2:	1e63      	subs	r3, r4, #1
 80053b4:	9300      	str	r3, [sp, #0]
 80053b6:	9b00      	ldr	r3, [sp, #0]
 80053b8:	603b      	str	r3, [r7, #0]
 80053ba:	e7f0      	b.n	800539e <_strtoul_l.isra.0+0xe2>
 80053bc:	0800557b 	.word	0x0800557b

080053c0 <_strtoul_r>:
 80053c0:	b510      	push	{r4, lr}
 80053c2:	f7ff ff7b 	bl	80052bc <_strtoul_l.isra.0>
 80053c6:	bd10      	pop	{r4, pc}

080053c8 <_malloc_usable_size_r>:
 80053c8:	1f0b      	subs	r3, r1, #4
 80053ca:	681b      	ldr	r3, [r3, #0]
 80053cc:	1f18      	subs	r0, r3, #4
 80053ce:	2b00      	cmp	r3, #0
 80053d0:	da01      	bge.n	80053d6 <_malloc_usable_size_r+0xe>
 80053d2:	580b      	ldr	r3, [r1, r0]
 80053d4:	18c0      	adds	r0, r0, r3
 80053d6:	4770      	bx	lr

080053d8 <_init>:
 80053d8:	b5f8      	push	{r3, r4, r5, r6, r7, lr}
 80053da:	46c0      	nop			@ (mov r8, r8)
 80053dc:	bcf8      	pop	{r3, r4, r5, r6, r7}
 80053de:	bc08      	pop	{r3}
 80053e0:	469e      	mov	lr, r3
 80053e2:	4770      	bx	lr

080053e4 <_fini>:
 80053e4:	b5f8      	push	{r3, r4, r5, r6, r7, lr}
 80053e6:	46c0      	nop			@ (mov r8, r8)
 80053e8:	bcf8      	pop	{r3, r4, r5, r6, r7}
 80053ea:	bc08      	pop	{r3}
 80053ec:	469e      	mov	lr, r3
 80053ee:	4770      	bx	lr
